DraftUtils.so:PyInit_DraftUtils
DraftUtils.so:_ZN10DraftUtils10initModuleEv
DraftUtils.so:_ZN10DraftUtils12DraftDxfRead10OnReadLineEPKdS2_b
DraftUtils.so:_ZN10DraftUtils12DraftDxfRead10OnReadTextEPKddPKc
DraftUtils.so:_ZN10DraftUtils12DraftDxfRead11OnReadPointEPKd
DraftUtils.so:_ZN10DraftUtils12DraftDxfRead12OnReadCircleEPKdS2_bb
DraftUtils.so:_ZN10DraftUtils12DraftDxfRead12OnReadInsertEPKdS2_PKcd
DraftUtils.so:_ZN10DraftUtils12DraftDxfRead12OnReadSplineER10SplineData
DraftUtils.so:_ZN10DraftUtils12DraftDxfRead13OnReadEllipseEPKddddddb
DraftUtils.so:_ZN10DraftUtils12DraftDxfRead15OnReadDimensionEPKdS2_S2_d
DraftUtils.so:_ZN10DraftUtils12DraftDxfRead8DeformatB5cxx11EPKc
DraftUtils.so:_ZN10DraftUtils12DraftDxfRead9AddObjectEPN4Part9TopoShapeE
DraftUtils.so:_ZN10DraftUtils12DraftDxfRead9OnReadArcEPKdS2_S2_bb
DraftUtils.so:_ZN10DraftUtils12DraftDxfRead9makePointEPKd
DraftUtils.so:_ZN10DraftUtils12DraftDxfReadC1ENSt7__cxx1112basic_stringIcSt11char_traitsIcESaIcEEEPN3App8DocumentE
DraftUtils.so:_ZN10DraftUtils12DraftDxfReadC2ENSt7__cxx1112basic_stringIcSt11char_traitsIcESaIcEEEPN3App8DocumentE
DraftUtils.so:_ZN8CDxfRead10ReadCircleEv
DraftUtils.so:_ZN8CDxfRead10ReadInsertEv
DraftUtils.so:_ZN8CDxfRead10ReadSplineEv
DraftUtils.so:_ZN8CDxfRead10ReadVertexEPdPbS0_
DraftUtils.so:_ZN8CDxfRead11ReadEllipseEv
DraftUtils.so:_ZN8CDxfRead12OnReadCircleEPKddb
DraftUtils.so:_ZN8CDxfRead12ReadPolyLineEv
DraftUtils.so:_ZN8CDxfRead13OnReadEllipseEPKdS1_ddd
DraftUtils.so:_ZN8CDxfRead13ReadBlockInfoEv
DraftUtils.so:_ZN8CDxfRead13ReadDimensionEv
DraftUtils.so:_ZN8CDxfRead14ReadLwPolyLineEv
DraftUtils.so:_ZN8CDxfRead6DoReadEb
DraftUtils.so:_ZN8CDxfRead7ReadArcEv
DraftUtils.so:_ZN8CDxfRead8DerefACIEv
DraftUtils.so:_ZN8CDxfRead8ReadLineEv
DraftUtils.so:_ZN8CDxfRead8ReadTextEv
DraftUtils.so:_ZN8CDxfRead8get_lineEv
DraftUtils.so:_ZN8CDxfRead8put_lineEPKc
DraftUtils.so:_ZN8CDxfRead9OnReadArcEdddPKddb
DraftUtils.so:_ZN8CDxfRead9ReadLayerEv
DraftUtils.so:_ZN8CDxfRead9ReadPointEv
DraftUtils.so:_ZN8CDxfRead9ReadUnitsEv
DraftUtils.so:_ZN8CDxfReadC1EPKc
DraftUtils.so:_ZN8CDxfReadC2EPKc
DraftUtils.so:_ZN8CDxfReadD1Ev
DraftUtils.so:_ZN8CDxfReadD2Ev
DraftUtils.so:_ZN9CDxfWrite10WritePointEPKdPKc
DraftUtils.so:_ZN9CDxfWrite11WriteCircleEPKddPKc
DraftUtils.so:_ZN9CDxfWrite12WriteEllipseEPKddddddbPKc
DraftUtils.so:_ZN9CDxfWrite8WriteArcEPKdS1_S1_bPKc
DraftUtils.so:_ZN9CDxfWrite9WriteLineEPKdS1_PKc
DraftUtils.so:_ZN9CDxfWriteC1EPKc
DraftUtils.so:_ZN9CDxfWriteC2EPKc
DraftUtils.so:_ZN9CDxfWriteD1Ev
DraftUtils.so:_ZN9CDxfWriteD2Ev
DraftUtils.so:_ZNK10DraftUtils12DraftDxfRead11AddGraphicsEv
DraftUtils.so:_ZNK8CDxfRead2mmEd
DraftUtils.so:_ZNK8CDxfRead9LayerNameB5cxx11Ev
Drawing.so:PyInit_Drawing
Drawing.so:_ZN3App14FeaturePythonTIN7Drawing11FeatureViewEE14getClassTypeIdEv
Drawing.so:_ZN3App14FeaturePythonTIN7Drawing11FeatureViewEE18getPropertyDataPtrEv
Drawing.so:_ZN3App14FeaturePythonTIN7Drawing11FeatureViewEE4initEv
Drawing.so:_ZN3App14FeaturePythonTIN7Drawing11FeatureViewEE6createEv
Drawing.so:_ZN3App14FeaturePythonTIN7Drawing15FeatureViewPartEE14getClassTypeIdEv
Drawing.so:_ZN3App14FeaturePythonTIN7Drawing15FeatureViewPartEE18getPropertyDataPtrEv
Drawing.so:_ZN3App14FeaturePythonTIN7Drawing15FeatureViewPartEE4initEv
Drawing.so:_ZN3App14FeaturePythonTIN7Drawing15FeatureViewPartEE6createEv
Drawing.so:_ZN3App14FeaturePythonTIN7Drawing17FeatureViewSymbolEE14getClassTypeIdEv
Drawing.so:_ZN3App14FeaturePythonTIN7Drawing17FeatureViewSymbolEE18getPropertyDataPtrEv
Drawing.so:_ZN3App14FeaturePythonTIN7Drawing17FeatureViewSymbolEE4initEv
Drawing.so:_ZN3App14FeaturePythonTIN7Drawing17FeatureViewSymbolEE6createEv
Drawing.so:_ZN3App14FeaturePythonTIN7Drawing21FeatureViewAnnotationEE14getClassTypeIdEv
Drawing.so:_ZN3App14FeaturePythonTIN7Drawing21FeatureViewAnnotationEE18getPropertyDataPtrEv
Drawing.so:_ZN3App14FeaturePythonTIN7Drawing21FeatureViewAnnotationEE4initEv
Drawing.so:_ZN3App14FeaturePythonTIN7Drawing21FeatureViewAnnotationEE6createEv
Drawing.so:_ZN7Drawing10initModuleEv
Drawing.so:_ZN7Drawing11FeatureClip14getClassTypeIdEv
Drawing.so:_ZN7Drawing11FeatureClip18getPropertyDataPtrEv
Drawing.so:_ZN7Drawing11FeatureClip4initEv
Drawing.so:_ZN7Drawing11FeatureClip6createEv
Drawing.so:_ZN7Drawing11FeatureClip7executeEv
Drawing.so:_ZN7Drawing11FeatureClip9onChangedEPKN3App8PropertyE
Drawing.so:_ZN7Drawing11FeatureClipC1Ev
Drawing.so:_ZN7Drawing11FeatureClipC2Ev
Drawing.so:_ZN7Drawing11FeatureClipD0Ev
Drawing.so:_ZN7Drawing11FeatureClipD1Ev
Drawing.so:_ZN7Drawing11FeatureClipD2Ev
Drawing.so:_ZN7Drawing11FeaturePage14getClassTypeIdEv
Drawing.so:_ZN7Drawing11FeaturePage14onBeforeChangeEPKN3App8PropertyE
Drawing.so:_ZN7Drawing11FeaturePage18getPropertyDataPtrEv
Drawing.so:_ZN7Drawing11FeaturePage18onDocumentRestoredEv
Drawing.so:_ZN7Drawing11FeaturePage4initEv
Drawing.so:_ZN7Drawing11FeaturePage6createEv
Drawing.so:_ZN7Drawing11FeaturePage7executeEv
Drawing.so:_ZN7Drawing11FeaturePage9onChangedEPKN3App8PropertyE
Drawing.so:_ZN7Drawing11FeaturePageC1Ev
Drawing.so:_ZN7Drawing11FeaturePageC2Ev
Drawing.so:_ZN7Drawing11FeaturePageD0Ev
Drawing.so:_ZN7Drawing11FeaturePageD1Ev
Drawing.so:_ZN7Drawing11FeaturePageD2Ev
Drawing.so:_ZN7Drawing11FeatureView14getClassTypeIdEv
Drawing.so:_ZN7Drawing11FeatureView18getPropertyDataPtrEv
Drawing.so:_ZN7Drawing11FeatureView4initEv
Drawing.so:_ZN7Drawing11FeatureView6createEv
Drawing.so:_ZN7Drawing11FeatureView7executeEv
Drawing.so:_ZN7Drawing11FeatureView9recomputeEv
Drawing.so:_ZN7Drawing11FeatureViewC1Ev
Drawing.so:_ZN7Drawing11FeatureViewC2Ev
Drawing.so:_ZN7Drawing11FeatureViewD0Ev
Drawing.so:_ZN7Drawing11FeatureViewD1Ev
Drawing.so:_ZN7Drawing11FeatureViewD2Ev
Drawing.so:_ZN7Drawing15FeatureViewPart14getClassTypeIdEv
Drawing.so:_ZN7Drawing15FeatureViewPart18getPropertyDataPtrEv
Drawing.so:_ZN7Drawing15FeatureViewPart4initEv
Drawing.so:_ZN7Drawing15FeatureViewPart6createEv
Drawing.so:_ZN7Drawing15FeatureViewPart7executeEv
Drawing.so:_ZN7Drawing15FeatureViewPartC1Ev
Drawing.so:_ZN7Drawing15FeatureViewPartC2Ev
Drawing.so:_ZN7Drawing15FeatureViewPartD0Ev
Drawing.so:_ZN7Drawing15FeatureViewPartD1Ev
Drawing.so:_ZN7Drawing15FeatureViewPartD2Ev
Drawing.so:_ZN7Drawing15ProjectionAlgos6getDXFB5cxx11ENS0_14ExtractionTypeEdd
Drawing.so:_ZN7Drawing15ProjectionAlgos6getSVGENS0_14ExtractionTypeEdSt3mapINSt7__cxx1112basic_stringIcSt11char_traitsIcESaIcEEES8_St4lessIS8_ESaISt4pairIKS8_S8_EEESF_SF_SF_SF_SF_
Drawing.so:_ZN7Drawing15ProjectionAlgos7executeEv
Drawing.so:_ZN7Drawing15ProjectionAlgosC1ERK12TopoDS_ShapeRKN4Base7Vector3IdEE
Drawing.so:_ZN7Drawing15ProjectionAlgosC2ERK12TopoDS_ShapeRKN4Base7Vector3IdEE
Drawing.so:_ZN7Drawing15ProjectionAlgosD0Ev
Drawing.so:_ZN7Drawing15ProjectionAlgosD1Ev
Drawing.so:_ZN7Drawing15ProjectionAlgosD2Ev
Drawing.so:_ZN7Drawing17FeatureProjection14getClassTypeIdEv
Drawing.so:_ZN7Drawing17FeatureProjection18getPropertyDataPtrEv
Drawing.so:_ZN7Drawing17FeatureProjection4initEv
Drawing.so:_ZN7Drawing17FeatureProjection6createEv
Drawing.so:_ZN7Drawing17FeatureProjection7executeEv
Drawing.so:_ZN7Drawing17FeatureProjectionC1Ev
Drawing.so:_ZN7Drawing17FeatureProjectionC2Ev
Drawing.so:_ZN7Drawing17FeatureProjectionD0Ev
Drawing.so:_ZN7Drawing17FeatureProjectionD1Ev
Drawing.so:_ZN7Drawing17FeatureProjectionD2Ev
Drawing.so:_ZN7Drawing17FeatureViewSymbol14getClassTypeIdEv
Drawing.so:_ZN7Drawing17FeatureViewSymbol18getPropertyDataPtrEv
Drawing.so:_ZN7Drawing17FeatureViewSymbol4initEv
Drawing.so:_ZN7Drawing17FeatureViewSymbol6createEv
Drawing.so:_ZN7Drawing17FeatureViewSymbol7executeEv
Drawing.so:_ZN7Drawing17FeatureViewSymbol9onChangedEPKN3App8PropertyE
Drawing.so:_ZN7Drawing17FeatureViewSymbolC1Ev
Drawing.so:_ZN7Drawing17FeatureViewSymbolC2Ev
Drawing.so:_ZN7Drawing17FeatureViewSymbolD0Ev
Drawing.so:_ZN7Drawing17FeatureViewSymbolD1Ev
Drawing.so:_ZN7Drawing17FeatureViewSymbolD2Ev
Drawing.so:_ZN7Drawing21FeatureViewAnnotation14getClassTypeIdEv
Drawing.so:_ZN7Drawing21FeatureViewAnnotation18getPropertyDataPtrEv
Drawing.so:_ZN7Drawing21FeatureViewAnnotation4initEv
Drawing.so:_ZN7Drawing21FeatureViewAnnotation6createEv
Drawing.so:_ZN7Drawing21FeatureViewAnnotation7executeEv
Drawing.so:_ZN7Drawing21FeatureViewAnnotationC1Ev
Drawing.so:_ZN7Drawing21FeatureViewAnnotationC2Ev
Drawing.so:_ZN7Drawing21FeatureViewAnnotationD0Ev
Drawing.so:_ZN7Drawing21FeatureViewAnnotationD1Ev
Drawing.so:_ZN7Drawing21FeatureViewAnnotationD2Ev
Drawing.so:_ZN7Drawing22FeatureViewSpreadsheet14getClassTypeIdEv
Drawing.so:_ZN7Drawing22FeatureViewSpreadsheet18getPropertyDataPtrEv
Drawing.so:_ZN7Drawing22FeatureViewSpreadsheet4initEv
Drawing.so:_ZN7Drawing22FeatureViewSpreadsheet6createEv
Drawing.so:_ZN7Drawing22FeatureViewSpreadsheet7executeEv
Drawing.so:_ZN7Drawing22FeatureViewSpreadsheetC1Ev
Drawing.so:_ZN7Drawing22FeatureViewSpreadsheetC2Ev
Drawing.so:_ZN7Drawing22FeatureViewSpreadsheetD0Ev
Drawing.so:_ZN7Drawing22FeatureViewSpreadsheetD1Ev
Drawing.so:_ZN7Drawing22FeatureViewSpreadsheetD2Ev
Drawing.so:_ZN7Drawing9DXFOutput11exportEdgesB5cxx11ERK12TopoDS_Shape
Drawing.so:_ZN7Drawing9DXFOutput11printCircleERK17BRepAdaptor_CurveRSo
Drawing.so:_ZN7Drawing9DXFOutput11printHeaderERSo
Drawing.so:_ZN7Drawing9DXFOutput12printBSplineERK17BRepAdaptor_CurveiRSo
Drawing.so:_ZN7Drawing9DXFOutput12printEllipseERK17BRepAdaptor_CurveiRSo
Drawing.so:_ZN7Drawing9DXFOutput12printGenericERK17BRepAdaptor_CurveiRSo
Drawing.so:_ZN7Drawing9DXFOutputC1Ev
Drawing.so:_ZN7Drawing9DXFOutputC2Ev
Drawing.so:_ZN7Drawing9PageGroup14getClassTypeIdEv
Drawing.so:_ZN7Drawing9PageGroup18getPropertyDataPtrEv
Drawing.so:_ZN7Drawing9PageGroup4initEv
Drawing.so:_ZN7Drawing9PageGroup6createEv
Drawing.so:_ZN7Drawing9PageGroupC1Ev
Drawing.so:_ZN7Drawing9PageGroupC2Ev
Drawing.so:_ZN7Drawing9PageGroupD0Ev
Drawing.so:_ZN7Drawing9PageGroupD1Ev
Drawing.so:_ZN7Drawing9PageGroupD2Ev
Drawing.so:_ZN7Drawing9SVGOutput11exportEdgesB5cxx11ERK12TopoDS_Shape
Drawing.so:_ZN7Drawing9SVGOutput11printBezierERK17BRepAdaptor_CurveiRSo
Drawing.so:_ZN7Drawing9SVGOutput11printCircleERK17BRepAdaptor_CurveRSo
Drawing.so:_ZN7Drawing9SVGOutput12printBSplineERK17BRepAdaptor_CurveiRSo
Drawing.so:_ZN7Drawing9SVGOutput12printEllipseERK17BRepAdaptor_CurveiRSo
Drawing.so:_ZN7Drawing9SVGOutput12printGenericERK17BRepAdaptor_CurveiRSo
Drawing.so:_ZN7Drawing9SVGOutputC1Ev
Drawing.so:_ZN7Drawing9SVGOutputC2Ev
Drawing.so:_ZNK3App14FeaturePythonTIN7Drawing11FeatureViewEE15getPropertyDataEv
Drawing.so:_ZNK3App14FeaturePythonTIN7Drawing11FeatureViewEE19getViewProviderNameEv
Drawing.so:_ZNK3App14FeaturePythonTIN7Drawing11FeatureViewEE9getTypeIdEv
Drawing.so:_ZNK3App14FeaturePythonTIN7Drawing15FeatureViewPartEE15getPropertyDataEv
Drawing.so:_ZNK3App14FeaturePythonTIN7Drawing15FeatureViewPartEE19getViewProviderNameEv
Drawing.so:_ZNK3App14FeaturePythonTIN7Drawing15FeatureViewPartEE9getTypeIdEv
Drawing.so:_ZNK3App14FeaturePythonTIN7Drawing17FeatureViewSymbolEE15getPropertyDataEv
Drawing.so:_ZNK3App14FeaturePythonTIN7Drawing17FeatureViewSymbolEE19getViewProviderNameEv
Drawing.so:_ZNK3App14FeaturePythonTIN7Drawing17FeatureViewSymbolEE9getTypeIdEv
Drawing.so:_ZNK3App14FeaturePythonTIN7Drawing21FeatureViewAnnotationEE15getPropertyDataEv
Drawing.so:_ZNK3App14FeaturePythonTIN7Drawing21FeatureViewAnnotationEE19getViewProviderNameEv
Drawing.so:_ZNK3App14FeaturePythonTIN7Drawing21FeatureViewAnnotationEE9getTypeIdEv
Drawing.so:_ZNK7Drawing11FeatureClip15getPropertyDataEv
Drawing.so:_ZNK7Drawing11FeatureClip9getTypeIdEv
Drawing.so:_ZNK7Drawing11FeaturePage15getPropertyDataEv
Drawing.so:_ZNK7Drawing11FeaturePage28getEditableTextsFromTemplateB5cxx11Ev
Drawing.so:_ZNK7Drawing11FeaturePage9getTypeIdEv
Drawing.so:_ZNK7Drawing11FeatureView15getPropertyDataEv
Drawing.so:_ZNK7Drawing11FeatureView9getTypeIdEv
Drawing.so:_ZNK7Drawing13DrawingOutput8asCircleERK17BRepAdaptor_Curve
Drawing.so:_ZNK7Drawing13DrawingOutput9asBSplineERK17BRepAdaptor_Curvei
Drawing.so:_ZNK7Drawing15FeatureViewPart15getPropertyDataEv
Drawing.so:_ZNK7Drawing15FeatureViewPart9getTypeIdEv
Drawing.so:_ZNK7Drawing17FeatureProjection15getPropertyDataEv
Drawing.so:_ZNK7Drawing17FeatureProjection9getTypeIdEv
Drawing.so:_ZNK7Drawing17FeatureViewSymbol15getPropertyDataEv
Drawing.so:_ZNK7Drawing17FeatureViewSymbol9getTypeIdEv
Drawing.so:_ZNK7Drawing21FeatureViewAnnotation15getPropertyDataEv
Drawing.so:_ZNK7Drawing21FeatureViewAnnotation9getTypeIdEv
Drawing.so:_ZNK7Drawing22FeatureViewSpreadsheet15getPropertyDataEv
Drawing.so:_ZNK7Drawing22FeatureViewSpreadsheet9getTypeIdEv
Drawing.so:_ZNK7Drawing9PageGroup15getPropertyDataEv
Drawing.so:_ZNK7Drawing9PageGroup9getTypeIdEv
Drawing.so:_ZThn448_N7Drawing11FeatureClipD0Ev
Drawing.so:_ZThn448_N7Drawing11FeatureClipD1Ev
Drawing.so:_ZThn448_N7Drawing11FeaturePageD0Ev
Drawing.so:_ZThn448_N7Drawing11FeaturePageD1Ev
Drawing.so:_ZThn448_N7Drawing9PageGroupD0Ev
Drawing.so:_ZThn448_N7Drawing9PageGroupD1Ev
DrawingGui.so:PyInit_DrawingGui
DrawingGui.so:_Z19loadDrawingResourcev
DrawingGui.so:_Z21CreateDrawingCommandsv
DrawingGui.so:_Z22qInitResources_Drawingv
DrawingGui.so:_Z25qCleanupResources_Drawingv
DrawingGui.so:_Z8pagesizeRNSt7__cxx1112basic_stringIcSt11char_traitsIcESaIcEEEPiS6_
DrawingGui.so:_ZN10DrawingGui10OrthoViews10calc_scaleEv
DrawingGui.so:_ZN10DrawingGui10OrthoViews10set_hiddenEb
DrawingGui.so:_ZN10DrawingGui10OrthoViews10set_smoothEb
DrawingGui.so:_ZN10DrawingGui10OrthoViews11choose_pageEv
DrawingGui.so:_ZN10DrawingGui10OrthoViews11get_configsEPf
DrawingGui.so:_ZN10DrawingGui10OrthoViews11set_configsEPf
DrawingGui.so:_ZN10DrawingGui10OrthoViews11set_primaryE6gp_DirS1_
DrawingGui.so:_ZN10DrawingGui10OrthoViews12calc_offsetsEv
DrawingGui.so:_ZN10DrawingGui10OrthoViews13process_viewsEv
DrawingGui.so:_ZN10DrawingGui10OrthoViews13set_Axo_scaleEiif
DrawingGui.so:_ZN10DrawingGui10OrthoViews14set_projectionEi
DrawingGui.so:_ZN10DrawingGui10OrthoViews15set_orientationEi
DrawingGui.so:_ZN10DrawingGui10OrthoViews16calc_layout_sizeEv
DrawingGui.so:_ZN10DrawingGui10OrthoViews17slotDeletedObjectERKN3App14DocumentObjectE
DrawingGui.so:_ZN10DrawingGui10OrthoViews19slotDeletedDocumentERKN3App8DocumentE
DrawingGui.so:_ZN10DrawingGui10OrthoViews20set_all_orientationsEv
DrawingGui.so:_ZN10DrawingGui10OrthoViews5indexEii
DrawingGui.so:_ZN10DrawingGui10OrthoViews7del_allEv
DrawingGui.so:_ZN10DrawingGui10OrthoViews7get_AxoEiiRiR6gp_DirS3_RbS4_Rf
DrawingGui.so:_ZN10DrawingGui10OrthoViews7set_AxoEii
DrawingGui.so:_ZN10DrawingGui10OrthoViews7set_AxoEii6gp_DirS1_bib
DrawingGui.so:_ZN10DrawingGui10OrthoViews8add_viewEii
DrawingGui.so:_ZN10DrawingGui10OrthoViews8del_viewEii
DrawingGui.so:_ZN10DrawingGui10OrthoViews8is_OrthoEii
DrawingGui.so:_ZN10DrawingGui10OrthoViews9auto_dimsEb
DrawingGui.so:_ZN10DrawingGui10OrthoViews9load_pageEv
DrawingGui.so:_ZN10DrawingGui10OrthoViews9set_OrthoEii
DrawingGui.so:_ZN10DrawingGui10OrthoViews9set_viewsEv
DrawingGui.so:_ZN10DrawingGui10OrthoViewsC1EPN3App8DocumentEPKcS5_
DrawingGui.so:_ZN10DrawingGui10OrthoViewsC2EPN3App8DocumentEPKcS5_
DrawingGui.so:_ZN10DrawingGui10OrthoViewsD1Ev
DrawingGui.so:_ZN10DrawingGui10OrthoViewsD2Ev
DrawingGui.so:_ZN10DrawingGui10initModuleEv
DrawingGui.so:_ZN10DrawingGui11DrawingView10closeEventEP11QCloseEvent
DrawingGui.so:_ZN10DrawingGui11DrawingView11getPyObjectEv
DrawingGui.so:_ZN10DrawingGui11DrawingView11qt_metacallEN11QMetaObject4CallEiPPv
DrawingGui.so:_ZN10DrawingGui11DrawingView11qt_metacastEPKc
DrawingGui.so:_ZN10DrawingGui11DrawingView11setRendererEP7QAction
DrawingGui.so:_ZN10DrawingGui11DrawingView12printPreviewEv
DrawingGui.so:_ZN10DrawingGui11DrawingView16contextMenuEventEP17QContextMenuEvent
DrawingGui.so:_ZN10DrawingGui11DrawingView17setDocumentObjectERKNSt7__cxx1112basic_stringIcSt11char_traitsIcESaIcEEE
DrawingGui.so:_ZN10DrawingGui11DrawingView19findPrinterSettingsERK7QString
DrawingGui.so:_ZN10DrawingGui11DrawingView4loadERK7QString
DrawingGui.so:_ZN10DrawingGui11DrawingView5onMsgEPKcPS2_
DrawingGui.so:_ZN10DrawingGui11DrawingView5printEP8QPrinter
DrawingGui.so:_ZN10DrawingGui11DrawingView5printEv
DrawingGui.so:_ZN10DrawingGui11DrawingView7viewAllEv
DrawingGui.so:_ZN10DrawingGui11DrawingView8printPdfEv
DrawingGui.so:_ZN10DrawingGui11DrawingView9onRelabelEPN3Gui8DocumentE
DrawingGui.so:_ZN10DrawingGui11DrawingViewC1EPN3Gui8DocumentEP7QWidget
DrawingGui.so:_ZN10DrawingGui11DrawingViewC2EPN3Gui8DocumentEP7QWidget
DrawingGui.so:_ZN10DrawingGui11DrawingViewD0Ev
DrawingGui.so:_ZN10DrawingGui11DrawingViewD1Ev
DrawingGui.so:_ZN10DrawingGui11DrawingViewD2Ev
DrawingGui.so:_ZN10DrawingGui14TaskOrthoViews10axo_buttonEv
DrawingGui.so:_ZN10DrawingGui14TaskOrthoViews10cb_toggledEb
DrawingGui.so:_ZN10DrawingGui14TaskOrthoViews10change_axoEi
DrawingGui.so:_ZN10DrawingGui14TaskOrthoViews10setPrimaryEi
DrawingGui.so:_ZN10DrawingGui14TaskOrthoViews10user_inputEv
DrawingGui.so:_ZN10DrawingGui14TaskOrthoViews11changeEventEP6QEvent
DrawingGui.so:_ZN10DrawingGui14TaskOrthoViews11qt_metacallEN11QMetaObject4CallEiPPv
DrawingGui.so:_ZN10DrawingGui14TaskOrthoViews11qt_metacastEPKc
DrawingGui.so:_ZN10DrawingGui14TaskOrthoViews11set_configsEv
DrawingGui.so:_ZN10DrawingGui14TaskOrthoViews11text_returnEv
DrawingGui.so:_ZN10DrawingGui14TaskOrthoViews11toggle_autoEi
DrawingGui.so:_ZN10DrawingGui14TaskOrthoViews12data_enteredERK7QString
DrawingGui.so:_ZN10DrawingGui14TaskOrthoViews13setup_axo_tabEv
DrawingGui.so:_ZN10DrawingGui14TaskOrthoViews15ShowContextMenuERK6QPoint
DrawingGui.so:_ZN10DrawingGui14TaskOrthoViews17projectionChangedEi
DrawingGui.so:_ZN10DrawingGui14TaskOrthoViews6hiddenEi
DrawingGui.so:_ZN10DrawingGui14TaskOrthoViews6smoothEi
DrawingGui.so:_ZN10DrawingGui14TaskOrthoViews8clean_upEv
DrawingGui.so:_ZN10DrawingGui14TaskOrthoViews9axo_scaleERK7QString
DrawingGui.so:_ZN10DrawingGui14TaskOrthoViewsC1EP7QWidget
DrawingGui.so:_ZN10DrawingGui14TaskOrthoViewsC2EP7QWidget
DrawingGui.so:_ZN10DrawingGui14TaskOrthoViewsD0Ev
DrawingGui.so:_ZN10DrawingGui14TaskOrthoViewsD1Ev
DrawingGui.so:_ZN10DrawingGui14TaskOrthoViewsD2Ev
DrawingGui.so:_ZN10DrawingGui14TaskProjection11qt_metacallEN11QMetaObject4CallEiPPv
DrawingGui.so:_ZN10DrawingGui14TaskProjection11qt_metacastEPKc
DrawingGui.so:_ZN10DrawingGui14TaskProjection6acceptEv
DrawingGui.so:_ZN10DrawingGui14TaskProjectionC1Ev
DrawingGui.so:_ZN10DrawingGui14TaskProjectionC2Ev
DrawingGui.so:_ZN10DrawingGui14TaskProjectionD0Ev
DrawingGui.so:_ZN10DrawingGui14TaskProjectionD1Ev
DrawingGui.so:_ZN10DrawingGui14TaskProjectionD2Ev
DrawingGui.so:_ZN10DrawingGui17TaskDlgOrthoViews11qt_metacallEN11QMetaObject4CallEiPPv
DrawingGui.so:_ZN10DrawingGui17TaskDlgOrthoViews11qt_metacastEPKc
DrawingGui.so:_ZN10DrawingGui17TaskDlgOrthoViews4openEv
DrawingGui.so:_ZN10DrawingGui17TaskDlgOrthoViews6acceptEv
DrawingGui.so:_ZN10DrawingGui17TaskDlgOrthoViews6rejectEv
DrawingGui.so:_ZN10DrawingGui17TaskDlgOrthoViews7clickedEi
DrawingGui.so:_ZN10DrawingGui17TaskDlgOrthoViewsC1Ev
DrawingGui.so:_ZN10DrawingGui17TaskDlgOrthoViewsC2Ev
DrawingGui.so:_ZN10DrawingGui17TaskDlgOrthoViewsD0Ev
DrawingGui.so:_ZN10DrawingGui17TaskDlgOrthoViewsD1Ev
DrawingGui.so:_ZN10DrawingGui17TaskDlgOrthoViewsD2Ev
DrawingGui.so:_ZN10DrawingGui23ViewProviderDrawingClip10updateDataEPKN3App8PropertyE
DrawingGui.so:_ZN10DrawingGui23ViewProviderDrawingClip14getClassTypeIdEv
DrawingGui.so:_ZN10DrawingGui23ViewProviderDrawingClip14setDisplayModeEPKc
DrawingGui.so:_ZN10DrawingGui23ViewProviderDrawingClip14startRestoringEv
DrawingGui.so:_ZN10DrawingGui23ViewProviderDrawingClip15finishRestoringEv
DrawingGui.so:_ZN10DrawingGui23ViewProviderDrawingClip18getPropertyDataPtrEv
DrawingGui.so:_ZN10DrawingGui23ViewProviderDrawingClip4hideEv
DrawingGui.so:_ZN10DrawingGui23ViewProviderDrawingClip4initEv
DrawingGui.so:_ZN10DrawingGui23ViewProviderDrawingClip4showEv
DrawingGui.so:_ZN10DrawingGui23ViewProviderDrawingClip6attachEPN3App14DocumentObjectE
DrawingGui.so:_ZN10DrawingGui23ViewProviderDrawingClip6createEv
DrawingGui.so:_ZN10DrawingGui23ViewProviderDrawingClipC1Ev
DrawingGui.so:_ZN10DrawingGui23ViewProviderDrawingClipC2Ev
DrawingGui.so:_ZN10DrawingGui23ViewProviderDrawingClipD0Ev
DrawingGui.so:_ZN10DrawingGui23ViewProviderDrawingClipD1Ev
DrawingGui.so:_ZN10DrawingGui23ViewProviderDrawingClipD2Ev
DrawingGui.so:_ZN10DrawingGui23ViewProviderDrawingPage10updateDataEPKN3App8PropertyE
DrawingGui.so:_ZN10DrawingGui23ViewProviderDrawingPage13doubleClickedEv
DrawingGui.so:_ZN10DrawingGui23ViewProviderDrawingPage14getClassTypeIdEv
DrawingGui.so:_ZN10DrawingGui23ViewProviderDrawingPage14setDisplayModeEPKc
DrawingGui.so:_ZN10DrawingGui23ViewProviderDrawingPage15showDrawingViewEv
DrawingGui.so:_ZN10DrawingGui23ViewProviderDrawingPage16setupContextMenuEP5QMenuP7QObjectPKc
DrawingGui.so:_ZN10DrawingGui23ViewProviderDrawingPage18getPropertyDataPtrEv
DrawingGui.so:_ZN10DrawingGui23ViewProviderDrawingPage4hideEv
DrawingGui.so:_ZN10DrawingGui23ViewProviderDrawingPage4initEv
DrawingGui.so:_ZN10DrawingGui23ViewProviderDrawingPage4showEv
DrawingGui.so:_ZN10DrawingGui23ViewProviderDrawingPage6attachEPN3App14DocumentObjectE
DrawingGui.so:_ZN10DrawingGui23ViewProviderDrawingPage6createEv
DrawingGui.so:_ZN10DrawingGui23ViewProviderDrawingPage7setEditEi
DrawingGui.so:_ZN10DrawingGui23ViewProviderDrawingPage8onDeleteERKSt6vectorINSt7__cxx1112basic_stringIcSt11char_traitsIcESaIcEEESaIS7_EE
DrawingGui.so:_ZN10DrawingGui23ViewProviderDrawingPageC1Ev
DrawingGui.so:_ZN10DrawingGui23ViewProviderDrawingPageC2Ev
DrawingGui.so:_ZN10DrawingGui23ViewProviderDrawingPageD0Ev
DrawingGui.so:_ZN10DrawingGui23ViewProviderDrawingPageD1Ev
DrawingGui.so:_ZN10DrawingGui23ViewProviderDrawingPageD2Ev
DrawingGui.so:_ZN10DrawingGui23ViewProviderDrawingView10updateDataEPKN3App8PropertyE
DrawingGui.so:_ZN10DrawingGui23ViewProviderDrawingView14getClassTypeIdEv
DrawingGui.so:_ZN10DrawingGui23ViewProviderDrawingView14setDisplayModeEPKc
DrawingGui.so:_ZN10DrawingGui23ViewProviderDrawingView14startRestoringEv
DrawingGui.so:_ZN10DrawingGui23ViewProviderDrawingView15finishRestoringEv
DrawingGui.so:_ZN10DrawingGui23ViewProviderDrawingView18getPropertyDataPtrEv
DrawingGui.so:_ZN10DrawingGui23ViewProviderDrawingView4hideEv
DrawingGui.so:_ZN10DrawingGui23ViewProviderDrawingView4initEv
DrawingGui.so:_ZN10DrawingGui23ViewProviderDrawingView4showEv
DrawingGui.so:_ZN10DrawingGui23ViewProviderDrawingView6attachEPN3App14DocumentObjectE
DrawingGui.so:_ZN10DrawingGui23ViewProviderDrawingView6createEv
DrawingGui.so:_ZN10DrawingGui23ViewProviderDrawingViewC1Ev
DrawingGui.so:_ZN10DrawingGui23ViewProviderDrawingViewC2Ev
DrawingGui.so:_ZN10DrawingGui23ViewProviderDrawingViewD0Ev
DrawingGui.so:_ZN10DrawingGui23ViewProviderDrawingViewD1Ev
DrawingGui.so:_ZN10DrawingGui23ViewProviderDrawingViewD2Ev
DrawingGui.so:_ZN10DrawingGui7SvgView10paintEventEP11QPaintEvent
DrawingGui.so:_ZN10DrawingGui7SvgView10wheelEventEP11QWheelEvent
DrawingGui.so:_ZN10DrawingGui7SvgView11qt_metacallEN11QMetaObject4CallEiPPv
DrawingGui.so:_ZN10DrawingGui7SvgView11qt_metacastEPKc
DrawingGui.so:_ZN10DrawingGui7SvgView11setRendererENS0_12RendererTypeE
DrawingGui.so:_ZN10DrawingGui7SvgView14drawBackgroundEP8QPainterRK6QRectF
DrawingGui.so:_ZN10DrawingGui7SvgView14setViewOutlineEb
DrawingGui.so:_ZN10DrawingGui7SvgView17setViewBackgroundEb
DrawingGui.so:_ZN10DrawingGui7SvgView26setHighQualityAntialiasingEb
DrawingGui.so:_ZN10DrawingGui7SvgView8openFileERK5QFile
DrawingGui.so:_ZN10DrawingGui7SvgViewC1EP7QWidget
DrawingGui.so:_ZN10DrawingGui7SvgViewC2EP7QWidget
DrawingGui.so:_ZN10DrawingGui9Workbench14getClassTypeIdEv
DrawingGui.so:_ZN10DrawingGui9Workbench4initEv
DrawingGui.so:_ZN10DrawingGui9Workbench6createEv
DrawingGui.so:_ZN10DrawingGui9WorkbenchC1Ev
DrawingGui.so:_ZN10DrawingGui9WorkbenchC2Ev
DrawingGui.so:_ZN10DrawingGui9WorkbenchD0Ev
DrawingGui.so:_ZN10DrawingGui9WorkbenchD1Ev
DrawingGui.so:_ZN10DrawingGui9WorkbenchD2Ev
DrawingGui.so:_ZN10DrawingGui9orthoview10calcCentreEv
DrawingGui.so:_ZN10DrawingGui9orthoview14set_projectionE6gp_Ax2
DrawingGui.so:_ZN10DrawingGui9orthoview6hiddenEb
DrawingGui.so:_ZN10DrawingGui9orthoview6setPosEff
DrawingGui.so:_ZN10DrawingGui9orthoview6smoothEb
DrawingGui.so:_ZN10DrawingGui9orthoview8deletemeEv
DrawingGui.so:_ZN10DrawingGui9orthoview8getScaleEv
DrawingGui.so:_ZN10DrawingGui9orthoview8setScaleEf
DrawingGui.so:_ZN10DrawingGui9orthoview8set_dataEii
DrawingGui.so:_ZN10DrawingGui9orthoviewC1EPN3App8DocumentEPNS1_14DocumentObjectES5_PN4Base9BoundBox3IdEE
DrawingGui.so:_ZN10DrawingGui9orthoviewC2EPN3App8DocumentEPNS1_14DocumentObjectES5_PN4Base9BoundBox3IdEE
DrawingGui.so:_ZN10DrawingGui9orthoviewD1Ev
DrawingGui.so:_ZN10DrawingGui9orthoviewD2Ev
DrawingGui.so:_ZN14CmdDrawingClip8isActiveEv
DrawingGui.so:_ZN14CmdDrawingClip9activatedEi
DrawingGui.so:_ZN14CmdDrawingClipC1Ev
DrawingGui.so:_ZN14CmdDrawingClipC2Ev
DrawingGui.so:_ZN14CmdDrawingOpen9activatedEi
DrawingGui.so:_ZN14CmdDrawingOpenC1Ev
DrawingGui.so:_ZN14CmdDrawingOpenC2Ev
DrawingGui.so:_ZN16CmdDrawingSymbol8isActiveEv
DrawingGui.so:_ZN16CmdDrawingSymbol9activatedEi
DrawingGui.so:_ZN16CmdDrawingSymbolC1Ev
DrawingGui.so:_ZN16CmdDrawingSymbolC2Ev
DrawingGui.so:_ZN17CmdDrawingNewPage12createActionEv
DrawingGui.so:_ZN17CmdDrawingNewPage14languageChangeEv
DrawingGui.so:_ZN17CmdDrawingNewPage8isActiveEv
DrawingGui.so:_ZN17CmdDrawingNewPage9activatedEi
DrawingGui.so:_ZN17CmdDrawingNewPageC1Ev
DrawingGui.so:_ZN17CmdDrawingNewPageC2Ev
DrawingGui.so:_ZN17CmdDrawingNewView9activatedEi
DrawingGui.so:_ZN17CmdDrawingNewViewC1Ev
DrawingGui.so:_ZN17CmdDrawingNewViewC2Ev
DrawingGui.so:_ZN19CmdDrawingDraftView8isActiveEv
DrawingGui.so:_ZN19CmdDrawingDraftView9activatedEi
DrawingGui.so:_ZN19CmdDrawingDraftViewC1Ev
DrawingGui.so:_ZN19CmdDrawingDraftViewC2Ev
DrawingGui.so:_ZN20CmdDrawingAnnotation8isActiveEv
DrawingGui.so:_ZN20CmdDrawingAnnotation9activatedEi
DrawingGui.so:_ZN20CmdDrawingAnnotationC1Ev
DrawingGui.so:_ZN20CmdDrawingAnnotationC2Ev
DrawingGui.so:_ZN20CmdDrawingExportPage8isActiveEv
DrawingGui.so:_ZN20CmdDrawingExportPage9activatedEi
DrawingGui.so:_ZN20CmdDrawingExportPageC1Ev
DrawingGui.so:_ZN20CmdDrawingExportPageC2Ev
DrawingGui.so:_ZN20CmdDrawingOrthoViews8isActiveEv
DrawingGui.so:_ZN20CmdDrawingOrthoViews9activatedEi
DrawingGui.so:_ZN20CmdDrawingOrthoViewsC1Ev
DrawingGui.so:_ZN20CmdDrawingOrthoViewsC2Ev
DrawingGui.so:_ZN22CmdDrawingProjectShape8isActiveEv
DrawingGui.so:_ZN22CmdDrawingProjectShape9activatedEi
DrawingGui.so:_ZN22CmdDrawingProjectShapeC1Ev
DrawingGui.so:_ZN22CmdDrawingProjectShapeC2Ev
DrawingGui.so:_ZN24CmdDrawingNewA3Landscape8isActiveEv
DrawingGui.so:_ZN24CmdDrawingNewA3Landscape9activatedEi
DrawingGui.so:_ZN24CmdDrawingNewA3LandscapeC1Ev
DrawingGui.so:_ZN24CmdDrawingNewA3LandscapeC2Ev
DrawingGui.so:_ZN25CmdDrawingOpenBrowserView8isActiveEv
DrawingGui.so:_ZN25CmdDrawingOpenBrowserView9activatedEi
DrawingGui.so:_ZN25CmdDrawingOpenBrowserViewC1Ev
DrawingGui.so:_ZN25CmdDrawingOpenBrowserViewC2Ev
DrawingGui.so:_ZN25CmdDrawingSpreadsheetView8isActiveEv
DrawingGui.so:_ZN25CmdDrawingSpreadsheetView9activatedEi
DrawingGui.so:_ZN25CmdDrawingSpreadsheetViewC1Ev
DrawingGui.so:_ZN25CmdDrawingSpreadsheetViewC2Ev
DrawingGui.so:_ZN3Gui26ViewProviderPythonFeatureTIN10DrawingGui23ViewProviderDrawingViewEE14getClassTypeIdEv
DrawingGui.so:_ZN3Gui26ViewProviderPythonFeatureTIN10DrawingGui23ViewProviderDrawingViewEE18getPropertyDataPtrEv
DrawingGui.so:_ZN3Gui26ViewProviderPythonFeatureTIN10DrawingGui23ViewProviderDrawingViewEE4initEv
DrawingGui.so:_ZN3Gui26ViewProviderPythonFeatureTIN10DrawingGui23ViewProviderDrawingViewEE6createEv
DrawingGui.so:_ZNK10DrawingGui11DrawingView10metaObjectEv
DrawingGui.so:_ZNK10DrawingGui11DrawingView11getPageSizeEii
DrawingGui.so:_ZNK10DrawingGui11DrawingView8onHasMsgEPKc
DrawingGui.so:_ZNK10DrawingGui14TaskOrthoViews10metaObjectEv
DrawingGui.so:_ZNK10DrawingGui14TaskProjection10metaObjectEv
DrawingGui.so:_ZNK10DrawingGui17TaskDlgOrthoViews10metaObjectEv
DrawingGui.so:_ZNK10DrawingGui23ViewProviderDrawingClip15getDisplayModesB5cxx11Ev
DrawingGui.so:_ZNK10DrawingGui23ViewProviderDrawingClip15getPropertyDataEv
DrawingGui.so:_ZNK10DrawingGui23ViewProviderDrawingClip6isShowEv
DrawingGui.so:_ZNK10DrawingGui23ViewProviderDrawingClip9getTypeIdEv
DrawingGui.so:_ZNK10DrawingGui23ViewProviderDrawingPage13getPageObjectEv
DrawingGui.so:_ZNK10DrawingGui23ViewProviderDrawingPage15getDisplayModesB5cxx11Ev
DrawingGui.so:_ZNK10DrawingGui23ViewProviderDrawingPage15getPropertyDataEv
DrawingGui.so:_ZNK10DrawingGui23ViewProviderDrawingPage9getTypeIdEv
DrawingGui.so:_ZNK10DrawingGui23ViewProviderDrawingView15getDisplayModesB5cxx11Ev
DrawingGui.so:_ZNK10DrawingGui23ViewProviderDrawingView15getPropertyDataEv
DrawingGui.so:_ZNK10DrawingGui23ViewProviderDrawingView6isShowEv
DrawingGui.so:_ZNK10DrawingGui23ViewProviderDrawingView9getTypeIdEv
DrawingGui.so:_ZNK10DrawingGui7SvgView10metaObjectEv
DrawingGui.so:_ZNK10DrawingGui9Workbench12setupMenuBarEv
DrawingGui.so:_ZNK10DrawingGui9Workbench13setupToolBarsEv
DrawingGui.so:_ZNK10DrawingGui9Workbench16setupCommandBarsEv
DrawingGui.so:_ZNK10DrawingGui9Workbench9getTypeIdEv
DrawingGui.so:_ZNK3Gui26ViewProviderPythonFeatureTIN10DrawingGui23ViewProviderDrawingViewEE15getPropertyDataEv
DrawingGui.so:_ZNK3Gui26ViewProviderPythonFeatureTIN10DrawingGui23ViewProviderDrawingViewEE9getTypeIdEv
DrawingGui.so:_ZThn16_N10DrawingGui11DrawingViewD0Ev
DrawingGui.so:_ZThn16_N10DrawingGui11DrawingViewD1Ev
DrawingGui.so:_ZThn16_N10DrawingGui14TaskOrthoViewsD0Ev
DrawingGui.so:_ZThn16_N10DrawingGui14TaskOrthoViewsD1Ev
DrawingGui.so:_ZThn480_N10DrawingGui23ViewProviderDrawingClipD0Ev
DrawingGui.so:_ZThn480_N10DrawingGui23ViewProviderDrawingClipD1Ev
DrawingGui.so:_ZThn480_N10DrawingGui23ViewProviderDrawingPageD0Ev
DrawingGui.so:_ZThn480_N10DrawingGui23ViewProviderDrawingPageD1Ev
DrawingGui.so:_ZThn48_N10DrawingGui11DrawingView11getPyObjectEv
DrawingGui.so:_ZThn48_N10DrawingGui11DrawingView5onMsgEPKcPS2_
DrawingGui.so:_ZThn48_N10DrawingGui11DrawingView9onRelabelEPN3Gui8DocumentE
DrawingGui.so:_ZThn48_N10DrawingGui11DrawingViewD0Ev
DrawingGui.so:_ZThn48_N10DrawingGui11DrawingViewD1Ev
DrawingGui.so:_ZThn48_NK10DrawingGui11DrawingView8onHasMsgEPKc
DrawingGui.so:round
Fem.so:PyInit_Fem
Fem.so:_ZN3App14FeaturePythonTIN3Fem10ConstraintEE11getPyObjectEv
Fem.so:_ZN3App14FeaturePythonTIN3Fem10ConstraintEE14getClassTypeIdEv
Fem.so:_ZN3App14FeaturePythonTIN3Fem10ConstraintEE18getPropertyDataPtrEv
Fem.so:_ZN3App14FeaturePythonTIN3Fem10ConstraintEE4initEv
Fem.so:_ZN3App14FeaturePythonTIN3Fem10ConstraintEE6createEv
Fem.so:_ZN3App14FeaturePythonTIN3Fem11FemAnalysisEE14getClassTypeIdEv
Fem.so:_ZN3App14FeaturePythonTIN3Fem11FemAnalysisEE18getPropertyDataPtrEv
Fem.so:_ZN3App14FeaturePythonTIN3Fem11FemAnalysisEE4initEv
Fem.so:_ZN3App14FeaturePythonTIN3Fem11FemAnalysisEE6createEv
Fem.so:_ZN3App14FeaturePythonTIN3Fem11FemAnalysisEE7RestoreERN4Base9XMLReaderE
Fem.so:_ZN3App14FeaturePythonTIN3Fem13FemMeshObjectEE11getPyObjectEv
Fem.so:_ZN3App14FeaturePythonTIN3Fem13FemMeshObjectEE14getClassTypeIdEv
Fem.so:_ZN3App14FeaturePythonTIN3Fem13FemMeshObjectEE18getPropertyDataPtrEv
Fem.so:_ZN3App14FeaturePythonTIN3Fem13FemMeshObjectEE4initEv
Fem.so:_ZN3App14FeaturePythonTIN3Fem13FemMeshObjectEE6createEv
Fem.so:_ZN3App14FeaturePythonTIN3Fem14DocumentObjectEE11getPyObjectEv
Fem.so:_ZN3App14FeaturePythonTIN3Fem14DocumentObjectEE14getClassTypeIdEv
Fem.so:_ZN3App14FeaturePythonTIN3Fem14DocumentObjectEE18getPropertyDataPtrEv
Fem.so:_ZN3App14FeaturePythonTIN3Fem14DocumentObjectEE4initEv
Fem.so:_ZN3App14FeaturePythonTIN3Fem14DocumentObjectEE6createEv
Fem.so:_ZN3App14FeaturePythonTIN3Fem15FemResultObjectEE11getPyObjectEv
Fem.so:_ZN3App14FeaturePythonTIN3Fem15FemResultObjectEE14getClassTypeIdEv
Fem.so:_ZN3App14FeaturePythonTIN3Fem15FemResultObjectEE18getPropertyDataPtrEv
Fem.so:_ZN3App14FeaturePythonTIN3Fem15FemResultObjectEE4initEv
Fem.so:_ZN3App14FeaturePythonTIN3Fem15FemResultObjectEE6createEv
Fem.so:_ZN3App14FeaturePythonTIN3Fem15FemSolverObjectEE11getPyObjectEv
Fem.so:_ZN3App14FeaturePythonTIN3Fem15FemSolverObjectEE14getClassTypeIdEv
Fem.so:_ZN3App14FeaturePythonTIN3Fem15FemSolverObjectEE18getPropertyDataPtrEv
Fem.so:_ZN3App14FeaturePythonTIN3Fem15FemSolverObjectEE4initEv
Fem.so:_ZN3App14FeaturePythonTIN3Fem15FemSolverObjectEE6createEv
Fem.so:_ZN3Fem10Constraint12getBasePointERKN4Base7Vector3IdEES5_RKN3App15PropertyLinkSubERKd
Fem.so:_ZN3Fem10Constraint12getDirectionERKN3App15PropertyLinkSubE
Fem.so:_ZN3Fem10Constraint14getClassTypeIdEv
Fem.so:_ZN3Fem10Constraint18getPropertyDataPtrEv
Fem.so:_ZN3Fem10Constraint18onDocumentRestoredEv
Fem.so:_ZN3Fem10Constraint4initEv
Fem.so:_ZN3Fem10Constraint6createEv
Fem.so:_ZN3Fem10Constraint7executeEv
Fem.so:_ZN3Fem10Constraint9onChangedEPKN3App8PropertyE
Fem.so:_ZN3Fem10ConstraintC1Ev
Fem.so:_ZN3Fem10ConstraintC2Ev
Fem.so:_ZN3Fem10ConstraintD0Ev
Fem.so:_ZN3Fem10ConstraintD1Ev
Fem.so:_ZN3Fem10ConstraintD2Ev
Fem.so:_ZN3Fem10initModuleEv
Fem.so:_ZN3Fem11FemAnalysis11getPyObjectEv
Fem.so:_ZN3Fem11FemAnalysis14getClassTypeIdEv
Fem.so:_ZN3Fem11FemAnalysis18getPropertyDataPtrEv
Fem.so:_ZN3Fem11FemAnalysis25handleChangedPropertyNameERN4Base9XMLReaderEPKcS5_
Fem.so:_ZN3Fem11FemAnalysis4initEv
Fem.so:_ZN3Fem11FemAnalysis6createEv
Fem.so:_ZN3Fem11FemAnalysis9onChangedEPKN3App8PropertyE
Fem.so:_ZN3Fem11FemAnalysisC1Ev
Fem.so:_ZN3Fem11FemAnalysisC2Ev
Fem.so:_ZN3Fem11FemAnalysisD0Ev
Fem.so:_ZN3Fem11FemAnalysisD1Ev
Fem.so:_ZN3Fem11FemAnalysisD2Ev
Fem.so:_ZN3Fem11FemVTKTools10readResultEPKcPN3App14DocumentObjectE
Fem.so:_ZN3Fem11FemVTKTools11readVTKMeshEPKcPNS_7FemMeshE
Fem.so:_ZN3Fem11FemVTKTools11writeResultEPKcPKN3App14DocumentObjectE
Fem.so:_ZN3Fem11FemVTKTools12writeVTKMeshEPKcPKNS_7FemMeshE
Fem.so:_ZN3Fem11FemVTKTools13exportVTKMeshEPKNS_7FemMeshE15vtkSmartPointerI19vtkUnstructuredGridEf
Fem.so:_ZN3Fem11FemVTKTools13importVTKMeshE15vtkSmartPointerI10vtkDataSetEPNS_7FemMeshEf
Fem.so:_ZN3Fem11FemVTKTools19exportFreeCADResultEPKN3App14DocumentObjectE15vtkSmartPointerI10vtkDataSetE
Fem.so:_ZN3Fem11FemVTKTools19importFreeCADResultE15vtkSmartPointerI10vtkDataSetEPN3App14DocumentObjectE
Fem.so:_ZN3Fem12FemSetObject11getPyObjectEv
Fem.so:_ZN3Fem12FemSetObject14getClassTypeIdEv
Fem.so:_ZN3Fem12FemSetObject18getPropertyDataPtrEv
Fem.so:_ZN3Fem12FemSetObject4initEv
Fem.so:_ZN3Fem12FemSetObject6createEv
Fem.so:_ZN3Fem12FemSetObjectC1Ev
Fem.so:_ZN3Fem12FemSetObjectC2Ev
Fem.so:_ZN3Fem12FemSetObjectD0Ev
Fem.so:_ZN3Fem12FemSetObjectD1Ev
Fem.so:_ZN3Fem12FemSetObjectD2Ev
Fem.so:_ZN3Fem12HypothesisPyC1EN5boost10shared_ptrI16SMESH_HypothesisEE
Fem.so:_ZN3Fem12HypothesisPyC2EN5boost10shared_ptrI16SMESH_HypothesisEE
Fem.so:_ZN3Fem12HypothesisPyD0Ev
Fem.so:_ZN3Fem12HypothesisPyD1Ev
Fem.so:_ZN3Fem12HypothesisPyD2Ev
Fem.so:_ZN3Fem13FemMeshObject11getPyObjectEv
Fem.so:_ZN3Fem13FemMeshObject14getClassTypeIdEv
Fem.so:_ZN3Fem13FemMeshObject18getPropertyDataPtrEv
Fem.so:_ZN3Fem13FemMeshObject4initEv
Fem.so:_ZN3Fem13FemMeshObject6createEv
Fem.so:_ZN3Fem13FemMeshObject9onChangedEPKN3App8PropertyE
Fem.so:_ZN3Fem13FemMeshObjectC1Ev
Fem.so:_ZN3Fem13FemMeshObjectC2Ev
Fem.so:_ZN3Fem13FemMeshObjectD0Ev
Fem.so:_ZN3Fem13FemMeshObjectD1Ev
Fem.so:_ZN3Fem13FemMeshObjectD2Ev
Fem.so:_ZN3Fem13FemPostFilter12getInputDataEv
Fem.so:_ZN3Fem13FemPostFilter14getClassTypeIdEv
Fem.so:_ZN3Fem13FemPostFilter17addFilterPipelineERKNS0_14FilterPipelineENSt7__cxx1112basic_stringIcSt11char_traitsIcESaIcEEE
Fem.so:_ZN3Fem13FemPostFilter17getFilterPipelineENSt7__cxx1112basic_stringIcSt11char_traitsIcESaIcEEE
Fem.so:_ZN3Fem13FemPostFilter18getPropertyDataPtrEv
Fem.so:_ZN3Fem13FemPostFilter23setActiveFilterPipelineENSt7__cxx1112basic_stringIcSt11char_traitsIcESaIcEEE
Fem.so:_ZN3Fem13FemPostFilter4initEv
Fem.so:_ZN3Fem13FemPostFilter6createEv
Fem.so:_ZN3Fem13FemPostFilter7executeEv
Fem.so:_ZN3Fem13FemPostFilterC1Ev
Fem.so:_ZN3Fem13FemPostFilterC2Ev
Fem.so:_ZN3Fem13FemPostFilterD0Ev
Fem.so:_ZN3Fem13FemPostFilterD1Ev
Fem.so:_ZN3Fem13FemPostFilterD2Ev
Fem.so:_ZN3Fem13FemPostObject14getBoundingBoxEv
Fem.so:_ZN3Fem13FemPostObject14getClassTypeIdEv
Fem.so:_ZN3Fem13FemPostObject18getPropertyDataPtrEv
Fem.so:_ZN3Fem13FemPostObject4initEv
Fem.so:_ZN3Fem13FemPostObject6createEv
Fem.so:_ZN3Fem13FemPostObjectC1Ev
Fem.so:_ZN3Fem13FemPostObjectC2Ev
Fem.so:_ZN3Fem13FemPostObjectD0Ev
Fem.so:_ZN3Fem13FemPostObjectD1Ev
Fem.so:_ZN3Fem13FemPostObjectD2Ev
Fem.so:_ZN3Fem14ConstraintGear14getClassTypeIdEv
Fem.so:_ZN3Fem14ConstraintGear18getPropertyDataPtrEv
Fem.so:_ZN3Fem14ConstraintGear4initEv
Fem.so:_ZN3Fem14ConstraintGear6createEv
Fem.so:_ZN3Fem14ConstraintGear7executeEv
Fem.so:_ZN3Fem14ConstraintGear9onChangedEPKN3App8PropertyE
Fem.so:_ZN3Fem14ConstraintGearC1Ev
Fem.so:_ZN3Fem14ConstraintGearC2Ev
Fem.so:_ZN3Fem14DocumentObject14getClassTypeIdEv
Fem.so:_ZN3Fem14DocumentObject18getPropertyDataPtrEv
Fem.so:_ZN3Fem14DocumentObject4initEv
Fem.so:_ZN3Fem14DocumentObject6createEv
Fem.so:_ZN3Fem15ConstraintFixed14getClassTypeIdEv
Fem.so:_ZN3Fem15ConstraintFixed18getPropertyDataPtrEv
Fem.so:_ZN3Fem15ConstraintFixed4initEv
Fem.so:_ZN3Fem15ConstraintFixed6createEv
Fem.so:_ZN3Fem15ConstraintFixed7executeEv
Fem.so:_ZN3Fem15ConstraintFixed9onChangedEPKN3App8PropertyE
Fem.so:_ZN3Fem15ConstraintFixedC1Ev
Fem.so:_ZN3Fem15ConstraintFixedC2Ev
Fem.so:_ZN3Fem15ConstraintForce14getClassTypeIdEv
Fem.so:_ZN3Fem15ConstraintForce18getPropertyDataPtrEv
Fem.so:_ZN3Fem15ConstraintForce4initEv
Fem.so:_ZN3Fem15ConstraintForce6createEv
Fem.so:_ZN3Fem15ConstraintForce7executeEv
Fem.so:_ZN3Fem15ConstraintForce9onChangedEPKN3App8PropertyE
Fem.so:_ZN3Fem15ConstraintForceC1Ev
Fem.so:_ZN3Fem15ConstraintForceC2Ev
Fem.so:_ZN3Fem15FemPostFunction14getClassTypeIdEv
Fem.so:_ZN3Fem15FemPostFunction18getPropertyDataPtrEv
Fem.so:_ZN3Fem15FemPostFunction4initEv
Fem.so:_ZN3Fem15FemPostFunction6createEv
Fem.so:_ZN3Fem15FemPostFunction7executeEv
Fem.so:_ZN3Fem15FemPostFunctionC1Ev
Fem.so:_ZN3Fem15FemPostFunctionC2Ev
Fem.so:_ZN3Fem15FemPostFunctionD0Ev
Fem.so:_ZN3Fem15FemPostFunctionD1Ev
Fem.so:_ZN3Fem15FemPostFunctionD2Ev
Fem.so:_ZN3Fem15FemPostPipeline11getPyObjectEv
Fem.so:_ZN3Fem15FemPostPipeline14getClassTypeIdEv
Fem.so:_ZN3Fem15FemPostPipeline15holdsPostObjectEPNS_13FemPostObjectE
Fem.so:_ZN3Fem15FemPostPipeline17getLastPostObjectEv
Fem.so:_ZN3Fem15FemPostPipeline18getPropertyDataPtrEv
Fem.so:_ZN3Fem15FemPostPipeline4initEv
Fem.so:_ZN3Fem15FemPostPipeline4loadEPNS_15FemResultObjectE
Fem.so:_ZN3Fem15FemPostPipeline4readEN4Base8FileInfoE
Fem.so:_ZN3Fem15FemPostPipeline6createEv
Fem.so:_ZN3Fem15FemPostPipeline7canReadEN4Base8FileInfoE
Fem.so:_ZN3Fem15FemPostPipeline7executeEv
Fem.so:_ZN3Fem15FemPostPipeline9onChangedEPKN3App8PropertyE
Fem.so:_ZN3Fem15FemPostPipelineC1Ev
Fem.so:_ZN3Fem15FemPostPipelineC2Ev
Fem.so:_ZN3Fem15FemPostPipelineD0Ev
Fem.so:_ZN3Fem15FemPostPipelineD1Ev
Fem.so:_ZN3Fem15FemPostPipelineD2Ev
Fem.so:_ZN3Fem15FemResultObject11getPyObjectEv
Fem.so:_ZN3Fem15FemResultObject14getClassTypeIdEv
Fem.so:_ZN3Fem15FemResultObject18getPropertyDataPtrEv
Fem.so:_ZN3Fem15FemResultObject4initEv
Fem.so:_ZN3Fem15FemResultObject6createEv
Fem.so:_ZN3Fem15FemResultObjectC1Ev
Fem.so:_ZN3Fem15FemResultObjectC2Ev
Fem.so:_ZN3Fem15FemResultObjectD0Ev
Fem.so:_ZN3Fem15FemResultObjectD1Ev
Fem.so:_ZN3Fem15FemResultObjectD2Ev
Fem.so:_ZN3Fem15FemSolverObject11getPyObjectEv
Fem.so:_ZN3Fem15FemSolverObject14getClassTypeIdEv
Fem.so:_ZN3Fem15FemSolverObject18getPropertyDataPtrEv
Fem.so:_ZN3Fem15FemSolverObject4initEv
Fem.so:_ZN3Fem15FemSolverObject6createEv
Fem.so:_ZN3Fem15FemSolverObjectC1Ev
Fem.so:_ZN3Fem15FemSolverObjectC2Ev
Fem.so:_ZN3Fem15FemSolverObjectD0Ev
Fem.so:_ZN3Fem15FemSolverObjectD1Ev
Fem.so:_ZN3Fem15FemSolverObjectD2Ev
Fem.so:_ZN3Fem15PropertyFemMesh11getPyObjectEv
Fem.so:_ZN3Fem15PropertyFemMesh11setPyObjectEP7_object
Fem.so:_ZN3Fem15PropertyFemMesh11setValuePtrEPNS_7FemMeshE
Fem.so:_ZN3Fem15PropertyFemMesh14RestoreDocFileERN4Base6ReaderE
Fem.so:_ZN3Fem15PropertyFemMesh14getClassTypeIdEv
Fem.so:_ZN3Fem15PropertyFemMesh17transformGeometryERKN4Base8Matrix4DE
Fem.so:_ZN3Fem15PropertyFemMesh4initEv
Fem.so:_ZN3Fem15PropertyFemMesh5PasteERKN3App8PropertyE
Fem.so:_ZN3Fem15PropertyFemMesh6createEv
Fem.so:_ZN3Fem15PropertyFemMesh7RestoreERN4Base9XMLReaderE
Fem.so:_ZN3Fem15PropertyFemMesh8setValueERKNS_7FemMeshE
Fem.so:_ZN3Fem15PropertyFemMeshC1Ev
Fem.so:_ZN3Fem15PropertyFemMeshC2Ev
Fem.so:_ZN3Fem15PropertyFemMeshD0Ev
Fem.so:_ZN3Fem15PropertyFemMeshD1Ev
Fem.so:_ZN3Fem15PropertyFemMeshD2Ev
Fem.so:_ZN3Fem15getObjectByTypeEN4Base4TypeE
Fem.so:_ZN3Fem16ConstraintPulley14getClassTypeIdEv
Fem.so:_ZN3Fem16ConstraintPulley18getPropertyDataPtrEv
Fem.so:_ZN3Fem16ConstraintPulley4initEv
Fem.so:_ZN3Fem16ConstraintPulley6createEv
Fem.so:_ZN3Fem16ConstraintPulley7executeEv
Fem.so:_ZN3Fem16ConstraintPulley9onChangedEPKN3App8PropertyE
Fem.so:_ZN3Fem16ConstraintPulleyC1Ev
Fem.so:_ZN3Fem16ConstraintPulleyC2Ev
Fem.so:_ZN3Fem16FemPostCutFilter14getClassTypeIdEv
Fem.so:_ZN3Fem16FemPostCutFilter18getPropertyDataPtrEv
Fem.so:_ZN3Fem16FemPostCutFilter4initEv
Fem.so:_ZN3Fem16FemPostCutFilter6createEv
Fem.so:_ZN3Fem16FemPostCutFilter7executeEv
Fem.so:_ZN3Fem16FemPostCutFilter9onChangedEPKN3App8PropertyE
Fem.so:_ZN3Fem16FemPostCutFilterC1Ev
Fem.so:_ZN3Fem16FemPostCutFilterC2Ev
Fem.so:_ZN3Fem16FemPostCutFilterD0Ev
Fem.so:_ZN3Fem16FemPostCutFilterD1Ev
Fem.so:_ZN3Fem16FemPostCutFilterD2Ev
Fem.so:_ZN3Fem17ConstraintBearing14getClassTypeIdEv
Fem.so:_ZN3Fem17ConstraintBearing18getPropertyDataPtrEv
Fem.so:_ZN3Fem17ConstraintBearing4initEv
Fem.so:_ZN3Fem17ConstraintBearing6createEv
Fem.so:_ZN3Fem17ConstraintBearing7executeEv
Fem.so:_ZN3Fem17ConstraintBearing9onChangedEPKN3App8PropertyE
Fem.so:_ZN3Fem17ConstraintBearingC1Ev
Fem.so:_ZN3Fem17ConstraintBearingC2Ev
Fem.so:_ZN3Fem17ConstraintContact14getClassTypeIdEv
Fem.so:_ZN3Fem17ConstraintContact18getPropertyDataPtrEv
Fem.so:_ZN3Fem17ConstraintContact4initEv
Fem.so:_ZN3Fem17ConstraintContact6createEv
Fem.so:_ZN3Fem17ConstraintContact7executeEv
Fem.so:_ZN3Fem17ConstraintContact9onChangedEPKN3App8PropertyE
Fem.so:_ZN3Fem17ConstraintContactC1Ev
Fem.so:_ZN3Fem17ConstraintContactC2Ev
Fem.so:_ZN3Fem17FemPostClipFilter14getClassTypeIdEv
Fem.so:_ZN3Fem17FemPostClipFilter18getPropertyDataPtrEv
Fem.so:_ZN3Fem17FemPostClipFilter4initEv
Fem.so:_ZN3Fem17FemPostClipFilter6createEv
Fem.so:_ZN3Fem17FemPostClipFilter7executeEv
Fem.so:_ZN3Fem17FemPostClipFilter9onChangedEPKN3App8PropertyE
Fem.so:_ZN3Fem17FemPostClipFilterC1Ev
Fem.so:_ZN3Fem17FemPostClipFilterC2Ev
Fem.so:_ZN3Fem17FemPostClipFilterD0Ev
Fem.so:_ZN3Fem17FemPostClipFilterD1Ev
Fem.so:_ZN3Fem17FemPostClipFilterD2Ev
Fem.so:_ZN3Fem17FemPostPipelinePy15holdsPostObjectEP7_object
Fem.so:_ZN3Fem17FemPostPipelinePy17getLastPostObjectEP7_object
Fem.so:_ZN3Fem17FemPostPipelinePy19setCustomAttributesEPKcP7_object
Fem.so:_ZN3Fem17FemPostPipelinePy19staticCallback_loadEP7_objectS2_
Fem.so:_ZN3Fem17FemPostPipelinePy19staticCallback_readEP7_objectS2_
Fem.so:_ZN3Fem17FemPostPipelinePy30staticCallback_holdsPostObjectEP7_objectS2_
Fem.so:_ZN3Fem17FemPostPipelinePy32staticCallback_getLastPostObjectEP7_objectS2_
Fem.so:_ZN3Fem17FemPostPipelinePy4loadEP7_object
Fem.so:_ZN3Fem17FemPostPipelinePy4readEP7_object
Fem.so:_ZN3Fem17FemPostPipelinePy5_reprEv
Fem.so:_ZN3Fem17FemPostPipelinePy6PyInitEP7_objectS2_
Fem.so:_ZN3Fem17FemPostPipelinePy6PyMakeEP11_typeobjectP7_objectS4_
Fem.so:_ZN3Fem17FemPostPipelinePy8_getattrEPKc
Fem.so:_ZN3Fem17FemPostPipelinePy8_setattrEPKcP7_object
Fem.so:_ZN3Fem17FemPostPipelinePyC1EPNS_15FemPostPipelineEP11_typeobject
Fem.so:_ZN3Fem17FemPostPipelinePyC2EPNS_15FemPostPipelineEP11_typeobject
Fem.so:_ZN3Fem17FemPostPipelinePyD0Ev
Fem.so:_ZN3Fem17FemPostPipelinePyD1Ev
Fem.so:_ZN3Fem17FemPostPipelinePyD2Ev
Fem.so:_ZN3Fem17FemSetFacesObject11getPyObjectEv
Fem.so:_ZN3Fem17FemSetFacesObject14getClassTypeIdEv
Fem.so:_ZN3Fem17FemSetFacesObject18getPropertyDataPtrEv
Fem.so:_ZN3Fem17FemSetFacesObject4initEv
Fem.so:_ZN3Fem17FemSetFacesObject6createEv
Fem.so:_ZN3Fem17FemSetFacesObjectC1Ev
Fem.so:_ZN3Fem17FemSetFacesObjectC2Ev
Fem.so:_ZN3Fem17FemSetFacesObjectD0Ev
Fem.so:_ZN3Fem17FemSetFacesObjectD1Ev
Fem.so:_ZN3Fem17FemSetFacesObjectD2Ev
Fem.so:_ZN3Fem17FemSetNodesObject11getPyObjectEv
Fem.so:_ZN3Fem17FemSetNodesObject14getClassTypeIdEv
Fem.so:_ZN3Fem17FemSetNodesObject18getPropertyDataPtrEv
Fem.so:_ZN3Fem17FemSetNodesObject4initEv
Fem.so:_ZN3Fem17FemSetNodesObject6createEv
Fem.so:_ZN3Fem17FemSetNodesObjectC1Ev
Fem.so:_ZN3Fem17FemSetNodesObjectC2Ev
Fem.so:_ZN3Fem17FemSetNodesObjectD0Ev
Fem.so:_ZN3Fem17FemSetNodesObjectD1Ev
Fem.so:_ZN3Fem17FemSetNodesObjectD2Ev
Fem.so:_ZN3Fem18ConstraintHeatflux14getClassTypeIdEv
Fem.so:_ZN3Fem18ConstraintHeatflux18getPropertyDataPtrEv
Fem.so:_ZN3Fem18ConstraintHeatflux4initEv
Fem.so:_ZN3Fem18ConstraintHeatflux6createEv
Fem.so:_ZN3Fem18ConstraintHeatflux7executeEv
Fem.so:_ZN3Fem18ConstraintHeatflux9onChangedEPKN3App8PropertyE
Fem.so:_ZN3Fem18ConstraintHeatfluxC1Ev
Fem.so:_ZN3Fem18ConstraintHeatfluxC2Ev
Fem.so:_ZN3Fem18ConstraintPressure14getClassTypeIdEv
Fem.so:_ZN3Fem18ConstraintPressure18getPropertyDataPtrEv
Fem.so:_ZN3Fem18ConstraintPressure4initEv
Fem.so:_ZN3Fem18ConstraintPressure6createEv
Fem.so:_ZN3Fem18ConstraintPressure7executeEv
Fem.so:_ZN3Fem18ConstraintPressure9onChangedEPKN3App8PropertyE
Fem.so:_ZN3Fem18ConstraintPressureC1Ev
Fem.so:_ZN3Fem18ConstraintPressureC2Ev
Fem.so:_ZN3Fem18FemMeshShapeObject14getClassTypeIdEv
Fem.so:_ZN3Fem18FemMeshShapeObject18getPropertyDataPtrEv
Fem.so:_ZN3Fem18FemMeshShapeObject4initEv
Fem.so:_ZN3Fem18FemMeshShapeObject6createEv
Fem.so:_ZN3Fem18FemMeshShapeObject7executeEv
Fem.so:_ZN3Fem18FemMeshShapeObjectC1Ev
Fem.so:_ZN3Fem18FemMeshShapeObjectC2Ev
Fem.so:_ZN3Fem18FemMeshShapeObjectD0Ev
Fem.so:_ZN3Fem18FemMeshShapeObjectD1Ev
Fem.so:_ZN3Fem18FemMeshShapeObjectD2Ev
Fem.so:_ZN3Fem18createObjectByTypeEN4Base4TypeE
Fem.so:_ZN3Fem18exportFemMeshCellsE15vtkSmartPointerI19vtkUnstructuredGridERKN5boost10shared_ptrI13SMDS_IteratorIPK15SMDS_MeshVolumeEEE
Fem.so:_ZN3Fem18exportFemMeshFacesE15vtkSmartPointerI19vtkUnstructuredGridERKN5boost10shared_ptrI13SMDS_IteratorIPK13SMDS_MeshFaceEEE
Fem.so:_ZN3Fem19ConstraintTransform14getClassTypeIdEv
Fem.so:_ZN3Fem19ConstraintTransform18getPropertyDataPtrEv
Fem.so:_ZN3Fem19ConstraintTransform4initEv
Fem.so:_ZN3Fem19ConstraintTransform6createEv
Fem.so:_ZN3Fem19ConstraintTransform7executeEv
Fem.so:_ZN3Fem19ConstraintTransform9onChangedEPKN3App8PropertyE
Fem.so:_ZN3Fem19ConstraintTransformC1Ev
Fem.so:_ZN3Fem19ConstraintTransformC2Ev
Fem.so:_ZN3Fem20FemPostPlaneFunction14getClassTypeIdEv
Fem.so:_ZN3Fem20FemPostPlaneFunction18getPropertyDataPtrEv
Fem.so:_ZN3Fem20FemPostPlaneFunction4initEv
Fem.so:_ZN3Fem20FemPostPlaneFunction6createEv
Fem.so:_ZN3Fem20FemPostPlaneFunction9onChangedEPKN3App8PropertyE
Fem.so:_ZN3Fem20FemPostPlaneFunctionC1Ev
Fem.so:_ZN3Fem20FemPostPlaneFunctionC2Ev
Fem.so:_ZN3Fem20FemPostPlaneFunctionD0Ev
Fem.so:_ZN3Fem20FemPostPlaneFunctionD1Ev
Fem.so:_ZN3Fem20FemPostPlaneFunctionD2Ev
Fem.so:_ZN3Fem20FemSetElementsObject11getPyObjectEv
Fem.so:_ZN3Fem20FemSetElementsObject14getClassTypeIdEv
Fem.so:_ZN3Fem20FemSetElementsObject18getPropertyDataPtrEv
Fem.so:_ZN3Fem20FemSetElementsObject4initEv
Fem.so:_ZN3Fem20FemSetElementsObject6createEv
Fem.so:_ZN3Fem20FemSetElementsObjectC1Ev
Fem.so:_ZN3Fem20FemSetElementsObjectC2Ev
Fem.so:_ZN3Fem20FemSetElementsObjectD0Ev
Fem.so:_ZN3Fem20FemSetElementsObjectD1Ev
Fem.so:_ZN3Fem20FemSetElementsObjectD2Ev
Fem.so:_ZN3Fem20FemSetGeometryObject11getPyObjectEv
Fem.so:_ZN3Fem20FemSetGeometryObject14getClassTypeIdEv
Fem.so:_ZN3Fem20FemSetGeometryObject18getPropertyDataPtrEv
Fem.so:_ZN3Fem20FemSetGeometryObject4initEv
Fem.so:_ZN3Fem20FemSetGeometryObject6createEv
Fem.so:_ZN3Fem20FemSetGeometryObjectC1Ev
Fem.so:_ZN3Fem20FemSetGeometryObjectC2Ev
Fem.so:_ZN3Fem20FemSetGeometryObjectD0Ev
Fem.so:_ZN3Fem20FemSetGeometryObjectD1Ev
Fem.so:_ZN3Fem20FemSetGeometryObjectD2Ev
Fem.so:_ZN3Fem20StdMeshers_Hexa_3DPy9init_typeEP7_object
Fem.so:_ZN3Fem20StdMeshers_Hexa_3DPyC1EiiP9SMESH_Gen
Fem.so:_ZN3Fem20StdMeshers_Hexa_3DPyC2EiiP9SMESH_Gen
Fem.so:_ZN3Fem20StdMeshers_Hexa_3DPyD0Ev
Fem.so:_ZN3Fem20StdMeshers_Hexa_3DPyD1Ev
Fem.so:_ZN3Fem20StdMeshers_Hexa_3DPyD2Ev
Fem.so:_ZN3Fem21ConstraintTemperature14getClassTypeIdEv
Fem.so:_ZN3Fem21ConstraintTemperature18getPropertyDataPtrEv
Fem.so:_ZN3Fem21ConstraintTemperature4initEv
Fem.so:_ZN3Fem21ConstraintTemperature6createEv
Fem.so:_ZN3Fem21ConstraintTemperature7executeEv
Fem.so:_ZN3Fem21ConstraintTemperature9onChangedEPKN3App8PropertyE
Fem.so:_ZN3Fem21ConstraintTemperatureC1Ev
Fem.so:_ZN3Fem21ConstraintTemperatureC2Ev
Fem.so:_ZN3Fem21FemPostSphereFunction14getClassTypeIdEv
Fem.so:_ZN3Fem21FemPostSphereFunction18getPropertyDataPtrEv
Fem.so:_ZN3Fem21FemPostSphereFunction4initEv
Fem.so:_ZN3Fem21FemPostSphereFunction6createEv
Fem.so:_ZN3Fem21FemPostSphereFunction9onChangedEPKN3App8PropertyE
Fem.so:_ZN3Fem21FemPostSphereFunctionC1Ev
Fem.so:_ZN3Fem21FemPostSphereFunctionC2Ev
Fem.so:_ZN3Fem21FemPostSphereFunctionD0Ev
Fem.so:_ZN3Fem21FemPostSphereFunctionD1Ev
Fem.so:_ZN3Fem21FemPostSphereFunctionD2Ev
Fem.so:_ZN3Fem21StdMeshers_Prism_3DPy9init_typeEP7_object
Fem.so:_ZN3Fem21StdMeshers_Prism_3DPyC1EiiP9SMESH_Gen
Fem.so:_ZN3Fem21StdMeshers_Prism_3DPyC2EiiP9SMESH_Gen
Fem.so:_ZN3Fem21StdMeshers_Prism_3DPyD0Ev
Fem.so:_ZN3Fem21StdMeshers_Prism_3DPyD1Ev
Fem.so:_ZN3Fem21StdMeshers_Prism_3DPyD2Ev
Fem.so:_ZN3Fem22ConstraintDisplacement14getClassTypeIdEv
Fem.so:_ZN3Fem22ConstraintDisplacement18getPropertyDataPtrEv
Fem.so:_ZN3Fem22ConstraintDisplacement4initEv
Fem.so:_ZN3Fem22ConstraintDisplacement6createEv
Fem.so:_ZN3Fem22ConstraintDisplacement7executeEv
Fem.so:_ZN3Fem22ConstraintDisplacement9onChangedEPKN3App8PropertyE
Fem.so:_ZN3Fem22ConstraintDisplacementC1Ev
Fem.so:_ZN3Fem22ConstraintDisplacementC2Ev
Fem.so:_ZN3Fem22PropertyPostDataObject11getDataTypeEv
Fem.so:_ZN3Fem22PropertyPostDataObject11getPyObjectEv
Fem.so:_ZN3Fem22PropertyPostDataObject11isCompositeEv
Fem.so:_ZN3Fem22PropertyPostDataObject11setPyObjectEP7_object
Fem.so:_ZN3Fem22PropertyPostDataObject14RestoreDocFileERN4Base6ReaderE
Fem.so:_ZN3Fem22PropertyPostDataObject14getClassTypeIdEv
Fem.so:_ZN3Fem22PropertyPostDataObject30createDataObjectByExternalTypeE15vtkSmartPointerI13vtkDataObjectE
Fem.so:_ZN3Fem22PropertyPostDataObject4initEv
Fem.so:_ZN3Fem22PropertyPostDataObject5PasteERKN3App8PropertyE
Fem.so:_ZN3Fem22PropertyPostDataObject6createEv
Fem.so:_ZN3Fem22PropertyPostDataObject7RestoreERN4Base9XMLReaderE
Fem.so:_ZN3Fem22PropertyPostDataObject8setValueERK15vtkSmartPointerI13vtkDataObjectE
Fem.so:_ZN3Fem22PropertyPostDataObject9isDataSetEv
Fem.so:_ZN3Fem22PropertyPostDataObjectC1Ev
Fem.so:_ZN3Fem22PropertyPostDataObjectC2Ev
Fem.so:_ZN3Fem22PropertyPostDataObjectD0Ev
Fem.so:_ZN3Fem22PropertyPostDataObjectD1Ev
Fem.so:_ZN3Fem22PropertyPostDataObjectD2Ev
Fem.so:_ZN3Fem22StdMeshers_MaxLengthPy21getPreestimatedLengthERKN2Py5TupleE
Fem.so:_ZN3Fem22StdMeshers_MaxLengthPy21setPreestimatedLengthERKN2Py5TupleE
Fem.so:_ZN3Fem22StdMeshers_MaxLengthPy22havePreestimatedLengthERKN2Py5TupleE
Fem.so:_ZN3Fem22StdMeshers_MaxLengthPy24getUsePreestimatedLengthERKN2Py5TupleE
Fem.so:_ZN3Fem22StdMeshers_MaxLengthPy24setUsePreestimatedLengthERKN2Py5TupleE
Fem.so:_ZN3Fem22StdMeshers_MaxLengthPy9getLengthERKN2Py5TupleE
Fem.so:_ZN3Fem22StdMeshers_MaxLengthPy9init_typeEP7_object
Fem.so:_ZN3Fem22StdMeshers_MaxLengthPy9setLengthERKN2Py5TupleE
Fem.so:_ZN3Fem22StdMeshers_MaxLengthPyC1EiiP9SMESH_Gen
Fem.so:_ZN3Fem22StdMeshers_MaxLengthPyC2EiiP9SMESH_Gen
Fem.so:_ZN3Fem22StdMeshers_MaxLengthPyD0Ev
Fem.so:_ZN3Fem22StdMeshers_MaxLengthPyD1Ev
Fem.so:_ZN3Fem22StdMeshers_MaxLengthPyD2Ev
Fem.so:_ZN3Fem23ConstraintFluidBoundary14getClassTypeIdEv
Fem.so:_ZN3Fem23ConstraintFluidBoundary18getPropertyDataPtrEv
Fem.so:_ZN3Fem23ConstraintFluidBoundary4initEv
Fem.so:_ZN3Fem23ConstraintFluidBoundary6createEv
Fem.so:_ZN3Fem23ConstraintFluidBoundary7executeEv
Fem.so:_ZN3Fem23ConstraintFluidBoundary9onChangedEPKN3App8PropertyE
Fem.so:_ZN3Fem23ConstraintFluidBoundaryC1Ev
Fem.so:_ZN3Fem23ConstraintFluidBoundaryC2Ev
Fem.so:_ZN3Fem23ConstraintPlaneRotation14getClassTypeIdEv
Fem.so:_ZN3Fem23ConstraintPlaneRotation18getPropertyDataPtrEv
Fem.so:_ZN3Fem23ConstraintPlaneRotation4initEv
Fem.so:_ZN3Fem23ConstraintPlaneRotation6createEv
Fem.so:_ZN3Fem23ConstraintPlaneRotation7executeEv
Fem.so:_ZN3Fem23ConstraintPlaneRotation9onChangedEPKN3App8PropertyE
Fem.so:_ZN3Fem23ConstraintPlaneRotationC1Ev
Fem.so:_ZN3Fem23ConstraintPlaneRotationC2Ev
Fem.so:_ZN3Fem23FemPostFunctionProvider14getClassTypeIdEv
Fem.so:_ZN3Fem23FemPostFunctionProvider18getPropertyDataPtrEv
Fem.so:_ZN3Fem23FemPostFunctionProvider4initEv
Fem.so:_ZN3Fem23FemPostFunctionProvider6createEv
Fem.so:_ZN3Fem23FemPostFunctionProvider9onChangedEPKN3App8PropertyE
Fem.so:_ZN3Fem23FemPostFunctionProviderC1Ev
Fem.so:_ZN3Fem23FemPostFunctionProviderC2Ev
Fem.so:_ZN3Fem23FemPostFunctionProviderD0Ev
Fem.so:_ZN3Fem23FemPostFunctionProviderD1Ev
Fem.so:_ZN3Fem23FemPostFunctionProviderD2Ev
Fem.so:_ZN3Fem23FemPostScalarClipFilter14getClassTypeIdEv
Fem.so:_ZN3Fem23FemPostScalarClipFilter18getPropertyDataPtrEv
Fem.so:_ZN3Fem23FemPostScalarClipFilter21setConstraintForFieldEv
Fem.so:_ZN3Fem23FemPostScalarClipFilter4initEv
Fem.so:_ZN3Fem23FemPostScalarClipFilter6createEv
Fem.so:_ZN3Fem23FemPostScalarClipFilter7executeEv
Fem.so:_ZN3Fem23FemPostScalarClipFilter9onChangedEPKN3App8PropertyE
Fem.so:_ZN3Fem23FemPostScalarClipFilterC1Ev
Fem.so:_ZN3Fem23FemPostScalarClipFilterC2Ev
Fem.so:_ZN3Fem23FemPostScalarClipFilterD0Ev
Fem.so:_ZN3Fem23FemPostScalarClipFilterD1Ev
Fem.so:_ZN3Fem23FemPostScalarClipFilterD2Ev
Fem.so:_ZN3Fem23FemPostWarpVectorFilter14getClassTypeIdEv
Fem.so:_ZN3Fem23FemPostWarpVectorFilter18getPropertyDataPtrEv
Fem.so:_ZN3Fem23FemPostWarpVectorFilter4initEv
Fem.so:_ZN3Fem23FemPostWarpVectorFilter6createEv
Fem.so:_ZN3Fem23FemPostWarpVectorFilter7executeEv
Fem.so:_ZN3Fem23FemPostWarpVectorFilter9onChangedEPKN3App8PropertyE
Fem.so:_ZN3Fem23FemPostWarpVectorFilterC1Ev
Fem.so:_ZN3Fem23FemPostWarpVectorFilterC2Ev
Fem.so:_ZN3Fem23FemPostWarpVectorFilterD0Ev
Fem.so:_ZN3Fem23FemPostWarpVectorFilterD1Ev
Fem.so:_ZN3Fem23FemPostWarpVectorFilterD2Ev
Fem.so:_ZN3Fem23StdMeshers_MEFISTO_2DPy9init_typeEP7_object
Fem.so:_ZN3Fem23StdMeshers_MEFISTO_2DPyC1EiiP9SMESH_Gen
Fem.so:_ZN3Fem23StdMeshers_MEFISTO_2DPyC2EiiP9SMESH_Gen
Fem.so:_ZN3Fem23StdMeshers_MEFISTO_2DPyD0Ev
Fem.so:_ZN3Fem23StdMeshers_MEFISTO_2DPyD1Ev
Fem.so:_ZN3Fem23StdMeshers_MEFISTO_2DPyD2Ev
Fem.so:_ZN3Fem23StdMeshers_Regular_1DPy9init_typeEP7_object
Fem.so:_ZN3Fem23StdMeshers_Regular_1DPyC1EiiP9SMESH_Gen
Fem.so:_ZN3Fem23StdMeshers_Regular_1DPyC2EiiP9SMESH_Gen
Fem.so:_ZN3Fem23StdMeshers_Regular_1DPyD0Ev
Fem.so:_ZN3Fem23StdMeshers_Regular_1DPyD1Ev
Fem.so:_ZN3Fem23StdMeshers_Regular_1DPyD2Ev
Fem.so:_ZN3Fem24FemMeshShapeNetgenObject14getClassTypeIdEv
Fem.so:_ZN3Fem24FemMeshShapeNetgenObject18getPropertyDataPtrEv
Fem.so:_ZN3Fem24FemMeshShapeNetgenObject4initEv
Fem.so:_ZN3Fem24FemMeshShapeNetgenObject6createEv
Fem.so:_ZN3Fem24FemMeshShapeNetgenObject7executeEv
Fem.so:_ZN3Fem24FemMeshShapeNetgenObjectC1Ev
Fem.so:_ZN3Fem24FemMeshShapeNetgenObjectC2Ev
Fem.so:_ZN3Fem24FemMeshShapeNetgenObjectD0Ev
Fem.so:_ZN3Fem24FemMeshShapeNetgenObjectD1Ev
Fem.so:_ZN3Fem24FemMeshShapeNetgenObjectD2Ev
Fem.so:_ZN3Fem24FemPostDataAtPointFilter12GetPointDataEv
Fem.so:_ZN3Fem24FemPostDataAtPointFilter14getClassTypeIdEv
Fem.so:_ZN3Fem24FemPostDataAtPointFilter18getPropertyDataPtrEv
Fem.so:_ZN3Fem24FemPostDataAtPointFilter4initEv
Fem.so:_ZN3Fem24FemPostDataAtPointFilter6createEv
Fem.so:_ZN3Fem24FemPostDataAtPointFilter7executeEv
Fem.so:_ZN3Fem24FemPostDataAtPointFilter9onChangedEPKN3App8PropertyE
Fem.so:_ZN3Fem24FemPostDataAtPointFilterC1Ev
Fem.so:_ZN3Fem24FemPostDataAtPointFilterC2Ev
Fem.so:_ZN3Fem24FemPostDataAtPointFilterD0Ev
Fem.so:_ZN3Fem24FemPostDataAtPointFilterD1Ev
Fem.so:_ZN3Fem24FemPostDataAtPointFilterD2Ev
Fem.so:_ZN3Fem24StdMeshers_LocalLengthPy12getPrecisionERKN2Py5TupleE
Fem.so:_ZN3Fem24StdMeshers_LocalLengthPy12setPrecisionERKN2Py5TupleE
Fem.so:_ZN3Fem24StdMeshers_LocalLengthPy9getLengthERKN2Py5TupleE
Fem.so:_ZN3Fem24StdMeshers_LocalLengthPy9init_typeEP7_object
Fem.so:_ZN3Fem24StdMeshers_LocalLengthPy9setLengthERKN2Py5TupleE
Fem.so:_ZN3Fem24StdMeshers_LocalLengthPyC1EiiP9SMESH_Gen
Fem.so:_ZN3Fem24StdMeshers_LocalLengthPyC2EiiP9SMESH_Gen
Fem.so:_ZN3Fem24StdMeshers_LocalLengthPyD0Ev
Fem.so:_ZN3Fem24StdMeshers_LocalLengthPyD1Ev
Fem.so:_ZN3Fem24StdMeshers_LocalLengthPyD2Ev
Fem.so:_ZN3Fem25StdMeshers_Arithmetic1DPy9getLengthERKN2Py5TupleE
Fem.so:_ZN3Fem25StdMeshers_Arithmetic1DPy9init_typeEP7_object
Fem.so:_ZN3Fem25StdMeshers_Arithmetic1DPy9setLengthERKN2Py5TupleE
Fem.so:_ZN3Fem25StdMeshers_Arithmetic1DPyC1EiiP9SMESH_Gen
Fem.so:_ZN3Fem25StdMeshers_Arithmetic1DPyC2EiiP9SMESH_Gen
Fem.so:_ZN3Fem25StdMeshers_Arithmetic1DPyD0Ev
Fem.so:_ZN3Fem25StdMeshers_Arithmetic1DPyD1Ev
Fem.so:_ZN3Fem25StdMeshers_Arithmetic1DPyD2Ev
Fem.so:_ZN3Fem25StdMeshers_Deflection1DPy13setDeflectionERKN2Py5TupleE
Fem.so:_ZN3Fem25StdMeshers_Deflection1DPy9init_typeEP7_object
Fem.so:_ZN3Fem25StdMeshers_Deflection1DPyC1EiiP9SMESH_Gen
Fem.so:_ZN3Fem25StdMeshers_Deflection1DPyC2EiiP9SMESH_Gen
Fem.so:_ZN3Fem25StdMeshers_Deflection1DPyD0Ev
Fem.so:_ZN3Fem25StdMeshers_Deflection1DPyD1Ev
Fem.so:_ZN3Fem25StdMeshers_Deflection1DPyD2Ev
Fem.so:_ZN3Fem26FemPostDataAlongLineFilter11GetAxisDataEv
Fem.so:_ZN3Fem26FemPostDataAlongLineFilter14getClassTypeIdEv
Fem.so:_ZN3Fem26FemPostDataAlongLineFilter18getPropertyDataPtrEv
Fem.so:_ZN3Fem26FemPostDataAlongLineFilter4initEv
Fem.so:_ZN3Fem26FemPostDataAlongLineFilter6createEv
Fem.so:_ZN3Fem26FemPostDataAlongLineFilter7executeEv
Fem.so:_ZN3Fem26FemPostDataAlongLineFilter9onChangedEPKN3App8PropertyE
Fem.so:_ZN3Fem26FemPostDataAlongLineFilterC1Ev
Fem.so:_ZN3Fem26FemPostDataAlongLineFilterC2Ev
Fem.so:_ZN3Fem26FemPostDataAlongLineFilterD0Ev
Fem.so:_ZN3Fem26FemPostDataAlongLineFilterD1Ev
Fem.so:_ZN3Fem26FemPostDataAlongLineFilterD2Ev
Fem.so:_ZN3Fem26StdMeshers_Projection_1DPy9init_typeEP7_object
Fem.so:_ZN3Fem26StdMeshers_Projection_1DPyC1EiiP9SMESH_Gen
Fem.so:_ZN3Fem26StdMeshers_Projection_1DPyC2EiiP9SMESH_Gen
Fem.so:_ZN3Fem26StdMeshers_Projection_1DPyD0Ev
Fem.so:_ZN3Fem26StdMeshers_Projection_1DPyD1Ev
Fem.so:_ZN3Fem26StdMeshers_Projection_1DPyD2Ev
Fem.so:_ZN3Fem26StdMeshers_Projection_2DPy9init_typeEP7_object
Fem.so:_ZN3Fem26StdMeshers_Projection_2DPyC1EiiP9SMESH_Gen
Fem.so:_ZN3Fem26StdMeshers_Projection_2DPyC2EiiP9SMESH_Gen
Fem.so:_ZN3Fem26StdMeshers_Projection_2DPyD0Ev
Fem.so:_ZN3Fem26StdMeshers_Projection_2DPyD1Ev
Fem.so:_ZN3Fem26StdMeshers_Projection_2DPyD2Ev
Fem.so:_ZN3Fem26StdMeshers_Projection_3DPy9init_typeEP7_object
Fem.so:_ZN3Fem26StdMeshers_Projection_3DPyC1EiiP9SMESH_Gen
Fem.so:_ZN3Fem26StdMeshers_Projection_3DPyC2EiiP9SMESH_Gen
Fem.so:_ZN3Fem26StdMeshers_Projection_3DPyD0Ev
Fem.so:_ZN3Fem26StdMeshers_Projection_3DPyD1Ev
Fem.so:_ZN3Fem26StdMeshers_Projection_3DPyD2Ev
Fem.so:_ZN3Fem26StdMeshers_Quadrangle_2DPy9init_typeEP7_object
Fem.so:_ZN3Fem26StdMeshers_Quadrangle_2DPyC1EiiP9SMESH_Gen
Fem.so:_ZN3Fem26StdMeshers_Quadrangle_2DPyC2EiiP9SMESH_Gen
Fem.so:_ZN3Fem26StdMeshers_Quadrangle_2DPyD0Ev
Fem.so:_ZN3Fem26StdMeshers_Quadrangle_2DPyD1Ev
Fem.so:_ZN3Fem26StdMeshers_Quadrangle_2DPyD2Ev
Fem.so:_ZN3Fem26StdMeshers_QuadraticMeshPy9init_typeEP7_object
Fem.so:_ZN3Fem26StdMeshers_QuadraticMeshPyC1EiiP9SMESH_Gen
Fem.so:_ZN3Fem26StdMeshers_QuadraticMeshPyC2EiiP9SMESH_Gen
Fem.so:_ZN3Fem26StdMeshers_QuadraticMeshPyD0Ev
Fem.so:_ZN3Fem26StdMeshers_QuadraticMeshPyD1Ev
Fem.so:_ZN3Fem26StdMeshers_QuadraticMeshPyD2Ev
Fem.so:_ZN3Fem27StdMeshers_MaxElementAreaPy10getMaxAreaERKN2Py5TupleE
Fem.so:_ZN3Fem27StdMeshers_MaxElementAreaPy10setMaxAreaERKN2Py5TupleE
Fem.so:_ZN3Fem27StdMeshers_MaxElementAreaPy9init_typeEP7_object
Fem.so:_ZN3Fem27StdMeshers_MaxElementAreaPyC1EiiP9SMESH_Gen
Fem.so:_ZN3Fem27StdMeshers_MaxElementAreaPyC2EiiP9SMESH_Gen
Fem.so:_ZN3Fem27StdMeshers_MaxElementAreaPyD0Ev
Fem.so:_ZN3Fem27StdMeshers_MaxElementAreaPyD1Ev
Fem.so:_ZN3Fem27StdMeshers_MaxElementAreaPyD2Ev
Fem.so:_ZN3Fem27StdMeshers_NumberOfLayersPy12getNumLayersERKN2Py5TupleE
Fem.so:_ZN3Fem27StdMeshers_NumberOfLayersPy12setNumLayersERKN2Py5TupleE
Fem.so:_ZN3Fem27StdMeshers_NumberOfLayersPy9init_typeEP7_object
Fem.so:_ZN3Fem27StdMeshers_NumberOfLayersPyC1EiiP9SMESH_Gen
Fem.so:_ZN3Fem27StdMeshers_NumberOfLayersPyC2EiiP9SMESH_Gen
Fem.so:_ZN3Fem27StdMeshers_NumberOfLayersPyD0Ev
Fem.so:_ZN3Fem27StdMeshers_NumberOfLayersPyD1Ev
Fem.so:_ZN3Fem27StdMeshers_NumberOfLayersPyD2Ev
Fem.so:_ZN3Fem27StdMeshers_RadialPrism_3DPy9init_typeEP7_object
Fem.so:_ZN3Fem27StdMeshers_RadialPrism_3DPyC1EiiP9SMESH_Gen
Fem.so:_ZN3Fem27StdMeshers_RadialPrism_3DPyC2EiiP9SMESH_Gen
Fem.so:_ZN3Fem27StdMeshers_RadialPrism_3DPyD0Ev
Fem.so:_ZN3Fem27StdMeshers_RadialPrism_3DPyD1Ev
Fem.so:_ZN3Fem27StdMeshers_RadialPrism_3DPyD2Ev
Fem.so:_ZN3Fem27StdMeshers_StartEndLengthPy9getLengthERKN2Py5TupleE
Fem.so:_ZN3Fem27StdMeshers_StartEndLengthPy9init_typeEP7_object
Fem.so:_ZN3Fem27StdMeshers_StartEndLengthPy9setLengthERKN2Py5TupleE
Fem.so:_ZN3Fem27StdMeshers_StartEndLengthPyC1EiiP9SMESH_Gen
Fem.so:_ZN3Fem27StdMeshers_StartEndLengthPyC2EiiP9SMESH_Gen
Fem.so:_ZN3Fem27StdMeshers_StartEndLengthPyD0Ev
Fem.so:_ZN3Fem27StdMeshers_StartEndLengthPyD1Ev
Fem.so:_ZN3Fem27StdMeshers_StartEndLengthPyD2Ev
Fem.so:_ZN3Fem27StdMeshers_UseExisting_1DPy9init_typeEP7_object
Fem.so:_ZN3Fem27StdMeshers_UseExisting_1DPyC1EiiP9SMESH_Gen
Fem.so:_ZN3Fem27StdMeshers_UseExisting_1DPyC2EiiP9SMESH_Gen
Fem.so:_ZN3Fem27StdMeshers_UseExisting_1DPyD0Ev
Fem.so:_ZN3Fem27StdMeshers_UseExisting_1DPyD1Ev
Fem.so:_ZN3Fem27StdMeshers_UseExisting_1DPyD2Ev
Fem.so:_ZN3Fem27StdMeshers_UseExisting_2DPy9init_typeEP7_object
Fem.so:_ZN3Fem27StdMeshers_UseExisting_2DPyC1EiiP9SMESH_Gen
Fem.so:_ZN3Fem27StdMeshers_UseExisting_2DPyC2EiiP9SMESH_Gen
Fem.so:_ZN3Fem27StdMeshers_UseExisting_2DPyD0Ev
Fem.so:_ZN3Fem27StdMeshers_UseExisting_2DPyD1Ev
Fem.so:_ZN3Fem27StdMeshers_UseExisting_2DPyD2Ev
Fem.so:_ZN3Fem28ConstraintInitialTemperature14getClassTypeIdEv
Fem.so:_ZN3Fem28ConstraintInitialTemperature18getPropertyDataPtrEv
Fem.so:_ZN3Fem28ConstraintInitialTemperature4initEv
Fem.so:_ZN3Fem28ConstraintInitialTemperature6createEv
Fem.so:_ZN3Fem28ConstraintInitialTemperature7executeEv
Fem.so:_ZN3Fem28ConstraintInitialTemperature9onChangedEPKN3App8PropertyE
Fem.so:_ZN3Fem28ConstraintInitialTemperatureC1Ev
Fem.so:_ZN3Fem28ConstraintInitialTemperatureC2Ev
Fem.so:_ZN3Fem28StdMeshers_AutomaticLengthPy11getFinenessERKN2Py5TupleE
Fem.so:_ZN3Fem28StdMeshers_AutomaticLengthPy11setFinenessERKN2Py5TupleE
Fem.so:_ZN3Fem28StdMeshers_AutomaticLengthPy9getLengthERKN2Py5TupleE
Fem.so:_ZN3Fem28StdMeshers_AutomaticLengthPy9init_typeEP7_object
Fem.so:_ZN3Fem28StdMeshers_AutomaticLengthPyC1EiiP9SMESH_Gen
Fem.so:_ZN3Fem28StdMeshers_AutomaticLengthPyC2EiiP9SMESH_Gen
Fem.so:_ZN3Fem28StdMeshers_AutomaticLengthPyD0Ev
Fem.so:_ZN3Fem28StdMeshers_AutomaticLengthPyD1Ev
Fem.so:_ZN3Fem28StdMeshers_AutomaticLengthPyD2Ev
Fem.so:_ZN3Fem28StdMeshers_LengthFromEdgesPy7getModeERKN2Py5TupleE
Fem.so:_ZN3Fem28StdMeshers_LengthFromEdgesPy7setModeERKN2Py5TupleE
Fem.so:_ZN3Fem28StdMeshers_LengthFromEdgesPy9init_typeEP7_object
Fem.so:_ZN3Fem28StdMeshers_LengthFromEdgesPyC1EiiP9SMESH_Gen
Fem.so:_ZN3Fem28StdMeshers_LengthFromEdgesPyC2EiiP9SMESH_Gen
Fem.so:_ZN3Fem28StdMeshers_LengthFromEdgesPyD0Ev
Fem.so:_ZN3Fem28StdMeshers_LengthFromEdgesPyD1Ev
Fem.so:_ZN3Fem28StdMeshers_LengthFromEdgesPyD2Ev
Fem.so:_ZN3Fem29StdMeshers_MaxElementVolumePy12getMaxVolumeERKN2Py5TupleE
Fem.so:_ZN3Fem29StdMeshers_MaxElementVolumePy12setMaxVolumeERKN2Py5TupleE
Fem.so:_ZN3Fem29StdMeshers_MaxElementVolumePy9init_typeEP7_object
Fem.so:_ZN3Fem29StdMeshers_MaxElementVolumePyC1EiiP9SMESH_Gen
Fem.so:_ZN3Fem29StdMeshers_MaxElementVolumePyC2EiiP9SMESH_Gen
Fem.so:_ZN3Fem29StdMeshers_MaxElementVolumePyD0Ev
Fem.so:_ZN3Fem29StdMeshers_MaxElementVolumePyD1Ev
Fem.so:_ZN3Fem29StdMeshers_MaxElementVolumePyD2Ev
Fem.so:_ZN3Fem29StdMeshers_NumberOfSegmentsPy10getNumSegmERKN2Py5TupleE
Fem.so:_ZN3Fem29StdMeshers_NumberOfSegmentsPy10setNumSegmERKN2Py5TupleE
Fem.so:_ZN3Fem29StdMeshers_NumberOfSegmentsPy9init_typeEP7_object
Fem.so:_ZN3Fem29StdMeshers_NumberOfSegmentsPyC1EiiP9SMESH_Gen
Fem.so:_ZN3Fem29StdMeshers_NumberOfSegmentsPyC2EiiP9SMESH_Gen
Fem.so:_ZN3Fem29StdMeshers_NumberOfSegmentsPyD0Ev
Fem.so:_ZN3Fem29StdMeshers_NumberOfSegmentsPyD1Ev
Fem.so:_ZN3Fem29StdMeshers_NumberOfSegmentsPyD2Ev
Fem.so:_ZN3Fem30StdMeshers_LayerDistributionPy20getLayerDistributionERKN2Py5TupleE
Fem.so:_ZN3Fem30StdMeshers_LayerDistributionPy20setLayerDistributionERKN2Py5TupleE
Fem.so:_ZN3Fem30StdMeshers_LayerDistributionPy9init_typeEP7_object
Fem.so:_ZN3Fem30StdMeshers_LayerDistributionPyC1EiiP9SMESH_Gen
Fem.so:_ZN3Fem30StdMeshers_LayerDistributionPyC2EiiP9SMESH_Gen
Fem.so:_ZN3Fem30StdMeshers_LayerDistributionPyD0Ev
Fem.so:_ZN3Fem30StdMeshers_LayerDistributionPyD1Ev
Fem.so:_ZN3Fem30StdMeshers_LayerDistributionPyD2Ev
Fem.so:_ZN3Fem30StdMeshers_NotConformAllowedPy9init_typeEP7_object
Fem.so:_ZN3Fem30StdMeshers_NotConformAllowedPyC1EiiP9SMESH_Gen
Fem.so:_ZN3Fem30StdMeshers_NotConformAllowedPyC2EiiP9SMESH_Gen
Fem.so:_ZN3Fem30StdMeshers_NotConformAllowedPyD0Ev
Fem.so:_ZN3Fem30StdMeshers_NotConformAllowedPyD1Ev
Fem.so:_ZN3Fem30StdMeshers_NotConformAllowedPyD2Ev
Fem.so:_ZN3Fem31StdMeshers_ProjectionSource1DPy9init_typeEP7_object
Fem.so:_ZN3Fem31StdMeshers_ProjectionSource1DPyC1EiiP9SMESH_Gen
Fem.so:_ZN3Fem31StdMeshers_ProjectionSource1DPyC2EiiP9SMESH_Gen
Fem.so:_ZN3Fem31StdMeshers_ProjectionSource1DPyD0Ev
Fem.so:_ZN3Fem31StdMeshers_ProjectionSource1DPyD1Ev
Fem.so:_ZN3Fem31StdMeshers_ProjectionSource1DPyD2Ev
Fem.so:_ZN3Fem31StdMeshers_ProjectionSource2DPy9init_typeEP7_object
Fem.so:_ZN3Fem31StdMeshers_ProjectionSource2DPyC1EiiP9SMESH_Gen
Fem.so:_ZN3Fem31StdMeshers_ProjectionSource2DPyC2EiiP9SMESH_Gen
Fem.so:_ZN3Fem31StdMeshers_ProjectionSource2DPyD0Ev
Fem.so:_ZN3Fem31StdMeshers_ProjectionSource2DPyD1Ev
Fem.so:_ZN3Fem31StdMeshers_ProjectionSource2DPyD2Ev
Fem.so:_ZN3Fem31StdMeshers_ProjectionSource3DPy9init_typeEP7_object
Fem.so:_ZN3Fem31StdMeshers_ProjectionSource3DPyC1EiiP9SMESH_Gen
Fem.so:_ZN3Fem31StdMeshers_ProjectionSource3DPyC2EiiP9SMESH_Gen
Fem.so:_ZN3Fem31StdMeshers_ProjectionSource3DPyD0Ev
Fem.so:_ZN3Fem31StdMeshers_ProjectionSource3DPyD1Ev
Fem.so:_ZN3Fem31StdMeshers_ProjectionSource3DPyD2Ev
Fem.so:_ZN3Fem31_getFreeCADMechResultPropertiesB5cxx11Ev
Fem.so:_ZN3Fem32StdMeshers_CompositeSegment_1DPy9init_typeEP7_object
Fem.so:_ZN3Fem32StdMeshers_CompositeSegment_1DPyC1EiiP9SMESH_Gen
Fem.so:_ZN3Fem32StdMeshers_CompositeSegment_1DPyC2EiiP9SMESH_Gen
Fem.so:_ZN3Fem32StdMeshers_CompositeSegment_1DPyD0Ev
Fem.so:_ZN3Fem32StdMeshers_CompositeSegment_1DPyD1Ev
Fem.so:_ZN3Fem32StdMeshers_CompositeSegment_1DPyD2Ev
Fem.so:_ZN3Fem33StdMeshers_QuadranglePreferencePy9init_typeEP7_object
Fem.so:_ZN3Fem33StdMeshers_QuadranglePreferencePyC1EiiP9SMESH_Gen
Fem.so:_ZN3Fem33StdMeshers_QuadranglePreferencePyC2EiiP9SMESH_Gen
Fem.so:_ZN3Fem33StdMeshers_QuadranglePreferencePyD0Ev
Fem.so:_ZN3Fem33StdMeshers_QuadranglePreferencePyD1Ev
Fem.so:_ZN3Fem33StdMeshers_QuadranglePreferencePyD2Ev
Fem.so:_ZN3Fem35StdMeshers_SegmentAroundVertex_0DPy9init_typeEP7_object
Fem.so:_ZN3Fem35StdMeshers_SegmentAroundVertex_0DPyC1EiiP9SMESH_Gen
Fem.so:_ZN3Fem35StdMeshers_SegmentAroundVertex_0DPyC2EiiP9SMESH_Gen
Fem.so:_ZN3Fem35StdMeshers_SegmentAroundVertex_0DPyD0Ev
Fem.so:_ZN3Fem35StdMeshers_SegmentAroundVertex_0DPyD1Ev
Fem.so:_ZN3Fem35StdMeshers_SegmentAroundVertex_0DPyD2Ev
Fem.so:_ZN3Fem38StdMeshers_SegmentLengthAroundVertexPy9getLengthERKN2Py5TupleE
Fem.so:_ZN3Fem38StdMeshers_SegmentLengthAroundVertexPy9init_typeEP7_object
Fem.so:_ZN3Fem38StdMeshers_SegmentLengthAroundVertexPy9setLengthERKN2Py5TupleE
Fem.so:_ZN3Fem38StdMeshers_SegmentLengthAroundVertexPyC1EiiP9SMESH_Gen
Fem.so:_ZN3Fem38StdMeshers_SegmentLengthAroundVertexPyC2EiiP9SMESH_Gen
Fem.so:_ZN3Fem38StdMeshers_SegmentLengthAroundVertexPyD0Ev
Fem.so:_ZN3Fem38StdMeshers_SegmentLengthAroundVertexPyD1Ev
Fem.so:_ZN3Fem38StdMeshers_SegmentLengthAroundVertexPyD2Ev
Fem.so:_ZN3Fem5Tools12getDirectionERK11TopoDS_Edge
Fem.so:_ZN3Fem5Tools12getDirectionERK11TopoDS_Face
Fem.so:_ZN3Fem5Tools21getDirectionFromShapeERK12TopoDS_Shape
Fem.so:_ZN3Fem5Tools8isLinearERK11TopoDS_Edge
Fem.so:_ZN3Fem5Tools8isPlanarERK11TopoDS_Face
Fem.so:_ZN3Fem7FemMesh10readAbaqusERKNSt7__cxx1112basic_stringIcSt11char_traitsIcESaIcEEE
Fem.so:_ZN3Fem7FemMesh11readNastranERKNSt7__cxx1112basic_stringIcSt11char_traitsIcESaIcEEE
Fem.so:_ZN3Fem7FemMesh12copyMeshDataERKS0_
Fem.so:_ZN3Fem7FemMesh12getGeneratorEv
Fem.so:_ZN3Fem7FemMesh12setTransformERKN4Base8Matrix4DE
Fem.so:_ZN3Fem7FemMesh13addHypothesisERK12TopoDS_ShapeN5boost10shared_ptrI16SMESH_HypothesisEE
Fem.so:_ZN3Fem7FemMesh14RestoreDocFileERN4Base6ReaderE
Fem.so:_ZN3Fem7FemMesh14getClassTypeIdEv
Fem.so:_ZN3Fem7FemMesh17transformGeometryERKN4Base8Matrix4DE
Fem.so:_ZN3Fem7FemMesh21setStandardHypothesesEv
Fem.so:_ZN3Fem7FemMesh4initEv
Fem.so:_ZN3Fem7FemMesh4readEPKc
Fem.so:_ZN3Fem7FemMesh6createEv
Fem.so:_ZN3Fem7FemMesh7RestoreERN4Base9XMLReaderE
Fem.so:_ZN3Fem7FemMesh7computeEv
Fem.so:_ZN3Fem7FemMesh7readZ88ERKNSt7__cxx1112basic_stringIcSt11char_traitsIcESaIcEEE
Fem.so:_ZN3Fem7FemMesh8getSMeshEv
Fem.so:_ZN3Fem7FemMeshC1ERKS0_
Fem.so:_ZN3Fem7FemMeshC1Ev
Fem.so:_ZN3Fem7FemMeshC2ERKS0_
Fem.so:_ZN3Fem7FemMeshC2Ev
Fem.so:_ZN3Fem7FemMeshD0Ev
Fem.so:_ZN3Fem7FemMeshD1Ev
Fem.so:_ZN3Fem7FemMeshD2Ev
Fem.so:_ZN3Fem7FemMeshaSERKS0_
Fem.so:_ZN3Fem9FemMeshPy11getNodeByIdEP7_object
Fem.so:_ZN3Fem9FemMeshPy11writeABAQUSEP7_object
Fem.so:_ZN3Fem9FemMeshPy12getGroupNameEP7_object
Fem.so:_ZN3Fem9FemMeshPy12setTransformEP7_object
Fem.so:_ZN3Fem9FemMeshPy13addHypothesisEP7_object
Fem.so:_ZN3Fem9FemMeshPy14getEdgesByEdgeEP7_object
Fem.so:_ZN3Fem9FemMeshPy14getElementTypeEP7_object
Fem.so:_ZN3Fem9FemMeshPy14getFacesByFaceEP7_object
Fem.so:_ZN3Fem9FemMeshPy14getNodesByEdgeEP7_object
Fem.so:_ZN3Fem9FemMeshPy14getNodesByFaceEP7_object
Fem.so:_ZN3Fem9FemMeshPy15getElementNodesEP7_object
Fem.so:_ZN3Fem9FemMeshPy15getNodesBySolidEP7_object
Fem.so:_ZN3Fem9FemMeshPy16getGroupElementsEP7_object
Fem.so:_ZN3Fem9FemMeshPy16getNodesByVertexEP7_object
Fem.so:_ZN3Fem9FemMeshPy16getVolumesByFaceEP7_object
Fem.so:_ZN3Fem9FemMeshPy18getIdByElementTypeEP7_object
Fem.so:_ZN3Fem9FemMeshPy19getGroupElementTypeEP7_object
Fem.so:_ZN3Fem9FemMeshPy19getccxVolumesByFaceEP7_object
Fem.so:_ZN3Fem9FemMeshPy19setCustomAttributesEPKcP7_object
Fem.so:_ZN3Fem9FemMeshPy19staticCallback_copyEP7_objectS2_
Fem.so:_ZN3Fem9FemMeshPy19staticCallback_readEP7_objectS2_
Fem.so:_ZN3Fem9FemMeshPy20staticCallback_writeEP7_objectS2_
Fem.so:_ZN3Fem9FemMeshPy21setStandardHypothesesEP7_object
Fem.so:_ZN3Fem9FemMeshPy22staticCallback_addEdgeEP7_objectS2_
Fem.so:_ZN3Fem9FemMeshPy22staticCallback_addFaceEP7_objectS2_
Fem.so:_ZN3Fem9FemMeshPy22staticCallback_addNodeEP7_objectS2_
Fem.so:_ZN3Fem9FemMeshPy22staticCallback_addQuadEP7_objectS2_
Fem.so:_ZN3Fem9FemMeshPy22staticCallback_computeEP7_objectS2_
Fem.so:_ZN3Fem9FemMeshPy23staticCallback_getEdgesEP7_objectPv
Fem.so:_ZN3Fem9FemMeshPy23staticCallback_getFacesEP7_objectPv
Fem.so:_ZN3Fem9FemMeshPy23staticCallback_getNodesEP7_objectPv
Fem.so:_ZN3Fem9FemMeshPy23staticCallback_setEdgesEP7_objectS2_Pv
Fem.so:_ZN3Fem9FemMeshPy23staticCallback_setFacesEP7_objectS2_Pv
Fem.so:_ZN3Fem9FemMeshPy23staticCallback_setNodesEP7_objectS2_Pv
Fem.so:_ZN3Fem9FemMeshPy23staticCallback_setShapeEP7_objectS2_
Fem.so:_ZN3Fem9FemMeshPy24staticCallback_addVolumeEP7_objectS2_
Fem.so:_ZN3Fem9FemMeshPy24staticCallback_getGroupsEP7_objectPv
Fem.so:_ZN3Fem9FemMeshPy24staticCallback_getVolumeEP7_objectPv
Fem.so:_ZN3Fem9FemMeshPy24staticCallback_setGroupsEP7_objectS2_Pv
Fem.so:_ZN3Fem9FemMeshPy24staticCallback_setVolumeEP7_objectS2_Pv
Fem.so:_ZN3Fem9FemMeshPy25staticCallback_getVolumesEP7_objectPv
Fem.so:_ZN3Fem9FemMeshPy25staticCallback_setVolumesEP7_objectS2_Pv
Fem.so:_ZN3Fem9FemMeshPy26staticCallback_getNodeByIdEP7_objectS2_
Fem.so:_ZN3Fem9FemMeshPy26staticCallback_writeABAQUSEP7_objectS2_
Fem.so:_ZN3Fem9FemMeshPy27staticCallback_getEdgeCountEP7_objectPv
Fem.so:_ZN3Fem9FemMeshPy27staticCallback_getEdgesOnlyEP7_objectPv
Fem.so:_ZN3Fem9FemMeshPy27staticCallback_getFaceCountEP7_objectPv
Fem.so:_ZN3Fem9FemMeshPy27staticCallback_getFacesOnlyEP7_objectPv
Fem.so:_ZN3Fem9FemMeshPy27staticCallback_getGroupNameEP7_objectS2_
Fem.so:_ZN3Fem9FemMeshPy27staticCallback_getHexaCountEP7_objectPv
Fem.so:_ZN3Fem9FemMeshPy27staticCallback_getNodeCountEP7_objectPv
Fem.so:_ZN3Fem9FemMeshPy27staticCallback_setEdgeCountEP7_objectS2_Pv
Fem.so:_ZN3Fem9FemMeshPy27staticCallback_setEdgesOnlyEP7_objectS2_Pv
Fem.so:_ZN3Fem9FemMeshPy27staticCallback_setFaceCountEP7_objectS2_Pv
Fem.so:_ZN3Fem9FemMeshPy27staticCallback_setFacesOnlyEP7_objectS2_Pv
Fem.so:_ZN3Fem9FemMeshPy27staticCallback_setHexaCountEP7_objectS2_Pv
Fem.so:_ZN3Fem9FemMeshPy27staticCallback_setNodeCountEP7_objectS2_Pv
Fem.so:_ZN3Fem9FemMeshPy27staticCallback_setTransformEP7_objectS2_
Fem.so:_ZN3Fem9FemMeshPy28staticCallback_addHypothesisEP7_objectS2_
Fem.so:_ZN3Fem9FemMeshPy28staticCallback_getGroupCountEP7_objectPv
Fem.so:_ZN3Fem9FemMeshPy28staticCallback_getPrismCountEP7_objectPv
Fem.so:_ZN3Fem9FemMeshPy28staticCallback_getTetraCountEP7_objectPv
Fem.so:_ZN3Fem9FemMeshPy28staticCallback_setGroupCountEP7_objectS2_Pv
Fem.so:_ZN3Fem9FemMeshPy28staticCallback_setPrismCountEP7_objectS2_Pv
Fem.so:_ZN3Fem9FemMeshPy28staticCallback_setTetraCountEP7_objectS2_Pv
Fem.so:_ZN3Fem9FemMeshPy29staticCallback_getEdgesByEdgeEP7_objectS2_
Fem.so:_ZN3Fem9FemMeshPy29staticCallback_getElementTypeEP7_objectS2_
Fem.so:_ZN3Fem9FemMeshPy29staticCallback_getFacesByFaceEP7_objectS2_
Fem.so:_ZN3Fem9FemMeshPy29staticCallback_getNodesByEdgeEP7_objectS2_
Fem.so:_ZN3Fem9FemMeshPy29staticCallback_getNodesByFaceEP7_objectS2_
Fem.so:_ZN3Fem9FemMeshPy29staticCallback_getVolumeCountEP7_objectPv
Fem.so:_ZN3Fem9FemMeshPy29staticCallback_setVolumeCountEP7_objectS2_Pv
Fem.so:_ZN3Fem9FemMeshPy30staticCallback_getElementNodesEP7_objectS2_
Fem.so:_ZN3Fem9FemMeshPy30staticCallback_getNodesBySolidEP7_objectS2_
Fem.so:_ZN3Fem9FemMeshPy30staticCallback_getPolygonCountEP7_objectPv
Fem.so:_ZN3Fem9FemMeshPy30staticCallback_getPyramidCountEP7_objectPv
Fem.so:_ZN3Fem9FemMeshPy30staticCallback_getSubMeshCountEP7_objectPv
Fem.so:_ZN3Fem9FemMeshPy30staticCallback_setPolygonCountEP7_objectS2_Pv
Fem.so:_ZN3Fem9FemMeshPy30staticCallback_setPyramidCountEP7_objectS2_Pv
Fem.so:_ZN3Fem9FemMeshPy30staticCallback_setSubMeshCountEP7_objectS2_Pv
Fem.so:_ZN3Fem9FemMeshPy31staticCallback_getGroupElementsEP7_objectS2_
Fem.so:_ZN3Fem9FemMeshPy31staticCallback_getNodesByVertexEP7_objectS2_
Fem.so:_ZN3Fem9FemMeshPy31staticCallback_getTriangleCountEP7_objectPv
Fem.so:_ZN3Fem9FemMeshPy31staticCallback_getVolumesByFaceEP7_objectS2_
Fem.so:_ZN3Fem9FemMeshPy31staticCallback_setTriangleCountEP7_objectS2_Pv
Fem.so:_ZN3Fem9FemMeshPy33staticCallback_getIdByElementTypeEP7_objectS2_
Fem.so:_ZN3Fem9FemMeshPy33staticCallback_getPolyhedronCountEP7_objectPv
Fem.so:_ZN3Fem9FemMeshPy33staticCallback_getQuadrangleCountEP7_objectPv
Fem.so:_ZN3Fem9FemMeshPy33staticCallback_setPolyhedronCountEP7_objectS2_Pv
Fem.so:_ZN3Fem9FemMeshPy33staticCallback_setQuadrangleCountEP7_objectS2_Pv
Fem.so:_ZN3Fem9FemMeshPy34staticCallback_getGroupElementTypeEP7_objectS2_
Fem.so:_ZN3Fem9FemMeshPy34staticCallback_getccxVolumesByFaceEP7_objectS2_
Fem.so:_ZN3Fem9FemMeshPy36staticCallback_setStandardHypothesesEP7_objectS2_
Fem.so:_ZN3Fem9FemMeshPy4copyEP7_object
Fem.so:_ZN3Fem9FemMeshPy4readEP7_object
Fem.so:_ZN3Fem9FemMeshPy5_reprEv
Fem.so:_ZN3Fem9FemMeshPy5writeEP7_object
Fem.so:_ZN3Fem9FemMeshPy6PyInitEP7_objectS2_
Fem.so:_ZN3Fem9FemMeshPy6PyMakeEP11_typeobjectP7_objectS4_
Fem.so:_ZN3Fem9FemMeshPy7addEdgeEP7_object
Fem.so:_ZN3Fem9FemMeshPy7addFaceEP7_object
Fem.so:_ZN3Fem9FemMeshPy7addNodeEP7_object
Fem.so:_ZN3Fem9FemMeshPy7addQuadEP7_object
Fem.so:_ZN3Fem9FemMeshPy7computeEP7_object
Fem.so:_ZN3Fem9FemMeshPy8_getattrEPKc
Fem.so:_ZN3Fem9FemMeshPy8_setattrEPKcP7_object
Fem.so:_ZN3Fem9FemMeshPy8setShapeEP7_object
Fem.so:_ZN3Fem9FemMeshPy9addVolumeEP7_object
Fem.so:_ZN3Fem9FemMeshPyC1EPNS_7FemMeshEP11_typeobject
Fem.so:_ZN3Fem9FemMeshPyC2EPNS_7FemMeshEP11_typeobject
Fem.so:_ZN3Fem9FemMeshPyD0Ev
Fem.so:_ZN3Fem9FemMeshPyD1Ev
Fem.so:_ZN3Fem9FemMeshPyD2Ev
Fem.so:_ZNK2Py15ExtensionObjectIN3Fem9FemMeshPyEE7acceptsEP7_object
Fem.so:_ZNK2Py15ExtensionObjectIN4Part11TopoShapePyEE7acceptsEP7_object
Fem.so:_ZNK3App14FeaturePythonTIN3Fem10ConstraintEE15getPropertyDataEv
Fem.so:_ZNK3App14FeaturePythonTIN3Fem10ConstraintEE19getViewProviderNameEv
Fem.so:_ZNK3App14FeaturePythonTIN3Fem10ConstraintEE9getTypeIdEv
Fem.so:_ZNK3App14FeaturePythonTIN3Fem11FemAnalysisEE15getPropertyDataEv
Fem.so:_ZNK3App14FeaturePythonTIN3Fem11FemAnalysisEE19getViewProviderNameEv
Fem.so:_ZNK3App14FeaturePythonTIN3Fem11FemAnalysisEE9getTypeIdEv
Fem.so:_ZNK3App14FeaturePythonTIN3Fem13FemMeshObjectEE15getPropertyDataEv
Fem.so:_ZNK3App14FeaturePythonTIN3Fem13FemMeshObjectEE19getViewProviderNameEv
Fem.so:_ZNK3App14FeaturePythonTIN3Fem13FemMeshObjectEE9getTypeIdEv
Fem.so:_ZNK3App14FeaturePythonTIN3Fem14DocumentObjectEE15getPropertyDataEv
Fem.so:_ZNK3App14FeaturePythonTIN3Fem14DocumentObjectEE19getViewProviderNameEv
Fem.so:_ZNK3App14FeaturePythonTIN3Fem14DocumentObjectEE9getTypeIdEv
Fem.so:_ZNK3App14FeaturePythonTIN3Fem15FemResultObjectEE15getPropertyDataEv
Fem.so:_ZNK3App14FeaturePythonTIN3Fem15FemResultObjectEE19getViewProviderNameEv
Fem.so:_ZNK3App14FeaturePythonTIN3Fem15FemResultObjectEE9getTypeIdEv
Fem.so:_ZNK3App14FeaturePythonTIN3Fem15FemSolverObjectEE15getPropertyDataEv
Fem.so:_ZNK3App14FeaturePythonTIN3Fem15FemSolverObjectEE19getViewProviderNameEv
Fem.so:_ZNK3App14FeaturePythonTIN3Fem15FemSolverObjectEE9getTypeIdEv
Fem.so:_ZNK3Fem10Constraint11getCylinderERdS1_RN4Base7Vector3IdEES5_
Fem.so:_ZNK3Fem10Constraint15getPropertyDataEv
Fem.so:_ZNK3Fem10Constraint19calcDrawScaleFactorEd
Fem.so:_ZNK3Fem10Constraint19calcDrawScaleFactorEdd
Fem.so:_ZNK3Fem10Constraint19calcDrawScaleFactorEv
Fem.so:_ZNK3Fem10Constraint9getPointsERSt6vectorIN4Base7Vector3IdEESaIS4_EES7_Pi
Fem.so:_ZNK3Fem10Constraint9getTypeIdEv
Fem.so:_ZNK3Fem11FemAnalysis11mustExecuteEv
Fem.so:_ZNK3Fem11FemAnalysis15getPropertyDataEv
Fem.so:_ZNK3Fem11FemAnalysis9getTypeIdEv
Fem.so:_ZNK3Fem12FemSetObject11mustExecuteEv
Fem.so:_ZNK3Fem12FemSetObject15getPropertyDataEv
Fem.so:_ZNK3Fem12FemSetObject9getTypeIdEv
Fem.so:_ZNK3Fem13FemMeshObject11mustExecuteEv
Fem.so:_ZNK3Fem13FemMeshObject15getPropertyDataEv
Fem.so:_ZNK3Fem13FemMeshObject9getTypeIdEv
Fem.so:_ZNK3Fem13FemPostFilter15getPropertyDataEv
Fem.so:_ZNK3Fem13FemPostFilter9getTypeIdEv
Fem.so:_ZNK3Fem13FemPostObject15getPropertyDataEv
Fem.so:_ZNK3Fem13FemPostObject9getTypeIdEv
Fem.so:_ZNK3Fem14ConstraintGear15getPropertyDataEv
Fem.so:_ZNK3Fem14ConstraintGear9getTypeIdEv
Fem.so:_ZNK3Fem14DocumentObject15getPropertyDataEv
Fem.so:_ZNK3Fem14DocumentObject9getTypeIdEv
Fem.so:_ZNK3Fem15ConstraintFixed15getPropertyDataEv
Fem.so:_ZNK3Fem15ConstraintFixed9getTypeIdEv
Fem.so:_ZNK3Fem15ConstraintForce15getPropertyDataEv
Fem.so:_ZNK3Fem15ConstraintForce9getTypeIdEv
Fem.so:_ZNK3Fem15FemPostFunction15getPropertyDataEv
Fem.so:_ZNK3Fem15FemPostFunction9getTypeIdEv
Fem.so:_ZNK3Fem15FemPostPipeline11mustExecuteEv
Fem.so:_ZNK3Fem15FemPostPipeline15getPropertyDataEv
Fem.so:_ZNK3Fem15FemPostPipeline9getTypeIdEv
Fem.so:_ZNK3Fem15FemResultObject11mustExecuteEv
Fem.so:_ZNK3Fem15FemResultObject15getPropertyDataEv
Fem.so:_ZNK3Fem15FemResultObject9getTypeIdEv
Fem.so:_ZNK3Fem15FemSolverObject11mustExecuteEv
Fem.so:_ZNK3Fem15FemSolverObject15getPropertyDataEv
Fem.so:_ZNK3Fem15FemSolverObject9getTypeIdEv
Fem.so:_ZNK3Fem15PropertyFemMesh10getMemSizeEv
Fem.so:_ZNK3Fem15PropertyFemMesh11SaveDocFileERN4Base6WriterE
Fem.so:_ZNK3Fem15PropertyFemMesh14getBoundingBoxEv
Fem.so:_ZNK3Fem15PropertyFemMesh14getComplexDataEv
Fem.so:_ZNK3Fem15PropertyFemMesh4CopyEv
Fem.so:_ZNK3Fem15PropertyFemMesh4SaveERN4Base6WriterE
Fem.so:_ZNK3Fem15PropertyFemMesh8getValueEv
Fem.so:_ZNK3Fem15PropertyFemMesh9getTypeIdEv
Fem.so:_ZNK3Fem16ConstraintPulley15getPropertyDataEv
Fem.so:_ZNK3Fem16ConstraintPulley9getTypeIdEv
Fem.so:_ZNK3Fem16FemPostCutFilter11mustExecuteEv
Fem.so:_ZNK3Fem16FemPostCutFilter15getPropertyDataEv
Fem.so:_ZNK3Fem16FemPostCutFilter9getTypeIdEv
Fem.so:_ZNK3Fem17ConstraintBearing15getPropertyDataEv
Fem.so:_ZNK3Fem17ConstraintBearing9getTypeIdEv
Fem.so:_ZNK3Fem17ConstraintContact15getPropertyDataEv
Fem.so:_ZNK3Fem17ConstraintContact19getViewProviderNameEv
Fem.so:_ZNK3Fem17ConstraintContact9getTypeIdEv
Fem.so:_ZNK3Fem17FemPostClipFilter11mustExecuteEv
Fem.so:_ZNK3Fem17FemPostClipFilter15getPropertyDataEv
Fem.so:_ZNK3Fem17FemPostClipFilter9getTypeIdEv
Fem.so:_ZNK3Fem17FemPostPipelinePy14representationB5cxx11Ev
Fem.so:_ZNK3Fem17FemPostPipelinePy19getCustomAttributesEPKc
Fem.so:_ZNK3Fem17FemPostPipelinePy21getFemPostPipelinePtrEv
Fem.so:_ZNK3Fem17FemSetFacesObject11mustExecuteEv
Fem.so:_ZNK3Fem17FemSetFacesObject15getPropertyDataEv
Fem.so:_ZNK3Fem17FemSetFacesObject9getTypeIdEv
Fem.so:_ZNK3Fem17FemSetNodesObject11mustExecuteEv
Fem.so:_ZNK3Fem17FemSetNodesObject15getPropertyDataEv
Fem.so:_ZNK3Fem17FemSetNodesObject9getTypeIdEv
Fem.so:_ZNK3Fem18ConstraintHeatflux15getPropertyDataEv
Fem.so:_ZNK3Fem18ConstraintHeatflux19getViewProviderNameEv
Fem.so:_ZNK3Fem18ConstraintHeatflux9getTypeIdEv
Fem.so:_ZNK3Fem18ConstraintPressure15getPropertyDataEv
Fem.so:_ZNK3Fem18ConstraintPressure19getViewProviderNameEv
Fem.so:_ZNK3Fem18ConstraintPressure9getTypeIdEv
Fem.so:_ZNK3Fem18FemMeshShapeObject15getPropertyDataEv
Fem.so:_ZNK3Fem18FemMeshShapeObject9getTypeIdEv
Fem.so:_ZNK3Fem19ConstraintTransform15getPropertyDataEv
Fem.so:_ZNK3Fem19ConstraintTransform19getViewProviderNameEv
Fem.so:_ZNK3Fem19ConstraintTransform9getTypeIdEv
Fem.so:_ZNK3Fem20FemPostPlaneFunction15getPropertyDataEv
Fem.so:_ZNK3Fem20FemPostPlaneFunction9getTypeIdEv
Fem.so:_ZNK3Fem20FemSetElementsObject11mustExecuteEv
Fem.so:_ZNK3Fem20FemSetElementsObject15getPropertyDataEv
Fem.so:_ZNK3Fem20FemSetElementsObject9getTypeIdEv
Fem.so:_ZNK3Fem20FemSetGeometryObject11mustExecuteEv
Fem.so:_ZNK3Fem20FemSetGeometryObject15getPropertyDataEv
Fem.so:_ZNK3Fem20FemSetGeometryObject9getTypeIdEv
Fem.so:_ZNK3Fem21ConstraintTemperature15getPropertyDataEv
Fem.so:_ZNK3Fem21ConstraintTemperature19getViewProviderNameEv
Fem.so:_ZNK3Fem21ConstraintTemperature9getTypeIdEv
Fem.so:_ZNK3Fem21FemPostSphereFunction15getPropertyDataEv
Fem.so:_ZNK3Fem21FemPostSphereFunction9getTypeIdEv
Fem.so:_ZNK3Fem22ConstraintDisplacement15getPropertyDataEv
Fem.so:_ZNK3Fem22ConstraintDisplacement19getViewProviderNameEv
Fem.so:_ZNK3Fem22ConstraintDisplacement9getTypeIdEv
Fem.so:_ZNK3Fem22PropertyPostDataObject10getMemSizeEv
Fem.so:_ZNK3Fem22PropertyPostDataObject11SaveDocFileERN4Base6WriterE
Fem.so:_ZNK3Fem22PropertyPostDataObject4CopyEv
Fem.so:_ZNK3Fem22PropertyPostDataObject4SaveERN4Base6WriterE
Fem.so:_ZNK3Fem22PropertyPostDataObject8getPathsERSt6vectorIN3App16ObjectIdentifierESaIS3_EE
Fem.so:_ZNK3Fem22PropertyPostDataObject8getValueEv
Fem.so:_ZNK3Fem22PropertyPostDataObject9getTypeIdEv
Fem.so:_ZNK3Fem23ConstraintFluidBoundary15getPropertyDataEv
Fem.so:_ZNK3Fem23ConstraintFluidBoundary9getTypeIdEv
Fem.so:_ZNK3Fem23ConstraintPlaneRotation15getPropertyDataEv
Fem.so:_ZNK3Fem23ConstraintPlaneRotation19getViewProviderNameEv
Fem.so:_ZNK3Fem23ConstraintPlaneRotation9getTypeIdEv
Fem.so:_ZNK3Fem23FemPostFunctionProvider15getPropertyDataEv
Fem.so:_ZNK3Fem23FemPostFunctionProvider9getTypeIdEv
Fem.so:_ZNK3Fem23FemPostScalarClipFilter11mustExecuteEv
Fem.so:_ZNK3Fem23FemPostScalarClipFilter15getPropertyDataEv
Fem.so:_ZNK3Fem23FemPostScalarClipFilter9getTypeIdEv
Fem.so:_ZNK3Fem23FemPostWarpVectorFilter11mustExecuteEv
Fem.so:_ZNK3Fem23FemPostWarpVectorFilter15getPropertyDataEv
Fem.so:_ZNK3Fem23FemPostWarpVectorFilter9getTypeIdEv
Fem.so:_ZNK3Fem24FemMeshShapeNetgenObject15getPropertyDataEv
Fem.so:_ZNK3Fem24FemMeshShapeNetgenObject9getTypeIdEv
Fem.so:_ZNK3Fem24FemPostDataAtPointFilter11mustExecuteEv
Fem.so:_ZNK3Fem24FemPostDataAtPointFilter15getPropertyDataEv
Fem.so:_ZNK3Fem24FemPostDataAtPointFilter9getTypeIdEv
Fem.so:_ZNK3Fem26FemPostDataAlongLineFilter11mustExecuteEv
Fem.so:_ZNK3Fem26FemPostDataAlongLineFilter15getPropertyDataEv
Fem.so:_ZNK3Fem26FemPostDataAlongLineFilter9getTypeIdEv
Fem.so:_ZNK3Fem28ConstraintInitialTemperature15getPropertyDataEv
Fem.so:_ZNK3Fem28ConstraintInitialTemperature19getViewProviderNameEv
Fem.so:_ZNK3Fem28ConstraintInitialTemperature9getTypeIdEv
Fem.so:_ZNK3Fem7FemMesh10getMemSizeEv
Fem.so:_ZNK3Fem7FemMesh11SaveDocFileERN4Base6WriterE
Fem.so:_ZNK3Fem7FemMesh11getBoundBoxEv
Fem.so:_ZNK3Fem7FemMesh11writeABAQUSERKNSt7__cxx1112basic_stringIcSt11char_traitsIcESaIcEEEib
Fem.so:_ZNK3Fem7FemMesh12getEdgesOnlyEv
Fem.so:_ZNK3Fem7FemMesh12getFacesOnlyEv
Fem.so:_ZNK3Fem7FemMesh12getTransformEv
Fem.so:_ZNK3Fem7FemMesh13getSubElementEPKcm
Fem.so:_ZNK3Fem7FemMesh14getEdgesByEdgeB5cxx11ERK11TopoDS_Edge
Fem.so:_ZNK3Fem7FemMesh14getFacesByFaceB5cxx11ERK11TopoDS_Face
Fem.so:_ZNK3Fem7FemMesh14getNodesByEdgeERK11TopoDS_Edge
Fem.so:_ZNK3Fem7FemMesh14getNodesByFaceERK11TopoDS_Face
Fem.so:_ZNK3Fem7FemMesh15getElementNodesB5cxx11Ei
Fem.so:_ZNK3Fem7FemMesh15getElementTypesEv
Fem.so:_ZNK3Fem7FemMesh15getNodesBySolidERK12TopoDS_Solid
Fem.so:_ZNK3Fem7FemMesh15getSurfaceNodesElsf
Fem.so:_ZNK3Fem7FemMesh16countSubElementsEPKc
Fem.so:_ZNK3Fem7FemMesh16getNodesByVertexERK13TopoDS_Vertex
Fem.so:_ZNK3Fem7FemMesh16getVolumesByFaceB5cxx11ERK11TopoDS_Face
Fem.so:_ZNK3Fem7FemMesh19getccxVolumesByFaceERK11TopoDS_Face
Fem.so:_ZNK3Fem7FemMesh4SaveERN4Base6WriterE
Fem.so:_ZNK3Fem7FemMesh5writeEPKc
Fem.so:_ZNK3Fem7FemMesh7getInfoEv
Fem.so:_ZNK3Fem7FemMesh8getSMeshEv
Fem.so:_ZNK3Fem7FemMesh8writeZ88ERKNSt7__cxx1112basic_stringIcSt11char_traitsIcESaIcEEE
Fem.so:_ZNK3Fem7FemMesh9getTypeIdEv
Fem.so:_ZNK3Fem7FemMesh9getVolumeEv
Fem.so:_ZNK3Fem9FemMeshPy10getVolumesEv
Fem.so:_ZNK3Fem9FemMeshPy12getEdgeCountEv
Fem.so:_ZNK3Fem9FemMeshPy12getEdgesOnlyEv
Fem.so:_ZNK3Fem9FemMeshPy12getFaceCountEv
Fem.so:_ZNK3Fem9FemMeshPy12getFacesOnlyEv
Fem.so:_ZNK3Fem9FemMeshPy12getHexaCountEv
Fem.so:_ZNK3Fem9FemMeshPy12getNodeCountEv
Fem.so:_ZNK3Fem9FemMeshPy13getFemMeshPtrEv
Fem.so:_ZNK3Fem9FemMeshPy13getGroupCountEv
Fem.so:_ZNK3Fem9FemMeshPy13getPrismCountEv
Fem.so:_ZNK3Fem9FemMeshPy13getTetraCountEv
Fem.so:_ZNK3Fem9FemMeshPy14getVolumeCountEv
Fem.so:_ZNK3Fem9FemMeshPy14representationB5cxx11Ev
Fem.so:_ZNK3Fem9FemMeshPy15getPolygonCountEv
Fem.so:_ZNK3Fem9FemMeshPy15getPyramidCountEv
Fem.so:_ZNK3Fem9FemMeshPy15getSubMeshCountEv
Fem.so:_ZNK3Fem9FemMeshPy16getTriangleCountEv
Fem.so:_ZNK3Fem9FemMeshPy18getPolyhedronCountEv
Fem.so:_ZNK3Fem9FemMeshPy18getQuadrangleCountEv
Fem.so:_ZNK3Fem9FemMeshPy19getCustomAttributesEPKc
Fem.so:_ZNK3Fem9FemMeshPy8getEdgesEv
Fem.so:_ZNK3Fem9FemMeshPy8getFacesEv
Fem.so:_ZNK3Fem9FemMeshPy8getNodesEv
Fem.so:_ZNK3Fem9FemMeshPy9getGroupsEv
Fem.so:_ZNK3Fem9FemMeshPy9getVolumeEv
Fem.so:_ZThn448_N3Fem11FemAnalysisD0Ev
Fem.so:_ZThn448_N3Fem11FemAnalysisD1Ev
Fem.so:_ZThn8_N3Fem7FemMeshD0Ev
Fem.so:_ZThn8_N3Fem7FemMeshD1Ev
Fem.so:round
FemGui.so:PyInit_FemGui
FemGui.so:_Z11setupFilterPN3Gui7CommandENSt7__cxx1112basic_stringIcSt11char_traitsIcESaIcEEE
FemGui.so:_Z12initComboBoxP9QComboBoxRKSt6vectorINSt7__cxx1112basic_stringIcSt11char_traitsIcESaIcEEESaIS7_EERKS7_
FemGui.so:_Z15loadFemResourcev
FemGui.so:_Z17CreateFemCommandsv
FemGui.so:_Z18qInitResources_Femv
FemGui.so:_Z19DefineNodesCallbackPvP15SoEventCallback
FemGui.so:_Z21qCleanupResources_Femv
FemGui.so:_Z22gethideMeshShowPartStrNSt7__cxx1112basic_stringIcSt11char_traitsIcESaIcEEE
FemGui.so:_Z25getConstraintPrerequisitsPPN3Fem11FemAnalysisE
FemGui.so:_Z4PlotB5cxx11v
FemGui.so:_Z9calcColorddd
FemGui.so:_ZN13CmdFemAddPart8isActiveEv
FemGui.so:_ZN13CmdFemAddPart9activatedEi
FemGui.so:_ZN13CmdFemAddPartC1Ev
FemGui.so:_ZN13CmdFemAddPartC2Ev
FemGui.so:_ZN19CmdFemPostCutFilter8isActiveEv
FemGui.so:_ZN19CmdFemPostCutFilter9activatedEi
FemGui.so:_ZN19CmdFemPostCutFilterC1Ev
FemGui.so:_ZN19CmdFemPostCutFilterC2Ev
FemGui.so:_ZN19CmdFemPostFunctions12createActionEv
FemGui.so:_ZN19CmdFemPostFunctions14languageChangeEv
FemGui.so:_ZN19CmdFemPostFunctions8isActiveEv
FemGui.so:_ZN19CmdFemPostFunctions9activatedEi
FemGui.so:_ZN19CmdFemPostFunctionsC1Ev
FemGui.so:_ZN19CmdFemPostFunctionsC2Ev
FemGui.so:_ZN20CmdFemConstraintGear8isActiveEv
FemGui.so:_ZN20CmdFemConstraintGear9activatedEi
FemGui.so:_ZN20CmdFemConstraintGearC1Ev
FemGui.so:_ZN20CmdFemConstraintGearC2Ev
FemGui.so:_ZN20CmdFemCreateNodesSet8isActiveEv
FemGui.so:_ZN20CmdFemCreateNodesSet9activatedEi
FemGui.so:_ZN20CmdFemCreateNodesSetC1Ev
FemGui.so:_ZN20CmdFemCreateNodesSetC2Ev
FemGui.so:_ZN20CmdFemDefineNodesSet8isActiveEv
FemGui.so:_ZN20CmdFemDefineNodesSet9activatedEi
FemGui.so:_ZN20CmdFemDefineNodesSetC1Ev
FemGui.so:_ZN20CmdFemDefineNodesSetC2Ev
FemGui.so:_ZN20CmdFemPostClipFilter8isActiveEv
FemGui.so:_ZN20CmdFemPostClipFilter9activatedEi
FemGui.so:_ZN20CmdFemPostClipFilterC1Ev
FemGui.so:_ZN20CmdFemPostClipFilterC2Ev
FemGui.so:_ZN21CmdFemConstraintFixed8isActiveEv
FemGui.so:_ZN21CmdFemConstraintFixed9activatedEi
FemGui.so:_ZN21CmdFemConstraintFixedC1Ev
FemGui.so:_ZN21CmdFemConstraintFixedC2Ev
FemGui.so:_ZN21CmdFemConstraintForce8isActiveEv
FemGui.so:_ZN21CmdFemConstraintForce9activatedEi
FemGui.so:_ZN21CmdFemConstraintForceC1Ev
FemGui.so:_ZN21CmdFemConstraintForceC2Ev
FemGui.so:_ZN22CmdFemConstraintPulley8isActiveEv
FemGui.so:_ZN22CmdFemConstraintPulley9activatedEi
FemGui.so:_ZN22CmdFemConstraintPulleyC1Ev
FemGui.so:_ZN22CmdFemConstraintPulleyC2Ev
FemGui.so:_ZN22CmdFemPostApllyChanges12createActionEv
FemGui.so:_ZN22CmdFemPostApllyChanges8isActiveEv
FemGui.so:_ZN22CmdFemPostApllyChanges9activatedEi
FemGui.so:_ZN22CmdFemPostApllyChangesC1Ev
FemGui.so:_ZN22CmdFemPostApllyChangesC2Ev
FemGui.so:_ZN23CmdFemConstraintBearing8isActiveEv
FemGui.so:_ZN23CmdFemConstraintBearing9activatedEi
FemGui.so:_ZN23CmdFemConstraintBearingC1Ev
FemGui.so:_ZN23CmdFemConstraintBearingC2Ev
FemGui.so:_ZN23CmdFemConstraintContact8isActiveEv
FemGui.so:_ZN23CmdFemConstraintContact9activatedEi
FemGui.so:_ZN23CmdFemConstraintContactC1Ev
FemGui.so:_ZN23CmdFemConstraintContactC2Ev
FemGui.so:_ZN24CmdFemConstraintHeatflux8isActiveEv
FemGui.so:_ZN24CmdFemConstraintHeatflux9activatedEi
FemGui.so:_ZN24CmdFemConstraintHeatfluxC1Ev
FemGui.so:_ZN24CmdFemConstraintHeatfluxC2Ev
FemGui.so:_ZN24CmdFemConstraintPressure8isActiveEv
FemGui.so:_ZN24CmdFemConstraintPressure9activatedEi
FemGui.so:_ZN24CmdFemConstraintPressureC1Ev
FemGui.so:_ZN24CmdFemConstraintPressureC2Ev
FemGui.so:_ZN25CmdFemConstraintTransform8isActiveEv
FemGui.so:_ZN25CmdFemConstraintTransform9activatedEi
FemGui.so:_ZN25CmdFemConstraintTransformC1Ev
FemGui.so:_ZN25CmdFemConstraintTransformC2Ev
FemGui.so:_ZN26CmdFemPostScalarClipFilter8isActiveEv
FemGui.so:_ZN26CmdFemPostScalarClipFilter9activatedEi
FemGui.so:_ZN26CmdFemPostScalarClipFilterC1Ev
FemGui.so:_ZN26CmdFemPostScalarClipFilterC2Ev
FemGui.so:_ZN26CmdFemPostWarpVectorFilter8isActiveEv
FemGui.so:_ZN26CmdFemPostWarpVectorFilter9activatedEi
FemGui.so:_ZN26CmdFemPostWarpVectorFilterC1Ev
FemGui.so:_ZN26CmdFemPostWarpVectorFilterC2Ev
FemGui.so:_ZN27CmdFemConstraintTemperature8isActiveEv
FemGui.so:_ZN27CmdFemConstraintTemperature9activatedEi
FemGui.so:_ZN27CmdFemConstraintTemperatureC1Ev
FemGui.so:_ZN27CmdFemConstraintTemperatureC2Ev
FemGui.so:_ZN27CmdFemPostDataAtPointFilter8isActiveEv
FemGui.so:_ZN27CmdFemPostDataAtPointFilter9activatedEi
FemGui.so:_ZN27CmdFemPostDataAtPointFilterC1Ev
FemGui.so:_ZN27CmdFemPostDataAtPointFilterC2Ev
FemGui.so:_ZN28CmdFemConstraintDisplacement8isActiveEv
FemGui.so:_ZN28CmdFemConstraintDisplacement9activatedEi
FemGui.so:_ZN28CmdFemConstraintDisplacementC1Ev
FemGui.so:_ZN28CmdFemConstraintDisplacementC2Ev
FemGui.so:_ZN28CmdFemPostPipelineFromResult8isActiveEv
FemGui.so:_ZN28CmdFemPostPipelineFromResult9activatedEi
FemGui.so:_ZN28CmdFemPostPipelineFromResultC1Ev
FemGui.so:_ZN28CmdFemPostPipelineFromResultC2Ev
FemGui.so:_ZN29CmdFemConstraintFluidBoundary8isActiveEv
FemGui.so:_ZN29CmdFemConstraintFluidBoundary9activatedEi
FemGui.so:_ZN29CmdFemConstraintFluidBoundaryC1Ev
FemGui.so:_ZN29CmdFemConstraintFluidBoundaryC2Ev
FemGui.so:_ZN29CmdFemConstraintPlaneRotation8isActiveEv
FemGui.so:_ZN29CmdFemConstraintPlaneRotation9activatedEi
FemGui.so:_ZN29CmdFemConstraintPlaneRotationC1Ev
FemGui.so:_ZN29CmdFemConstraintPlaneRotationC2Ev
FemGui.so:_ZN29CmdFemPostDataAlongLineFilter8isActiveEv
FemGui.so:_ZN29CmdFemPostDataAlongLineFilter9activatedEi
FemGui.so:_ZN29CmdFemPostDataAlongLineFilterC1Ev
FemGui.so:_ZN29CmdFemPostDataAlongLineFilterC2Ev
FemGui.so:_ZN34CmdFemConstraintInitialTemperature8isActiveEv
FemGui.so:_ZN34CmdFemConstraintInitialTemperature9activatedEi
FemGui.so:_ZN34CmdFemConstraintInitialTemperatureC1Ev
FemGui.so:_ZN34CmdFemConstraintInitialTemperatureC2Ev
FemGui.so:_ZN34CmdFemPostLinearizedStressesFilter8isActiveEv
FemGui.so:_ZN34CmdFemPostLinearizedStressesFilter9activatedEi
FemGui.so:_ZN34CmdFemPostLinearizedStressesFilterC1Ev
FemGui.so:_ZN34CmdFemPostLinearizedStressesFilterC2Ev
FemGui.so:_ZN3Gui26ViewProviderPythonFeatureTIN6FemGui18ViewProviderResultEE14getClassTypeIdEv
FemGui.so:_ZN3Gui26ViewProviderPythonFeatureTIN6FemGui18ViewProviderResultEE18getPropertyDataPtrEv
FemGui.so:_ZN3Gui26ViewProviderPythonFeatureTIN6FemGui18ViewProviderResultEE4initEv
FemGui.so:_ZN3Gui26ViewProviderPythonFeatureTIN6FemGui18ViewProviderResultEE6createEv
FemGui.so:_ZN3Gui26ViewProviderPythonFeatureTIN6FemGui18ViewProviderSolverEE14getClassTypeIdEv
FemGui.so:_ZN3Gui26ViewProviderPythonFeatureTIN6FemGui18ViewProviderSolverEE18getPropertyDataPtrEv
FemGui.so:_ZN3Gui26ViewProviderPythonFeatureTIN6FemGui18ViewProviderSolverEE4initEv
FemGui.so:_ZN3Gui26ViewProviderPythonFeatureTIN6FemGui18ViewProviderSolverEE6createEv
FemGui.so:_ZN3Gui26ViewProviderPythonFeatureTIN6FemGui19ViewProviderFemMeshEE14getClassTypeIdEv
FemGui.so:_ZN3Gui26ViewProviderPythonFeatureTIN6FemGui19ViewProviderFemMeshEE18getPropertyDataPtrEv
FemGui.so:_ZN3Gui26ViewProviderPythonFeatureTIN6FemGui19ViewProviderFemMeshEE4initEv
FemGui.so:_ZN3Gui26ViewProviderPythonFeatureTIN6FemGui19ViewProviderFemMeshEE6createEv
FemGui.so:_ZN3Gui26ViewProviderPythonFeatureTIN6FemGui23ViewProviderFemAnalysisEE14getClassTypeIdEv
FemGui.so:_ZN3Gui26ViewProviderPythonFeatureTIN6FemGui23ViewProviderFemAnalysisEE18getPropertyDataPtrEv
FemGui.so:_ZN3Gui26ViewProviderPythonFeatureTIN6FemGui23ViewProviderFemAnalysisEE4initEv
FemGui.so:_ZN3Gui26ViewProviderPythonFeatureTIN6FemGui23ViewProviderFemAnalysisEE6createEv
FemGui.so:_ZN3Gui26ViewProviderPythonFeatureTIN6FemGui25ViewProviderFemConstraintEE14getClassTypeIdEv
FemGui.so:_ZN3Gui26ViewProviderPythonFeatureTIN6FemGui25ViewProviderFemConstraintEE18getPropertyDataPtrEv
FemGui.so:_ZN3Gui26ViewProviderPythonFeatureTIN6FemGui25ViewProviderFemConstraintEE4initEv
FemGui.so:_ZN3Gui26ViewProviderPythonFeatureTIN6FemGui25ViewProviderFemConstraintEE6createEv
FemGui.so:_ZN6FemGui10DataMarker11customEventEP6QEvent
FemGui.so:_ZN6FemGui10DataMarker11qt_metacallEN11QMetaObject4CallEiPPv
FemGui.so:_ZN6FemGui10DataMarker11qt_metacastEPKc
FemGui.so:_ZN6FemGui10DataMarker13PointsChangedEddd
FemGui.so:_ZN6FemGui10DataMarker15ObjectInvisibleB5cxx11Ev
FemGui.so:_ZN6FemGui10DataMarker8addPointERK7SbVec3f
FemGui.so:_ZN6FemGui10DataMarkerC1EPN3Gui20View3DInventorViewerENSt7__cxx1112basic_stringIcSt11char_traitsIcESaIcEEE
FemGui.so:_ZN6FemGui10DataMarkerC2EPN3Gui20View3DInventorViewerENSt7__cxx1112basic_stringIcSt11char_traitsIcESaIcEEE
FemGui.so:_ZN6FemGui10DataMarkerD0Ev
FemGui.so:_ZN6FemGui10DataMarkerD1Ev
FemGui.so:_ZN6FemGui10DataMarkerD2Ev
FemGui.so:_ZN6FemGui10TaskDriver11qt_metacallEN11QMetaObject4CallEiPPv
FemGui.so:_ZN6FemGui10TaskDriver11qt_metacastEPKc
FemGui.so:_ZN6FemGui10TaskDriver12SwitchMethodEi
FemGui.so:_ZN6FemGui10TaskDriverC1EPN3Fem11FemAnalysisEP7QWidget
FemGui.so:_ZN6FemGui10TaskDriverC2EPN3Fem11FemAnalysisEP7QWidget
FemGui.so:_ZN6FemGui10TaskDriverD0Ev
FemGui.so:_ZN6FemGui10TaskDriverD1Ev
FemGui.so:_ZN6FemGui10TaskDriverD2Ev
FemGui.so:_ZN6FemGui10initModuleEv
FemGui.so:_ZN6FemGui11PlaneWidget11qt_metacallEN11QMetaObject4CallEiPPv
FemGui.so:_ZN6FemGui11PlaneWidget11qt_metacastEPKc
FemGui.so:_ZN6FemGui11PlaneWidget13normalChangedEd
FemGui.so:_ZN6FemGui11PlaneWidget13originChangedEd
FemGui.so:_ZN6FemGui11PlaneWidget15applyPythonCodeEv
FemGui.so:_ZN6FemGui11PlaneWidget15setViewProviderEPNS_27ViewProviderFemPostFunctionE
FemGui.so:_ZN6FemGui11PlaneWidget8onChangeERKN3App8PropertyE
FemGui.so:_ZN6FemGui11PlaneWidgetC1Ev
FemGui.so:_ZN6FemGui11PlaneWidgetC2Ev
FemGui.so:_ZN6FemGui11PlaneWidgetD0Ev
FemGui.so:_ZN6FemGui11PlaneWidgetD1Ev
FemGui.so:_ZN6FemGui11PlaneWidgetD2Ev
FemGui.so:_ZN6FemGui11PointMarker11customEventEP6QEvent
FemGui.so:_ZN6FemGui11PointMarker11qt_metacallEN11QMetaObject4CallEiPPv
FemGui.so:_ZN6FemGui11PointMarker11qt_metacastEPKc
FemGui.so:_ZN6FemGui11PointMarker13PointsChangedEdddddd
FemGui.so:_ZN6FemGui11PointMarker15ObjectInvisibleB5cxx11Ev
FemGui.so:_ZN6FemGui11PointMarker8addPointERK7SbVec3f
FemGui.so:_ZN6FemGui11PointMarkerC1EPN3Gui20View3DInventorViewerENSt7__cxx1112basic_stringIcSt11char_traitsIcESaIcEEE
FemGui.so:_ZN6FemGui11PointMarkerC2EPN3Gui20View3DInventorViewerENSt7__cxx1112basic_stringIcSt11char_traitsIcESaIcEEE
FemGui.so:_ZN6FemGui11PointMarkerD0Ev
FemGui.so:_ZN6FemGui11PointMarkerD1Ev
FemGui.so:_ZN6FemGui11PointMarkerD2Ev
FemGui.so:_ZN6FemGui11TaskDlgPost11qt_metacallEN11QMetaObject4CallEiPPv
FemGui.so:_ZN6FemGui11TaskDlgPost11qt_metacastEPKc
FemGui.so:_ZN6FemGui11TaskDlgPost21modifyStandardButtonsEP16QDialogButtonBox
FemGui.so:_ZN6FemGui11TaskDlgPost4openEv
FemGui.so:_ZN6FemGui11TaskDlgPost6acceptEv
FemGui.so:_ZN6FemGui11TaskDlgPost6rejectEv
FemGui.so:_ZN6FemGui11TaskDlgPost7clickedEi
FemGui.so:_ZN6FemGui11TaskDlgPost9appendBoxEPNS_11TaskPostBoxE
FemGui.so:_ZN6FemGui11TaskDlgPostC1EPN3Gui26ViewProviderDocumentObjectE
FemGui.so:_ZN6FemGui11TaskDlgPostC2EPN3Gui26ViewProviderDocumentObjectE
FemGui.so:_ZN6FemGui11TaskDlgPostD0Ev
FemGui.so:_ZN6FemGui11TaskDlgPostD1Ev
FemGui.so:_ZN6FemGui11TaskDlgPostD2Ev
FemGui.so:_ZN6FemGui11TaskPostBox11qt_metacallEN11QMetaObject4CallEiPPv
FemGui.so:_ZN6FemGui11TaskPostBox11qt_metacastEPKc
FemGui.so:_ZN6FemGui11TaskPostBox21updateEnumerationListERN3App19PropertyEnumerationEP9QComboBox
FemGui.so:_ZN6FemGui11TaskPostBox9autoApplyEv
FemGui.so:_ZN6FemGui11TaskPostBox9recomputeEv
FemGui.so:_ZN6FemGui11TaskPostBoxC1EPN3Gui26ViewProviderDocumentObjectERK7QPixmapRK7QStringP7QWidget
FemGui.so:_ZN6FemGui11TaskPostBoxC2EPN3Gui26ViewProviderDocumentObjectERK7QPixmapRK7QStringP7QWidget
FemGui.so:_ZN6FemGui11TaskPostBoxD0Ev
FemGui.so:_ZN6FemGui11TaskPostBoxD1Ev
FemGui.so:_ZN6FemGui11TaskPostBoxD2Ev
FemGui.so:_ZN6FemGui11TaskPostCut11qt_metacallEN11QMetaObject4CallEiPPv
FemGui.so:_ZN6FemGui11TaskPostCut11qt_metacastEPKc
FemGui.so:_ZN6FemGui11TaskPostCut15applyPythonCodeEv
FemGui.so:_ZN6FemGui11TaskPostCut24collectImplicitFunctionsEv
FemGui.so:_ZN6FemGui11TaskPostCut25on_CreateButton_triggeredEP7QAction
FemGui.so:_ZN6FemGui11TaskPostCut34on_FunctionBox_currentIndexChangedEi
FemGui.so:_ZN6FemGui11TaskPostCutC1EPN3Gui26ViewProviderDocumentObjectEPN3App12PropertyLinkEP7QWidget
FemGui.so:_ZN6FemGui11TaskPostCutC2EPN3Gui26ViewProviderDocumentObjectEPN3App12PropertyLinkEP7QWidget
FemGui.so:_ZN6FemGui11TaskPostCutD0Ev
FemGui.so:_ZN6FemGui11TaskPostCutD1Ev
FemGui.so:_ZN6FemGui11TaskPostCutD2Ev
FemGui.so:_ZN6FemGui12SphereWidget11qt_metacallEN11QMetaObject4CallEiPPv
FemGui.so:_ZN6FemGui12SphereWidget11qt_metacastEPKc
FemGui.so:_ZN6FemGui12SphereWidget13centerChangedEd
FemGui.so:_ZN6FemGui12SphereWidget13radiusChangedEd
FemGui.so:_ZN6FemGui12SphereWidget15applyPythonCodeEv
FemGui.so:_ZN6FemGui12SphereWidget15setViewProviderEPNS_27ViewProviderFemPostFunctionE
FemGui.so:_ZN6FemGui12SphereWidget8onChangeERKN3App8PropertyE
FemGui.so:_ZN6FemGui12SphereWidgetC1Ev
FemGui.so:_ZN6FemGui12SphereWidgetC2Ev
FemGui.so:_ZN6FemGui12SphereWidgetD0Ev
FemGui.so:_ZN6FemGui12SphereWidgetD1Ev
FemGui.so:_ZN6FemGui12SphereWidgetD2Ev
FemGui.so:_ZN6FemGui12TaskPostClip11qt_metacallEN11QMetaObject4CallEiPPv
FemGui.so:_ZN6FemGui12TaskPostClip11qt_metacastEPKc
FemGui.so:_ZN6FemGui12TaskPostClip15applyPythonCodeEv
FemGui.so:_ZN6FemGui12TaskPostClip19on_CutCells_toggledEb
FemGui.so:_ZN6FemGui12TaskPostClip20on_InsideOut_toggledEb
FemGui.so:_ZN6FemGui12TaskPostClip24collectImplicitFunctionsEv
FemGui.so:_ZN6FemGui12TaskPostClip25on_CreateButton_triggeredEP7QAction
FemGui.so:_ZN6FemGui12TaskPostClip34on_FunctionBox_currentIndexChangedEi
FemGui.so:_ZN6FemGui12TaskPostClipC1EPN3Gui26ViewProviderDocumentObjectEPN3App12PropertyLinkEP7QWidget
FemGui.so:_ZN6FemGui12TaskPostClipC2EPN3Gui26ViewProviderDocumentObjectEPN3App12PropertyLinkEP7QWidget
FemGui.so:_ZN6FemGui12TaskPostClipD0Ev
FemGui.so:_ZN6FemGui12TaskPostClipD1Ev
FemGui.so:_ZN6FemGui12TaskPostClipD2Ev
FemGui.so:_ZN6FemGui14FunctionWidget11qt_metacallEN11QMetaObject4CallEiPPv
FemGui.so:_ZN6FemGui14FunctionWidget11qt_metacastEPKc
FemGui.so:_ZN6FemGui14FunctionWidget15setViewProviderEPNS_27ViewProviderFemPostFunctionE
FemGui.so:_ZN6FemGui14FunctionWidget16onObjectsChangedERKN3App14DocumentObjectERKNS1_8PropertyE
FemGui.so:_ZN6FemGui14TaskObjectName11TextChangedERK7QString
FemGui.so:_ZN6FemGui14TaskObjectName11qt_metacallEN11QMetaObject4CallEiPPv
FemGui.so:_ZN6FemGui14TaskObjectName11qt_metacastEPKc
FemGui.so:_ZN6FemGui14TaskObjectNameC1EPN3App14DocumentObjectEP7QWidget
FemGui.so:_ZN6FemGui14TaskObjectNameC2EPN3App14DocumentObjectEP7QWidget
FemGui.so:_ZN6FemGui14TaskObjectNameD0Ev
FemGui.so:_ZN6FemGui14TaskObjectNameD1Ev
FemGui.so:_ZN6FemGui14TaskObjectNameD2Ev
FemGui.so:_ZN6FemGui15TaskDlgAnalysis11qt_metacallEN11QMetaObject4CallEiPPv
FemGui.so:_ZN6FemGui15TaskDlgAnalysis11qt_metacastEPKc
FemGui.so:_ZN6FemGui15TaskDlgAnalysis13helpRequestedEv
FemGui.so:_ZN6FemGui15TaskDlgAnalysis4openEv
FemGui.so:_ZN6FemGui15TaskDlgAnalysis6acceptEv
FemGui.so:_ZN6FemGui15TaskDlgAnalysis6rejectEv
FemGui.so:_ZN6FemGui15TaskDlgAnalysisC1EPN3Fem11FemAnalysisE
FemGui.so:_ZN6FemGui15TaskDlgAnalysisC2EPN3Fem11FemAnalysisE
FemGui.so:_ZN6FemGui15TaskDlgAnalysisD0Ev
FemGui.so:_ZN6FemGui15TaskDlgAnalysisD1Ev
FemGui.so:_ZN6FemGui15TaskDlgAnalysisD2Ev
FemGui.so:_ZN6FemGui15TaskPostDisplay11qt_metacallEN11QMetaObject4CallEiPPv
FemGui.so:_ZN6FemGui15TaskPostDisplay11qt_metacastEPKc
FemGui.so:_ZN6FemGui15TaskPostDisplay15applyPythonCodeEv
FemGui.so:_ZN6FemGui15TaskPostDisplay18on_Field_activatedEi
FemGui.so:_ZN6FemGui15TaskPostDisplay23on_VectorMode_activatedEi
FemGui.so:_ZN6FemGui15TaskPostDisplay27on_Representation_activatedEi
FemGui.so:_ZN6FemGui15TaskPostDisplay28on_Transparency_valueChangedEi
FemGui.so:_ZN6FemGui15TaskPostDisplayC1EPN3Gui26ViewProviderDocumentObjectEP7QWidget
FemGui.so:_ZN6FemGui15TaskPostDisplayC2EPN3Gui26ViewProviderDocumentObjectEP7QWidget
FemGui.so:_ZN6FemGui15TaskPostDisplayD0Ev
FemGui.so:_ZN6FemGui15TaskPostDisplayD1Ev
FemGui.so:_ZN6FemGui15TaskPostDisplayD2Ev
FemGui.so:_ZN6FemGui16FemSelectionGate5allowEPN3App8DocumentEPNS1_14DocumentObjectEPKc
FemGui.so:_ZN6FemGui16TaskAnalysisInfo11qt_metacallEN11QMetaObject4CallEiPPv
FemGui.so:_ZN6FemGui16TaskAnalysisInfo11qt_metacastEPKc
FemGui.so:_ZN6FemGui16TaskAnalysisInfo12SwitchMethodEi
FemGui.so:_ZN6FemGui16TaskAnalysisInfoC1EPN3Fem11FemAnalysisEP7QWidget
FemGui.so:_ZN6FemGui16TaskAnalysisInfoC2EPN3Fem11FemAnalysisEP7QWidget
FemGui.so:_ZN6FemGui16TaskAnalysisInfoD0Ev
FemGui.so:_ZN6FemGui16TaskAnalysisInfoD1Ev
FemGui.so:_ZN6FemGui16TaskAnalysisInfoD2Ev
FemGui.so:_ZN6FemGui16TaskPostFunction11qt_metacallEN11QMetaObject4CallEiPPv
FemGui.so:_ZN6FemGui16TaskPostFunction11qt_metacastEPKc
FemGui.so:_ZN6FemGui16TaskPostFunction15applyPythonCodeEv
FemGui.so:_ZN6FemGui16TaskPostFunctionC1EPN3Gui26ViewProviderDocumentObjectEP7QWidget
FemGui.so:_ZN6FemGui16TaskPostFunctionC2EPN3Gui26ViewProviderDocumentObjectEP7QWidget
FemGui.so:_ZN6FemGui16TaskPostFunctionD0Ev
FemGui.so:_ZN6FemGui16TaskPostFunctionD1Ev
FemGui.so:_ZN6FemGui16TaskPostFunctionD2Ev
FemGui.so:_ZN6FemGui16TaskTetParameter10setQuadricEi
FemGui.so:_ZN6FemGui16TaskTetParameter11qt_metacallEN11QMetaObject4CallEiPPv
FemGui.so:_ZN6FemGui16TaskTetParameter11qt_metacastEPKc
FemGui.so:_ZN6FemGui16TaskTetParameter11setOptimizeEi
FemGui.so:_ZN6FemGui16TaskTetParameter12SwitchMethodEi
FemGui.so:_ZN6FemGui16TaskTetParameter13setGrowthRateEd
FemGui.so:_ZN6FemGui16TaskTetParameter14setSegsPerEdgeEi
FemGui.so:_ZN6FemGui16TaskTetParameter16setSegsPerRadiusEi
FemGui.so:_ZN6FemGui16TaskTetParameter19maxSizeValueChangedEd
FemGui.so:_ZN6FemGui16TaskTetParameter7setInfoEv
FemGui.so:_ZN6FemGui16TaskTetParameterC1EPN3Fem24FemMeshShapeNetgenObjectEP7QWidget
FemGui.so:_ZN6FemGui16TaskTetParameterC2EPN3Fem24FemMeshShapeNetgenObjectEP7QWidget
FemGui.so:_ZN6FemGui16TaskTetParameterD0Ev
FemGui.so:_ZN6FemGui16TaskTetParameterD1Ev
FemGui.so:_ZN6FemGui16TaskTetParameterD2Ev
FemGui.so:_ZN6FemGui17AbaqusHighlighter14highlightBlockERK7QString
FemGui.so:_ZN6FemGui17AbaqusHighlighterC1EP7QObject
FemGui.so:_ZN6FemGui17AbaqusHighlighterC2EP7QObject
FemGui.so:_ZN6FemGui17AbaqusHighlighterD0Ev
FemGui.so:_ZN6FemGui17AbaqusHighlighterD1Ev
FemGui.so:_ZN6FemGui17AbaqusHighlighterD2Ev
FemGui.so:_ZN6FemGui17TaskCreateNodeSet11DefineNodesERKN4Base9Polygon2dERKN3Gui20ViewVolumeProjectionEb
FemGui.so:_ZN6FemGui17TaskCreateNodeSet11qt_metacallEN11QMetaObject4CallEiPPv
FemGui.so:_ZN6FemGui17TaskCreateNodeSet11qt_metacastEPKc
FemGui.so:_ZN6FemGui17TaskCreateNodeSet12SwitchMethodEi
FemGui.so:_ZN6FemGui17TaskCreateNodeSet18onSelectionChangedERKN3Gui16SelectionChangesE
FemGui.so:_ZN6FemGui17TaskCreateNodeSet19DefineNodesCallbackEPvP15SoEventCallback
FemGui.so:_ZN6FemGui17TaskCreateNodeSet4PickEv
FemGui.so:_ZN6FemGui17TaskCreateNodeSet4PolyEv
FemGui.so:_ZN6FemGui17TaskCreateNodeSetC1EPN3Fem17FemSetNodesObjectEP7QWidget
FemGui.so:_ZN6FemGui17TaskCreateNodeSetC2EPN3Fem17FemSetNodesObjectEP7QWidget
FemGui.so:_ZN6FemGui17TaskCreateNodeSetD0Ev
FemGui.so:_ZN6FemGui17TaskCreateNodeSetD1Ev
FemGui.so:_ZN6FemGui17TaskCreateNodeSetD2Ev
FemGui.so:_ZN6FemGui17TaskFemConstraint11qt_metacallEN11QMetaObject4CallEiPPv
FemGui.so:_ZN6FemGui17TaskFemConstraint11qt_metacastEPKc
FemGui.so:_ZN6FemGui17TaskFemConstraint13keyPressEventEP9QKeyEvent
FemGui.so:_ZN6FemGui17TaskFemConstraint13onButtonWizOkEv
FemGui.so:_ZN6FemGui17TaskFemConstraint17onButtonReferenceEb
FemGui.so:_ZN6FemGui17TaskFemConstraint17onButtonWizCancelEv
FemGui.so:_ZN6FemGui17TaskFemConstraint18onReferenceDeletedEi
FemGui.so:_ZN6FemGui17TaskFemConstraintC1EPNS_25ViewProviderFemConstraintEP7QWidgetPKc
FemGui.so:_ZN6FemGui17TaskFemConstraintC2EPNS_25ViewProviderFemConstraintEP7QWidgetPKc
FemGui.so:_ZN6FemGui18TaskPostScalarClip11qt_metacallEN11QMetaObject4CallEiPPv
FemGui.so:_ZN6FemGui18TaskPostScalarClip11qt_metacastEPKc
FemGui.so:_ZN6FemGui18TaskPostScalarClip15applyPythonCodeEv
FemGui.so:_ZN6FemGui18TaskPostScalarClip20on_InsideOut_toggledEb
FemGui.so:_ZN6FemGui18TaskPostScalarClip21on_Value_valueChangedEd
FemGui.so:_ZN6FemGui18TaskPostScalarClip22on_Slider_valueChangedEi
FemGui.so:_ZN6FemGui18TaskPostScalarClip29on_Scalar_currentIndexChangedEi
FemGui.so:_ZN6FemGui18TaskPostScalarClipC1EPN3Gui26ViewProviderDocumentObjectEP7QWidget
FemGui.so:_ZN6FemGui18TaskPostScalarClipC2EPN3Gui26ViewProviderDocumentObjectEP7QWidget
FemGui.so:_ZN6FemGui18TaskPostScalarClipD0Ev
FemGui.so:_ZN6FemGui18TaskPostScalarClipD1Ev
FemGui.so:_ZN6FemGui18TaskPostScalarClipD2Ev
FemGui.so:_ZN6FemGui18TaskPostWarpVector11qt_metacallEN11QMetaObject4CallEiPPv
FemGui.so:_ZN6FemGui18TaskPostWarpVector11qt_metacastEPKc
FemGui.so:_ZN6FemGui18TaskPostWarpVector15applyPythonCodeEv
FemGui.so:_ZN6FemGui18TaskPostWarpVector19on_Max_valueChangedEd
FemGui.so:_ZN6FemGui18TaskPostWarpVector19on_Min_valueChangedEd
FemGui.so:_ZN6FemGui18TaskPostWarpVector21on_Value_valueChangedEd
FemGui.so:_ZN6FemGui18TaskPostWarpVector22on_Slider_valueChangedEi
FemGui.so:_ZN6FemGui18TaskPostWarpVector29on_Vector_currentIndexChangedEi
FemGui.so:_ZN6FemGui18TaskPostWarpVectorC1EPN3Gui26ViewProviderDocumentObjectEP7QWidget
FemGui.so:_ZN6FemGui18TaskPostWarpVectorC2EPN3Gui26ViewProviderDocumentObjectEP7QWidget
FemGui.so:_ZN6FemGui18TaskPostWarpVectorD0Ev
FemGui.so:_ZN6FemGui18TaskPostWarpVectorD1Ev
FemGui.so:_ZN6FemGui18TaskPostWarpVectorD2Ev
FemGui.so:_ZN6FemGui18ViewProviderResult14getClassTypeIdEv
FemGui.so:_ZN6FemGui18ViewProviderResult18getPropertyDataPtrEv
FemGui.so:_ZN6FemGui18ViewProviderResult4initEv
FemGui.so:_ZN6FemGui18ViewProviderResult6createEv
FemGui.so:_ZN6FemGui18ViewProviderResultC1Ev
FemGui.so:_ZN6FemGui18ViewProviderResultC2Ev
FemGui.so:_ZN6FemGui18ViewProviderResultD0Ev
FemGui.so:_ZN6FemGui18ViewProviderResultD1Ev
FemGui.so:_ZN6FemGui18ViewProviderResultD2Ev
FemGui.so:_ZN6FemGui18ViewProviderSolver14getClassTypeIdEv
FemGui.so:_ZN6FemGui18ViewProviderSolver18getPropertyDataPtrEv
FemGui.so:_ZN6FemGui18ViewProviderSolver4initEv
FemGui.so:_ZN6FemGui18ViewProviderSolver6createEv
FemGui.so:_ZN6FemGui18ViewProviderSolverC1Ev
FemGui.so:_ZN6FemGui18ViewProviderSolverC2Ev
FemGui.so:_ZN6FemGui18ViewProviderSolverD0Ev
FemGui.so:_ZN6FemGui18ViewProviderSolverD1Ev
FemGui.so:_ZN6FemGui18ViewProviderSolverD2Ev
FemGui.so:_ZN6FemGui19PropertyFemMeshItem10initializeEv
FemGui.so:_ZN6FemGui19PropertyFemMeshItem11qt_metacallEN11QMetaObject4CallEiPPv
FemGui.so:_ZN6FemGui19PropertyFemMeshItem11qt_metacastEPKc
FemGui.so:_ZN6FemGui19PropertyFemMeshItem4initEv
FemGui.so:_ZN6FemGui19PropertyFemMeshItem6createEv
FemGui.so:_ZN6FemGui19PropertyFemMeshItem8setValueERK8QVariant
FemGui.so:_ZN6FemGui19PropertyFemMeshItemC1Ev
FemGui.so:_ZN6FemGui19PropertyFemMeshItemC2Ev
FemGui.so:_ZN6FemGui19TaskPostDataAtPoint11qt_metacallEN11QMetaObject4CallEiPPv
FemGui.so:_ZN6FemGui19TaskPostDataAtPoint11qt_metacastEPKc
FemGui.so:_ZN6FemGui19TaskPostDataAtPoint13ObjectVisibleB5cxx11Ev
FemGui.so:_ZN6FemGui19TaskPostDataAtPoint13centerChangedEd
FemGui.so:_ZN6FemGui19TaskPostDataAtPoint13pointCallbackEPvP15SoEventCallback
FemGui.so:_ZN6FemGui19TaskPostDataAtPoint15applyPythonCodeEv
FemGui.so:_ZN6FemGui19TaskPostDataAtPoint18on_Field_activatedEi
FemGui.so:_ZN6FemGui19TaskPostDataAtPoint22on_SelectPoint_clickedEv
FemGui.so:_ZN6FemGui19TaskPostDataAtPoint8onChangeEddd
FemGui.so:_ZN6FemGui19TaskPostDataAtPointC1EPN3Gui26ViewProviderDocumentObjectEP7QWidget
FemGui.so:_ZN6FemGui19TaskPostDataAtPointC2EPN3Gui26ViewProviderDocumentObjectEP7QWidget
FemGui.so:_ZN6FemGui19TaskPostDataAtPointD0Ev
FemGui.so:_ZN6FemGui19TaskPostDataAtPointD1Ev
FemGui.so:_ZN6FemGui19TaskPostDataAtPointD2Ev
FemGui.so:_ZN6FemGui19ViewProviderFemMesh10updateDataEPKN3App8PropertyE
FemGui.so:_ZN6FemGui19ViewProviderFemMesh11getPyObjectEv
FemGui.so:_ZN6FemGui19ViewProviderFemMesh14getClassTypeIdEv
FemGui.so:_ZN6FemGui19ViewProviderFemMesh14setDisplayModeEPKc
FemGui.so:_ZN6FemGui19ViewProviderFemMesh16setColorByNodeIdERKSt3mapIlN3App5ColorESt4lessIlESaISt4pairIKlS3_EEE
FemGui.so:_ZN6FemGui19ViewProviderFemMesh16setColorByNodeIdERKSt6vectorIlSaIlEERKS1_IN3App5ColorESaIS7_EE
FemGui.so:_ZN6FemGui19ViewProviderFemMesh17setHighlightNodesERKSt3setIlSt4lessIlESaIlEE
FemGui.so:_ZN6FemGui19ViewProviderFemMesh18getPropertyDataPtrEv
FemGui.so:_ZN6FemGui19ViewProviderFemMesh18resetColorByNodeIdEv
FemGui.so:_ZN6FemGui19ViewProviderFemMesh19resetHighlightNodesEv
FemGui.so:_ZN6FemGui19ViewProviderFemMesh19setColorByElementIdERKSt3mapIlN3App5ColorESt4lessIlESaISt4pairIKlS3_EEE
FemGui.so:_ZN6FemGui19ViewProviderFemMesh21resetColorByElementIdEv
FemGui.so:_ZN6FemGui19ViewProviderFemMesh22setColorByNodeIdHelperERKSt6vectorIN3App5ColorESaIS3_EE
FemGui.so:_ZN6FemGui19ViewProviderFemMesh23setDisplacementByNodeIdERKSt3mapIlN4Base7Vector3IdEESt4lessIlESaISt4pairIKlS4_EEE
FemGui.so:_ZN6FemGui19ViewProviderFemMesh23setDisplacementByNodeIdERKSt6vectorIlSaIlEERKS1_IN4Base7Vector3IdEESaIS8_EE
FemGui.so:_ZN6FemGui19ViewProviderFemMesh24applyDisplacementToNodesEd
FemGui.so:_ZN6FemGui19ViewProviderFemMesh25resetDisplacementByNodeIdEv
FemGui.so:_ZN6FemGui19ViewProviderFemMesh29setDisplacementByNodeIdHelperERKSt6vectorIN4Base7Vector3IdEESaIS4_EEl
FemGui.so:_ZN6FemGui19ViewProviderFemMesh4initEv
FemGui.so:_ZN6FemGui19ViewProviderFemMesh6attachEPN3App14DocumentObjectE
FemGui.so:_ZN6FemGui19ViewProviderFemMesh6createEv
FemGui.so:_ZN6FemGui19ViewProviderFemMesh9onChangedEPKN3App8PropertyE
FemGui.so:_ZN6FemGui19ViewProviderFemMeshC1Ev
FemGui.so:_ZN6FemGui19ViewProviderFemMeshC2Ev
FemGui.so:_ZN6FemGui19ViewProviderFemMeshD0Ev
FemGui.so:_ZN6FemGui19ViewProviderFemMeshD1Ev
FemGui.so:_ZN6FemGui19ViewProviderFemMeshD2Ev
FemGui.so:_ZN6FemGui20DlgSettingsFemCcxImp11changeEventEP6QEvent
FemGui.so:_ZN6FemGui20DlgSettingsFemCcxImp11qt_metacallEN11QMetaObject4CallEiPPv
FemGui.so:_ZN6FemGui20DlgSettingsFemCcxImp11qt_metacastEPKc
FemGui.so:_ZN6FemGui20DlgSettingsFemCcxImp12loadSettingsEv
FemGui.so:_ZN6FemGui20DlgSettingsFemCcxImp12saveSettingsEv
FemGui.so:_ZN6FemGui20DlgSettingsFemCcxImpC1EP7QWidget
FemGui.so:_ZN6FemGui20DlgSettingsFemCcxImpC2EP7QWidget
FemGui.so:_ZN6FemGui20DlgSettingsFemCcxImpD0Ev
FemGui.so:_ZN6FemGui20DlgSettingsFemCcxImpD1Ev
FemGui.so:_ZN6FemGui20DlgSettingsFemCcxImpD2Ev
FemGui.so:_ZN6FemGui20DlgSettingsFemZ88Imp11changeEventEP6QEvent
FemGui.so:_ZN6FemGui20DlgSettingsFemZ88Imp11qt_metacallEN11QMetaObject4CallEiPPv
FemGui.so:_ZN6FemGui20DlgSettingsFemZ88Imp11qt_metacastEPKc
FemGui.so:_ZN6FemGui20DlgSettingsFemZ88Imp12loadSettingsEv
FemGui.so:_ZN6FemGui20DlgSettingsFemZ88Imp12saveSettingsEv
FemGui.so:_ZN6FemGui20DlgSettingsFemZ88ImpC1EP7QWidget
FemGui.so:_ZN6FemGui20DlgSettingsFemZ88ImpC2EP7QWidget
FemGui.so:_ZN6FemGui20DlgSettingsFemZ88ImpD0Ev
FemGui.so:_ZN6FemGui20DlgSettingsFemZ88ImpD1Ev
FemGui.so:_ZN6FemGui20DlgSettingsFemZ88ImpD2Ev
FemGui.so:_ZN6FemGui20TaskDlgCreateNodeSet11qt_metacallEN11QMetaObject4CallEiPPv
FemGui.so:_ZN6FemGui20TaskDlgCreateNodeSet11qt_metacastEPKc
FemGui.so:_ZN6FemGui20TaskDlgCreateNodeSet13helpRequestedEv
FemGui.so:_ZN6FemGui20TaskDlgCreateNodeSet4openEv
FemGui.so:_ZN6FemGui20TaskDlgCreateNodeSet6acceptEv
FemGui.so:_ZN6FemGui20TaskDlgCreateNodeSet6rejectEv
FemGui.so:_ZN6FemGui20TaskDlgCreateNodeSetC1EPN3Fem17FemSetNodesObjectE
FemGui.so:_ZN6FemGui20TaskDlgCreateNodeSetC2EPN3Fem17FemSetNodesObjectE
FemGui.so:_ZN6FemGui20TaskDlgCreateNodeSetD0Ev
FemGui.so:_ZN6FemGui20TaskDlgCreateNodeSetD1Ev
FemGui.so:_ZN6FemGui20TaskDlgCreateNodeSetD2Ev
FemGui.so:_ZN6FemGui20TaskDlgFemConstraint11qt_metacallEN11QMetaObject4CallEiPPv
FemGui.so:_ZN6FemGui20TaskDlgFemConstraint11qt_metacastEPKc
FemGui.so:_ZN6FemGui20TaskDlgFemConstraint4openEv
FemGui.so:_ZN6FemGui20TaskDlgFemConstraint6acceptEv
FemGui.so:_ZN6FemGui20TaskDlgFemConstraint6rejectEv
FemGui.so:_ZN6FemGui20ViewProviderSetFaces13doubleClickedEv
FemGui.so:_ZN6FemGui20ViewProviderSetFaces14getClassTypeIdEv
FemGui.so:_ZN6FemGui20ViewProviderSetFaces18getPropertyDataPtrEv
FemGui.so:_ZN6FemGui20ViewProviderSetFaces4initEv
FemGui.so:_ZN6FemGui20ViewProviderSetFaces6createEv
FemGui.so:_ZN6FemGui20ViewProviderSetFaces7setEditEi
FemGui.so:_ZN6FemGui20ViewProviderSetFaces9unsetEditEi
FemGui.so:_ZN6FemGui20ViewProviderSetNodes13doubleClickedEv
FemGui.so:_ZN6FemGui20ViewProviderSetNodes14getClassTypeIdEv
FemGui.so:_ZN6FemGui20ViewProviderSetNodes18getPropertyDataPtrEv
FemGui.so:_ZN6FemGui20ViewProviderSetNodes4initEv
FemGui.so:_ZN6FemGui20ViewProviderSetNodes6createEv
FemGui.so:_ZN6FemGui20ViewProviderSetNodes7setEditEi
FemGui.so:_ZN6FemGui20ViewProviderSetNodes9unsetEditEi
FemGui.so:_ZN6FemGui21DlgSettingsFemGmshImp11changeEventEP6QEvent
FemGui.so:_ZN6FemGui21DlgSettingsFemGmshImp11qt_metacallEN11QMetaObject4CallEiPPv
FemGui.so:_ZN6FemGui21DlgSettingsFemGmshImp11qt_metacastEPKc
FemGui.so:_ZN6FemGui21DlgSettingsFemGmshImp12loadSettingsEv
FemGui.so:_ZN6FemGui21DlgSettingsFemGmshImp12saveSettingsEv
FemGui.so:_ZN6FemGui21DlgSettingsFemGmshImpC1EP7QWidget
FemGui.so:_ZN6FemGui21DlgSettingsFemGmshImpC2EP7QWidget
FemGui.so:_ZN6FemGui21DlgSettingsFemGmshImpD0Ev
FemGui.so:_ZN6FemGui21DlgSettingsFemGmshImpD1Ev
FemGui.so:_ZN6FemGui21DlgSettingsFemGmshImpD2Ev
FemGui.so:_ZN6FemGui21TaskFemConstraintGear11changeEventEP6QEvent
FemGui.so:_ZN6FemGui21TaskFemConstraintGear11qt_metacallEN11QMetaObject4CallEiPPv
FemGui.so:_ZN6FemGui21TaskFemConstraintGear11qt_metacastEPKc
FemGui.so:_ZN6FemGui21TaskFemConstraintGear14onForceChangedEd
FemGui.so:_ZN6FemGui21TaskFemConstraintGear15onCheckReversedEb
FemGui.so:_ZN6FemGui21TaskFemConstraintGear17onButtonDirectionEb
FemGui.so:_ZN6FemGui21TaskFemConstraintGear17onDiameterChangedEd
FemGui.so:_ZN6FemGui21TaskFemConstraintGear18onSelectionChangedERKN3Gui16SelectionChangesE
FemGui.so:_ZN6FemGui21TaskFemConstraintGear19onForceAngleChangedEd
FemGui.so:_ZN6FemGui21TaskFemConstraintGearC1EPNS_25ViewProviderFemConstraintEP7QWidgetPKc
FemGui.so:_ZN6FemGui21TaskFemConstraintGearC2EPNS_25ViewProviderFemConstraintEP7QWidgetPKc
FemGui.so:_ZN6FemGui21TaskPostDataAlongLine11qt_metacallEN11QMetaObject4CallEiPPv
FemGui.so:_ZN6FemGui21TaskPostDataAlongLine11qt_metacastEPKc
FemGui.so:_ZN6FemGui21TaskPostDataAlongLine13ObjectVisibleB5cxx11Ev
FemGui.so:_ZN6FemGui21TaskPostDataAlongLine13point1ChangedEd
FemGui.so:_ZN6FemGui21TaskPostDataAlongLine13point2ChangedEd
FemGui.so:_ZN6FemGui21TaskPostDataAlongLine13pointCallbackEPvP15SoEventCallback
FemGui.so:_ZN6FemGui21TaskPostDataAlongLine15applyPythonCodeEv
FemGui.so:_ZN6FemGui21TaskPostDataAlongLine17resolutionChangedEi
FemGui.so:_ZN6FemGui21TaskPostDataAlongLine18on_Field_activatedEi
FemGui.so:_ZN6FemGui21TaskPostDataAlongLine21on_CreatePlot_clickedEv
FemGui.so:_ZN6FemGui21TaskPostDataAlongLine23on_SelectPoints_clickedEv
FemGui.so:_ZN6FemGui21TaskPostDataAlongLine23on_VectorMode_activatedEi
FemGui.so:_ZN6FemGui21TaskPostDataAlongLine27on_Representation_activatedEi
FemGui.so:_ZN6FemGui21TaskPostDataAlongLine4PlotB5cxx11Ev
FemGui.so:_ZN6FemGui21TaskPostDataAlongLine8onChangeEdddddd
FemGui.so:_ZN6FemGui21TaskPostDataAlongLineC1EPN3Gui26ViewProviderDocumentObjectEP7QWidget
FemGui.so:_ZN6FemGui21TaskPostDataAlongLineC2EPN3Gui26ViewProviderDocumentObjectEP7QWidget
FemGui.so:_ZN6FemGui21TaskPostDataAlongLineD0Ev
FemGui.so:_ZN6FemGui21TaskPostDataAlongLineD1Ev
FemGui.so:_ZN6FemGui21TaskPostDataAlongLineD2Ev
FemGui.so:_ZN6FemGui21ViewProviderFemMeshPy12setNodeColorEN2Py4DictE
FemGui.so:_ZN6FemGui21ViewProviderFemMeshPy15setElementColorEN2Py4DictE
FemGui.so:_ZN6FemGui21ViewProviderFemMeshPy17applyDisplacementEP7_object
FemGui.so:_ZN6FemGui21ViewProviderFemMeshPy19setCustomAttributesEPKcP7_object
FemGui.so:_ZN6FemGui21ViewProviderFemMeshPy19setHighlightedNodesEN2Py4ListE
FemGui.so:_ZN6FemGui21ViewProviderFemMeshPy19setNodeDisplacementEN2Py4DictE
FemGui.so:_ZN6FemGui21ViewProviderFemMeshPy21setNodeColorByScalarsEP7_object
FemGui.so:_ZN6FemGui21ViewProviderFemMeshPy27staticCallback_getNodeColorEP7_objectPv
FemGui.so:_ZN6FemGui21ViewProviderFemMeshPy27staticCallback_setNodeColorEP7_objectS2_Pv
FemGui.so:_ZN6FemGui21ViewProviderFemMeshPy28setNodeDisplacementByVectorsEP7_object
FemGui.so:_ZN6FemGui21ViewProviderFemMeshPy30staticCallback_getElementColorEP7_objectPv
FemGui.so:_ZN6FemGui21ViewProviderFemMeshPy30staticCallback_setElementColorEP7_objectS2_Pv
FemGui.so:_ZN6FemGui21ViewProviderFemMeshPy32staticCallback_applyDisplacementEP7_objectS2_
FemGui.so:_ZN6FemGui21ViewProviderFemMeshPy34staticCallback_getHighlightedNodesEP7_objectPv
FemGui.so:_ZN6FemGui21ViewProviderFemMeshPy34staticCallback_getNodeDisplacementEP7_objectPv
FemGui.so:_ZN6FemGui21ViewProviderFemMeshPy34staticCallback_setHighlightedNodesEP7_objectS2_Pv
FemGui.so:_ZN6FemGui21ViewProviderFemMeshPy34staticCallback_setNodeDisplacementEP7_objectS2_Pv
FemGui.so:_ZN6FemGui21ViewProviderFemMeshPy36staticCallback_setNodeColorByScalarsEP7_objectS2_
FemGui.so:_ZN6FemGui21ViewProviderFemMeshPy37staticCallback_getVisibleElementFacesEP7_objectPv
FemGui.so:_ZN6FemGui21ViewProviderFemMeshPy37staticCallback_setVisibleElementFacesEP7_objectS2_Pv
FemGui.so:_ZN6FemGui21ViewProviderFemMeshPy43staticCallback_setNodeDisplacementByVectorsEP7_objectS2_
FemGui.so:_ZN6FemGui21ViewProviderFemMeshPy5_reprEv
FemGui.so:_ZN6FemGui21ViewProviderFemMeshPy6PyInitEP7_objectS2_
FemGui.so:_ZN6FemGui21ViewProviderFemMeshPy6PyMakeEP11_typeobjectP7_objectS4_
FemGui.so:_ZN6FemGui21ViewProviderFemMeshPy8_getattrEPKc
FemGui.so:_ZN6FemGui21ViewProviderFemMeshPy8_setattrEPKcP7_object
FemGui.so:_ZN6FemGui21ViewProviderFemMeshPyC1EPNS_19ViewProviderFemMeshEP11_typeobject
FemGui.so:_ZN6FemGui21ViewProviderFemMeshPyC2EPNS_19ViewProviderFemMeshEP11_typeobject
FemGui.so:_ZN6FemGui21ViewProviderFemMeshPyD0Ev
FemGui.so:_ZN6FemGui21ViewProviderFemMeshPyD1Ev
FemGui.so:_ZN6FemGui21ViewProviderFemMeshPyD2Ev
FemGui.so:_ZN6FemGui22ActiveAnalysisObserver15setActiveObjectEPN3Fem11FemAnalysisE
FemGui.so:_ZN6FemGui22ActiveAnalysisObserver17slotDeletedObjectERKN3App14DocumentObjectE
FemGui.so:_ZN6FemGui22ActiveAnalysisObserver19slotDeletedDocumentERKN3App8DocumentE
FemGui.so:_ZN6FemGui22ActiveAnalysisObserver21highlightActiveObjectERKN3Gui13HighlightModeEb
FemGui.so:_ZN6FemGui22ActiveAnalysisObserver8instanceEv
FemGui.so:_ZN6FemGui22ActiveAnalysisObserverC1Ev
FemGui.so:_ZN6FemGui22ActiveAnalysisObserverC2Ev
FemGui.so:_ZN6FemGui22ActiveAnalysisObserverD0Ev
FemGui.so:_ZN6FemGui22ActiveAnalysisObserverD1Ev
FemGui.so:_ZN6FemGui22ActiveAnalysisObserverD2Ev
FemGui.so:_ZN6FemGui22DlgSettingsFemElmerImp11changeEventEP6QEvent
FemGui.so:_ZN6FemGui22DlgSettingsFemElmerImp11qt_metacallEN11QMetaObject4CallEiPPv
FemGui.so:_ZN6FemGui22DlgSettingsFemElmerImp11qt_metacastEPKc
FemGui.so:_ZN6FemGui22DlgSettingsFemElmerImp12loadSettingsEv
FemGui.so:_ZN6FemGui22DlgSettingsFemElmerImp12saveSettingsEv
FemGui.so:_ZN6FemGui22DlgSettingsFemElmerImpC1EP7QWidget
FemGui.so:_ZN6FemGui22DlgSettingsFemElmerImpC2EP7QWidget
FemGui.so:_ZN6FemGui22DlgSettingsFemElmerImpD0Ev
FemGui.so:_ZN6FemGui22DlgSettingsFemElmerImpD1Ev
FemGui.so:_ZN6FemGui22DlgSettingsFemElmerImpD2Ev
FemGui.so:_ZN6FemGui22TaskDlgMeshShapeNetgen11qt_metacallEN11QMetaObject4CallEiPPv
FemGui.so:_ZN6FemGui22TaskDlgMeshShapeNetgen11qt_metacastEPKc
FemGui.so:_ZN6FemGui22TaskDlgMeshShapeNetgen13helpRequestedEv
FemGui.so:_ZN6FemGui22TaskDlgMeshShapeNetgen4openEv
FemGui.so:_ZN6FemGui22TaskDlgMeshShapeNetgen6acceptEv
FemGui.so:_ZN6FemGui22TaskDlgMeshShapeNetgen6rejectEv
FemGui.so:_ZN6FemGui22TaskDlgMeshShapeNetgen7clickedEi
FemGui.so:_ZN6FemGui22TaskDlgMeshShapeNetgenC1EPNS_30ViewProviderFemMeshShapeNetgenE
FemGui.so:_ZN6FemGui22TaskDlgMeshShapeNetgenC2EPNS_30ViewProviderFemMeshShapeNetgenE
FemGui.so:_ZN6FemGui22TaskDlgMeshShapeNetgenD0Ev
FemGui.so:_ZN6FemGui22TaskDlgMeshShapeNetgenD1Ev
FemGui.so:_ZN6FemGui22TaskDlgMeshShapeNetgenD2Ev
FemGui.so:_ZN6FemGui22TaskFemConstraintFixed11changeEventEP6QEvent
FemGui.so:_ZN6FemGui22TaskFemConstraintFixed11qt_metacallEN11QMetaObject4CallEiPPv
FemGui.so:_ZN6FemGui22TaskFemConstraintFixed11qt_metacastEPKc
FemGui.so:_ZN6FemGui22TaskFemConstraintFixed12setSelectionEP15QListWidgetItem
FemGui.so:_ZN6FemGui22TaskFemConstraintFixed14addToSelectionEv
FemGui.so:_ZN6FemGui22TaskFemConstraintFixed18onReferenceDeletedEv
FemGui.so:_ZN6FemGui22TaskFemConstraintFixed19removeFromSelectionEv
FemGui.so:_ZN6FemGui22TaskFemConstraintFixed8updateUIEv
FemGui.so:_ZN6FemGui22TaskFemConstraintFixedC1EPNS_30ViewProviderFemConstraintFixedEP7QWidget
FemGui.so:_ZN6FemGui22TaskFemConstraintFixedC2EPNS_30ViewProviderFemConstraintFixedEP7QWidget
FemGui.so:_ZN6FemGui22TaskFemConstraintFixedD0Ev
FemGui.so:_ZN6FemGui22TaskFemConstraintFixedD1Ev
FemGui.so:_ZN6FemGui22TaskFemConstraintFixedD2Ev
FemGui.so:_ZN6FemGui22TaskFemConstraintForce11changeEventEP6QEvent
FemGui.so:_ZN6FemGui22TaskFemConstraintForce11qt_metacallEN11QMetaObject4CallEiPPv
FemGui.so:_ZN6FemGui22TaskFemConstraintForce11qt_metacastEPKc
FemGui.so:_ZN6FemGui22TaskFemConstraintForce14onCheckReverseEb
FemGui.so:_ZN6FemGui22TaskFemConstraintForce14onForceChangedEd
FemGui.so:_ZN6FemGui22TaskFemConstraintForce17onButtonDirectionEb
FemGui.so:_ZN6FemGui22TaskFemConstraintForce18onReferenceDeletedEv
FemGui.so:_ZN6FemGui22TaskFemConstraintForce18onSelectionChangedERKN3Gui16SelectionChangesE
FemGui.so:_ZN6FemGui22TaskFemConstraintForce8updateUIEv
FemGui.so:_ZN6FemGui22TaskFemConstraintForceC1EPNS_30ViewProviderFemConstraintForceEP7QWidget
FemGui.so:_ZN6FemGui22TaskFemConstraintForceC2EPNS_30ViewProviderFemConstraintForceEP7QWidget
FemGui.so:_ZN6FemGui22TaskFemConstraintForceD0Ev
FemGui.so:_ZN6FemGui22TaskFemConstraintForceD1Ev
FemGui.so:_ZN6FemGui22TaskFemConstraintForceD2Ev
FemGui.so:_ZN6FemGui22ViewProviderDataMarker14getClassTypeIdEv
FemGui.so:_ZN6FemGui22ViewProviderDataMarker18getPropertyDataPtrEv
FemGui.so:_ZN6FemGui22ViewProviderDataMarker4initEv
FemGui.so:_ZN6FemGui22ViewProviderDataMarker6createEv
FemGui.so:_ZN6FemGui22ViewProviderDataMarkerC1Ev
FemGui.so:_ZN6FemGui22ViewProviderDataMarkerC2Ev
FemGui.so:_ZN6FemGui22ViewProviderDataMarkerD0Ev
FemGui.so:_ZN6FemGui22ViewProviderDataMarkerD1Ev
FemGui.so:_ZN6FemGui22ViewProviderDataMarkerD2Ev
FemGui.so:_ZN6FemGui22ViewProviderFemPostCut14getClassTypeIdEv
FemGui.so:_ZN6FemGui22ViewProviderFemPostCut15setupTaskDialogEPNS_11TaskDlgPostE
FemGui.so:_ZN6FemGui22ViewProviderFemPostCut18getPropertyDataPtrEv
FemGui.so:_ZN6FemGui22ViewProviderFemPostCut4initEv
FemGui.so:_ZN6FemGui22ViewProviderFemPostCut6createEv
FemGui.so:_ZN6FemGui22ViewProviderFemPostCutC1Ev
FemGui.so:_ZN6FemGui22ViewProviderFemPostCutC2Ev
FemGui.so:_ZN6FemGui22ViewProviderFemPostCutD0Ev
FemGui.so:_ZN6FemGui22ViewProviderFemPostCutD1Ev
FemGui.so:_ZN6FemGui22ViewProviderFemPostCutD2Ev
FemGui.so:_ZN6FemGui23TaskFemConstraintPulley11changeEventEP6QEvent
FemGui.so:_ZN6FemGui23TaskFemConstraintPulley11qt_metacallEN11QMetaObject4CallEiPPv
FemGui.so:_ZN6FemGui23TaskFemConstraintPulley11qt_metacastEPKc
FemGui.so:_ZN6FemGui23TaskFemConstraintPulley15onCheckIsDrivenEb
FemGui.so:_ZN6FemGui23TaskFemConstraintPulley21onTensionForceChangedEd
FemGui.so:_ZN6FemGui23TaskFemConstraintPulley22onOtherDiameterChangedEd
FemGui.so:_ZN6FemGui23TaskFemConstraintPulley23onCenterDistanceChangedEd
FemGui.so:_ZN6FemGui23TaskFemConstraintPulleyC1EPNS_31ViewProviderFemConstraintPulleyEP7QWidget
FemGui.so:_ZN6FemGui23TaskFemConstraintPulleyC2EPNS_31ViewProviderFemConstraintPulleyEP7QWidget
FemGui.so:_ZN6FemGui23ViewProviderFemAnalysis10dragObjectEPN3App14DocumentObjectE
FemGui.so:_ZN6FemGui23ViewProviderFemAnalysis10dropObjectEPN3App14DocumentObjectE
FemGui.so:_ZN6FemGui23ViewProviderFemAnalysis13doubleClickedEv
FemGui.so:_ZN6FemGui23ViewProviderFemAnalysis14getClassTypeIdEv
FemGui.so:_ZN6FemGui23ViewProviderFemAnalysis16setupContextMenuEP5QMenuP7QObjectPKc
FemGui.so:_ZN6FemGui23ViewProviderFemAnalysis18getPropertyDataPtrEv
FemGui.so:_ZN6FemGui23ViewProviderFemAnalysis4hideEv
FemGui.so:_ZN6FemGui23ViewProviderFemAnalysis4initEv
FemGui.so:_ZN6FemGui23ViewProviderFemAnalysis4showEv
FemGui.so:_ZN6FemGui23ViewProviderFemAnalysis6createEv
FemGui.so:_ZN6FemGui23ViewProviderFemAnalysis7setEditEi
FemGui.so:_ZN6FemGui23ViewProviderFemAnalysis8onDeleteERKSt6vectorINSt7__cxx1112basic_stringIcSt11char_traitsIcESaIcEEESaIS7_EE
FemGui.so:_ZN6FemGui23ViewProviderFemAnalysis9unsetEditEi
FemGui.so:_ZN6FemGui23ViewProviderFemAnalysisC1Ev
FemGui.so:_ZN6FemGui23ViewProviderFemAnalysisC2Ev
FemGui.so:_ZN6FemGui23ViewProviderFemAnalysisD0Ev
FemGui.so:_ZN6FemGui23ViewProviderFemAnalysisD1Ev
FemGui.so:_ZN6FemGui23ViewProviderFemAnalysisD2Ev
FemGui.so:_ZN6FemGui23ViewProviderFemPostClip14getClassTypeIdEv
FemGui.so:_ZN6FemGui23ViewProviderFemPostClip15setupTaskDialogEPNS_11TaskDlgPostE
FemGui.so:_ZN6FemGui23ViewProviderFemPostClip18getPropertyDataPtrEv
FemGui.so:_ZN6FemGui23ViewProviderFemPostClip4initEv
FemGui.so:_ZN6FemGui23ViewProviderFemPostClip6createEv
FemGui.so:_ZN6FemGui23ViewProviderFemPostClipC1Ev
FemGui.so:_ZN6FemGui23ViewProviderFemPostClipC2Ev
FemGui.so:_ZN6FemGui23ViewProviderFemPostClipD0Ev
FemGui.so:_ZN6FemGui23ViewProviderFemPostClipD1Ev
FemGui.so:_ZN6FemGui23ViewProviderFemPostClipD2Ev
FemGui.so:_ZN6FemGui23ViewProviderPointMarker14getClassTypeIdEv
FemGui.so:_ZN6FemGui23ViewProviderPointMarker18getPropertyDataPtrEv
FemGui.so:_ZN6FemGui23ViewProviderPointMarker4initEv
FemGui.so:_ZN6FemGui23ViewProviderPointMarker6createEv
FemGui.so:_ZN6FemGui23ViewProviderPointMarkerC1Ev
FemGui.so:_ZN6FemGui23ViewProviderPointMarkerC2Ev
FemGui.so:_ZN6FemGui23ViewProviderPointMarkerD0Ev
FemGui.so:_ZN6FemGui23ViewProviderPointMarkerD1Ev
FemGui.so:_ZN6FemGui23ViewProviderPointMarkerD2Ev
FemGui.so:_ZN6FemGui23ViewProviderSetElements13doubleClickedEv
FemGui.so:_ZN6FemGui23ViewProviderSetElements14getClassTypeIdEv
FemGui.so:_ZN6FemGui23ViewProviderSetElements18getPropertyDataPtrEv
FemGui.so:_ZN6FemGui23ViewProviderSetElements4initEv
FemGui.so:_ZN6FemGui23ViewProviderSetElements6createEv
FemGui.so:_ZN6FemGui23ViewProviderSetElements7setEditEi
FemGui.so:_ZN6FemGui23ViewProviderSetElements9unsetEditEi
FemGui.so:_ZN6FemGui23ViewProviderSetGeometry13doubleClickedEv
FemGui.so:_ZN6FemGui23ViewProviderSetGeometry14getClassTypeIdEv
FemGui.so:_ZN6FemGui23ViewProviderSetGeometry18getPropertyDataPtrEv
FemGui.so:_ZN6FemGui23ViewProviderSetGeometry4initEv
FemGui.so:_ZN6FemGui23ViewProviderSetGeometry6createEv
FemGui.so:_ZN6FemGui23ViewProviderSetGeometry7setEditEi
FemGui.so:_ZN6FemGui23ViewProviderSetGeometry9unsetEditEi
FemGui.so:_ZN6FemGui24DlgSettingsFemGeneralImp11changeEventEP6QEvent
FemGui.so:_ZN6FemGui24DlgSettingsFemGeneralImp11qt_metacallEN11QMetaObject4CallEiPPv
FemGui.so:_ZN6FemGui24DlgSettingsFemGeneralImp11qt_metacastEPKc
FemGui.so:_ZN6FemGui24DlgSettingsFemGeneralImp12loadSettingsEv
FemGui.so:_ZN6FemGui24DlgSettingsFemGeneralImp12saveSettingsEv
FemGui.so:_ZN6FemGui24DlgSettingsFemGeneralImpC1EP7QWidget
FemGui.so:_ZN6FemGui24DlgSettingsFemGeneralImpC2EP7QWidget
FemGui.so:_ZN6FemGui24DlgSettingsFemGeneralImpD0Ev
FemGui.so:_ZN6FemGui24DlgSettingsFemGeneralImpD1Ev
FemGui.so:_ZN6FemGui24DlgSettingsFemGeneralImpD2Ev
FemGui.so:_ZN6FemGui24TaskDlgFemConstraintGear11qt_metacallEN11QMetaObject4CallEiPPv
FemGui.so:_ZN6FemGui24TaskDlgFemConstraintGear11qt_metacastEPKc
FemGui.so:_ZN6FemGui24TaskDlgFemConstraintGear6acceptEv
FemGui.so:_ZN6FemGui24TaskDlgFemConstraintGearC1EPNS_29ViewProviderFemConstraintGearE
FemGui.so:_ZN6FemGui24TaskDlgFemConstraintGearC2EPNS_29ViewProviderFemConstraintGearE
FemGui.so:_ZN6FemGui24TaskFemConstraintBearing11changeEventEP6QEvent
FemGui.so:_ZN6FemGui24TaskFemConstraintBearing11qt_metacallEN11QMetaObject4CallEiPPv
FemGui.so:_ZN6FemGui24TaskFemConstraintBearing11qt_metacastEPKc
FemGui.so:_ZN6FemGui24TaskFemConstraintBearing12onCheckAxialEb
FemGui.so:_ZN6FemGui24TaskFemConstraintBearing16onButtonLocationEb
FemGui.so:_ZN6FemGui24TaskFemConstraintBearing17onDistanceChangedEd
FemGui.so:_ZN6FemGui24TaskFemConstraintBearing18onReferenceDeletedEv
FemGui.so:_ZN6FemGui24TaskFemConstraintBearing18onSelectionChangedERKN3Gui16SelectionChangesE
FemGui.so:_ZN6FemGui24TaskFemConstraintBearingC1EPNS_25ViewProviderFemConstraintEP7QWidgetPKc
FemGui.so:_ZN6FemGui24TaskFemConstraintBearingC2EPNS_25ViewProviderFemConstraintEP7QWidgetPKc
FemGui.so:_ZN6FemGui24TaskFemConstraintBearingD0Ev
FemGui.so:_ZN6FemGui24TaskFemConstraintBearingD1Ev
FemGui.so:_ZN6FemGui24TaskFemConstraintBearingD2Ev
FemGui.so:_ZN6FemGui24TaskFemConstraintContact11changeEventEP6QEvent
FemGui.so:_ZN6FemGui24TaskFemConstraintContact11qt_metacallEN11QMetaObject4CallEiPPv
FemGui.so:_ZN6FemGui24TaskFemConstraintContact11qt_metacastEPKc
FemGui.so:_ZN6FemGui24TaskFemConstraintContact12setSelectionEP15QListWidgetItem
FemGui.so:_ZN6FemGui24TaskFemConstraintContact19addToSelectionSlaveEv
FemGui.so:_ZN6FemGui24TaskFemConstraintContact20addToSelectionMasterEv
FemGui.so:_ZN6FemGui24TaskFemConstraintContact23onReferenceDeletedSlaveEv
FemGui.so:_ZN6FemGui24TaskFemConstraintContact24onReferenceDeletedMasterEv
FemGui.so:_ZN6FemGui24TaskFemConstraintContact24removeFromSelectionSlaveEv
FemGui.so:_ZN6FemGui24TaskFemConstraintContact25removeFromSelectionMasterEv
FemGui.so:_ZN6FemGui24TaskFemConstraintContact8updateUIEv
FemGui.so:_ZN6FemGui24TaskFemConstraintContactC1EPNS_32ViewProviderFemConstraintContactEP7QWidget
FemGui.so:_ZN6FemGui24TaskFemConstraintContactC2EPNS_32ViewProviderFemConstraintContactEP7QWidget
FemGui.so:_ZN6FemGui24TaskFemConstraintContactD0Ev
FemGui.so:_ZN6FemGui24TaskFemConstraintContactD1Ev
FemGui.so:_ZN6FemGui24TaskFemConstraintContactD2Ev
FemGui.so:_ZN6FemGui24ViewProviderFemMeshShape14getClassTypeIdEv
FemGui.so:_ZN6FemGui24ViewProviderFemMeshShape18getPropertyDataPtrEv
FemGui.so:_ZN6FemGui24ViewProviderFemMeshShape4initEv
FemGui.so:_ZN6FemGui24ViewProviderFemMeshShape6createEv
FemGui.so:_ZN6FemGui24ViewProviderFemMeshShapeC1Ev
FemGui.so:_ZN6FemGui24ViewProviderFemMeshShapeC2Ev
FemGui.so:_ZN6FemGui24ViewProviderFemMeshShapeD0Ev
FemGui.so:_ZN6FemGui24ViewProviderFemMeshShapeD1Ev
FemGui.so:_ZN6FemGui24ViewProviderFemMeshShapeD2Ev
FemGui.so:_ZN6FemGui25DlgSettingsFemInOutVtkImp11changeEventEP6QEvent
FemGui.so:_ZN6FemGui25DlgSettingsFemInOutVtkImp11qt_metacallEN11QMetaObject4CallEiPPv
FemGui.so:_ZN6FemGui25DlgSettingsFemInOutVtkImp11qt_metacastEPKc
FemGui.so:_ZN6FemGui25DlgSettingsFemInOutVtkImp12loadSettingsEv
FemGui.so:_ZN6FemGui25DlgSettingsFemInOutVtkImp12saveSettingsEv
FemGui.so:_ZN6FemGui25DlgSettingsFemInOutVtkImpC1EP7QWidget
FemGui.so:_ZN6FemGui25DlgSettingsFemInOutVtkImpC2EP7QWidget
FemGui.so:_ZN6FemGui25DlgSettingsFemInOutVtkImpD0Ev
FemGui.so:_ZN6FemGui25DlgSettingsFemInOutVtkImpD1Ev
FemGui.so:_ZN6FemGui25DlgSettingsFemInOutVtkImpD2Ev
FemGui.so:_ZN6FemGui25DlgSettingsFemMaterialImp11changeEventEP6QEvent
FemGui.so:_ZN6FemGui25DlgSettingsFemMaterialImp11qt_metacallEN11QMetaObject4CallEiPPv
FemGui.so:_ZN6FemGui25DlgSettingsFemMaterialImp11qt_metacastEPKc
FemGui.so:_ZN6FemGui25DlgSettingsFemMaterialImp12loadSettingsEv
FemGui.so:_ZN6FemGui25DlgSettingsFemMaterialImp12saveSettingsEv
FemGui.so:_ZN6FemGui25DlgSettingsFemMaterialImpC1EP7QWidget
FemGui.so:_ZN6FemGui25DlgSettingsFemMaterialImpC2EP7QWidget
FemGui.so:_ZN6FemGui25DlgSettingsFemMaterialImpD0Ev
FemGui.so:_ZN6FemGui25DlgSettingsFemMaterialImpD1Ev
FemGui.so:_ZN6FemGui25DlgSettingsFemMaterialImpD2Ev
FemGui.so:_ZN6FemGui25TaskDlgFemConstraintFixed11qt_metacallEN11QMetaObject4CallEiPPv
FemGui.so:_ZN6FemGui25TaskDlgFemConstraintFixed11qt_metacastEPKc
FemGui.so:_ZN6FemGui25TaskDlgFemConstraintFixed4openEv
FemGui.so:_ZN6FemGui25TaskDlgFemConstraintFixed6acceptEv
FemGui.so:_ZN6FemGui25TaskDlgFemConstraintFixed6rejectEv
FemGui.so:_ZN6FemGui25TaskDlgFemConstraintFixedC1EPNS_30ViewProviderFemConstraintFixedE
FemGui.so:_ZN6FemGui25TaskDlgFemConstraintFixedC2EPNS_30ViewProviderFemConstraintFixedE
FemGui.so:_ZN6FemGui25TaskDlgFemConstraintForce11qt_metacallEN11QMetaObject4CallEiPPv
FemGui.so:_ZN6FemGui25TaskDlgFemConstraintForce11qt_metacastEPKc
FemGui.so:_ZN6FemGui25TaskDlgFemConstraintForce4openEv
FemGui.so:_ZN6FemGui25TaskDlgFemConstraintForce6acceptEv
FemGui.so:_ZN6FemGui25TaskDlgFemConstraintForce6rejectEv
FemGui.so:_ZN6FemGui25TaskDlgFemConstraintForceC1EPNS_30ViewProviderFemConstraintForceE
FemGui.so:_ZN6FemGui25TaskDlgFemConstraintForceC2EPNS_30ViewProviderFemConstraintForceE
FemGui.so:_ZN6FemGui25TaskFemConstraintHeatflux11changeEventEP6QEvent
FemGui.so:_ZN6FemGui25TaskFemConstraintHeatflux11qt_metacallEN11QMetaObject4CallEiPPv
FemGui.so:_ZN6FemGui25TaskFemConstraintHeatflux11qt_metacastEPKc
FemGui.so:_ZN6FemGui25TaskFemConstraintHeatflux12setSelectionEP15QListWidgetItem
FemGui.so:_ZN6FemGui25TaskFemConstraintHeatflux14addToSelectionEv
FemGui.so:_ZN6FemGui25TaskFemConstraintHeatflux17onFilmCoefChangedEd
FemGui.so:_ZN6FemGui25TaskFemConstraintHeatflux17onHeatFluxChangedEd
FemGui.so:_ZN6FemGui25TaskFemConstraintHeatflux18onReferenceDeletedEv
FemGui.so:_ZN6FemGui25TaskFemConstraintHeatflux19removeFromSelectionEv
FemGui.so:_ZN6FemGui25TaskFemConstraintHeatflux20onAmbientTempChangedEd
FemGui.so:_ZN6FemGui25TaskFemConstraintHeatflux4ConvEv
FemGui.so:_ZN6FemGui25TaskFemConstraintHeatflux4FluxEv
FemGui.so:_ZN6FemGui25TaskFemConstraintHeatflux8updateUIEv
FemGui.so:_ZN6FemGui25TaskFemConstraintHeatfluxC1EPNS_33ViewProviderFemConstraintHeatfluxEP7QWidget
FemGui.so:_ZN6FemGui25TaskFemConstraintHeatfluxC2EPNS_33ViewProviderFemConstraintHeatfluxEP7QWidget
FemGui.so:_ZN6FemGui25TaskFemConstraintHeatfluxD0Ev
FemGui.so:_ZN6FemGui25TaskFemConstraintHeatfluxD1Ev
FemGui.so:_ZN6FemGui25TaskFemConstraintHeatfluxD2Ev
FemGui.so:_ZN6FemGui25TaskFemConstraintPressure11changeEventEP6QEvent
FemGui.so:_ZN6FemGui25TaskFemConstraintPressure11qt_metacallEN11QMetaObject4CallEiPPv
FemGui.so:_ZN6FemGui25TaskFemConstraintPressure11qt_metacastEPKc
FemGui.so:_ZN6FemGui25TaskFemConstraintPressure12setSelectionEP15QListWidgetItem
FemGui.so:_ZN6FemGui25TaskFemConstraintPressure14addToSelectionEv
FemGui.so:_ZN6FemGui25TaskFemConstraintPressure14onCheckReverseEb
FemGui.so:_ZN6FemGui25TaskFemConstraintPressure18onReferenceDeletedEv
FemGui.so:_ZN6FemGui25TaskFemConstraintPressure19removeFromSelectionEv
FemGui.so:_ZN6FemGui25TaskFemConstraintPressure8updateUIEv
FemGui.so:_ZN6FemGui25TaskFemConstraintPressureC1EPNS_33ViewProviderFemConstraintPressureEP7QWidget
FemGui.so:_ZN6FemGui25TaskFemConstraintPressureC2EPNS_33ViewProviderFemConstraintPressureEP7QWidget
FemGui.so:_ZN6FemGui25TaskFemConstraintPressureD0Ev
FemGui.so:_ZN6FemGui25TaskFemConstraintPressureD1Ev
FemGui.so:_ZN6FemGui25TaskFemConstraintPressureD2Ev
FemGui.so:_ZN6FemGui25ViewProviderFemConstraint10createConeEP11SoSeparatordd
FemGui.so:_ZN6FemGui25ViewProviderFemConstraint10createConeEdd
FemGui.so:_ZN6FemGui25ViewProviderFemConstraint10createCubeEP11SoSeparatorddd
FemGui.so:_ZN6FemGui25ViewProviderFemConstraint10createCubeEddd
FemGui.so:_ZN6FemGui25ViewProviderFemConstraint10updateConeEPK6SoNodeidd
FemGui.so:_ZN6FemGui25ViewProviderFemConstraint10updateCubeEPK6SoNodeiddd
FemGui.so:_ZN6FemGui25ViewProviderFemConstraint11createArrowEP11SoSeparatordd
FemGui.so:_ZN6FemGui25ViewProviderFemConstraint11createArrowEdd
FemGui.so:_ZN6FemGui25ViewProviderFemConstraint11createFixedEP11SoSeparatorddb
FemGui.so:_ZN6FemGui25ViewProviderFemConstraint11createFixedEddb
FemGui.so:_ZN6FemGui25ViewProviderFemConstraint11updateArrowEPK6SoNodeidd
FemGui.so:_ZN6FemGui25ViewProviderFemConstraint11updateFixedEPK6SoNodeiddb
FemGui.so:_ZN6FemGui25ViewProviderFemConstraint14checkForWizardEv
FemGui.so:_ZN6FemGui25ViewProviderFemConstraint14createCylinderEP11SoSeparatordd
FemGui.so:_ZN6FemGui25ViewProviderFemConstraint14createCylinderEdd
FemGui.so:_ZN6FemGui25ViewProviderFemConstraint14createRotationEP11SoSeparatorddb
FemGui.so:_ZN6FemGui25ViewProviderFemConstraint14createRotationEddb
FemGui.so:_ZN6FemGui25ViewProviderFemConstraint14getClassTypeIdEv
FemGui.so:_ZN6FemGui25ViewProviderFemConstraint14setDisplayModeEPKc
FemGui.so:_ZN6FemGui25ViewProviderFemConstraint14updateCylinderEPK6SoNodeidd
FemGui.so:_ZN6FemGui25ViewProviderFemConstraint14updateRotationEPK6SoNodeiddb
FemGui.so:_ZN6FemGui25ViewProviderFemConstraint15createPlacementEP11SoSeparatorRK7SbVec3fRK10SbRotation
FemGui.so:_ZN6FemGui25ViewProviderFemConstraint15findChildByNameEPK7QObjectRK7QString
FemGui.so:_ZN6FemGui25ViewProviderFemConstraint15updatePlacementEPK11SoSeparatoriRK7SbVec3fRK10SbRotation
FemGui.so:_ZN6FemGui25ViewProviderFemConstraint16setupContextMenuEP5QMenuP7QObjectPKc
FemGui.so:_ZN6FemGui25ViewProviderFemConstraint18createDisplacementEP11SoSeparatorddb
FemGui.so:_ZN6FemGui25ViewProviderFemConstraint18createDisplacementEddb
FemGui.so:_ZN6FemGui25ViewProviderFemConstraint18getPropertyDataPtrEv
FemGui.so:_ZN6FemGui25ViewProviderFemConstraint18updateDisplacementEPK6SoNodeiddb
FemGui.so:_ZN6FemGui25ViewProviderFemConstraint22gethideMeshShowPartStrB5cxx11Ev
FemGui.so:_ZN6FemGui25ViewProviderFemConstraint22gethideMeshShowPartStrENSt7__cxx1112basic_stringIcSt11char_traitsIcESaIcEEE
FemGui.so:_ZN6FemGui25ViewProviderFemConstraint4initEv
FemGui.so:_ZN6FemGui25ViewProviderFemConstraint6attachEPN3App14DocumentObjectE
FemGui.so:_ZN6FemGui25ViewProviderFemConstraint6createEv
FemGui.so:_ZN6FemGui25ViewProviderFemConstraint7setEditEi
FemGui.so:_ZN6FemGui25ViewProviderFemConstraint9onChangedEPKN3App8PropertyE
FemGui.so:_ZN6FemGui25ViewProviderFemConstraint9unsetEditEi
FemGui.so:_ZN6FemGui25ViewProviderFemConstraintC1Ev
FemGui.so:_ZN6FemGui25ViewProviderFemConstraintC2Ev
FemGui.so:_ZN6FemGui25ViewProviderFemConstraintD0Ev
FemGui.so:_ZN6FemGui25ViewProviderFemConstraintD1Ev
FemGui.so:_ZN6FemGui25ViewProviderFemConstraintD2Ev
FemGui.so:_ZN6FemGui25ViewProviderFemPostObject10updateDataEPKN3App8PropertyE
FemGui.so:_ZN6FemGui25ViewProviderFemPostObject13doubleClickedEv
FemGui.so:_ZN6FemGui25ViewProviderFemPostObject13setupPipelineEv
FemGui.so:_ZN6FemGui25ViewProviderFemPostObject14WriteColorDataEb
FemGui.so:_ZN6FemGui25ViewProviderFemPostObject14WritePointDataEP9vtkPointsP12vtkDataArrayS4_
FemGui.so:_ZN6FemGui25ViewProviderFemPostObject14getClassTypeIdEv
FemGui.so:_ZN6FemGui25ViewProviderFemPostObject14setDisplayModeEPKc
FemGui.so:_ZN6FemGui25ViewProviderFemPostObject15setupTaskDialogEPNS_11TaskDlgPostE
FemGui.so:_ZN6FemGui25ViewProviderFemPostObject16updatePropertiesEv
FemGui.so:_ZN6FemGui25ViewProviderFemPostObject17WriteTransparencyEv
FemGui.so:_ZN6FemGui25ViewProviderFemPostObject18getPropertyDataPtrEv
FemGui.so:_ZN6FemGui25ViewProviderFemPostObject4hideEv
FemGui.so:_ZN6FemGui25ViewProviderFemPostObject4initEv
FemGui.so:_ZN6FemGui25ViewProviderFemPostObject4showEv
FemGui.so:_ZN6FemGui25ViewProviderFemPostObject6attachEPN3App14DocumentObjectE
FemGui.so:_ZN6FemGui25ViewProviderFemPostObject6createEv
FemGui.so:_ZN6FemGui25ViewProviderFemPostObject6updateEv
FemGui.so:_ZN6FemGui25ViewProviderFemPostObject7setEditEi
FemGui.so:_ZN6FemGui25ViewProviderFemPostObject8OnChangeERN4Base7SubjectIiEEi
FemGui.so:_ZN6FemGui25ViewProviderFemPostObject8update3DEv
FemGui.so:_ZN6FemGui25ViewProviderFemPostObject9onChangedEPKN3App8PropertyE
FemGui.so:_ZN6FemGui25ViewProviderFemPostObject9unsetEditEi
FemGui.so:_ZN6FemGui25ViewProviderFemPostObjectC1Ev
FemGui.so:_ZN6FemGui25ViewProviderFemPostObjectC2Ev
FemGui.so:_ZN6FemGui25ViewProviderFemPostObjectD0Ev
FemGui.so:_ZN6FemGui25ViewProviderFemPostObjectD1Ev
FemGui.so:_ZN6FemGui25ViewProviderFemPostObjectD2Ev
FemGui.so:_ZN6FemGui26TaskDlgFemConstraintPulley11qt_metacallEN11QMetaObject4CallEiPPv
FemGui.so:_ZN6FemGui26TaskDlgFemConstraintPulley11qt_metacastEPKc
FemGui.so:_ZN6FemGui26TaskDlgFemConstraintPulley4openEv
FemGui.so:_ZN6FemGui26TaskDlgFemConstraintPulley6acceptEv
FemGui.so:_ZN6FemGui26TaskDlgFemConstraintPulleyC1EPNS_31ViewProviderFemConstraintPulleyE
FemGui.so:_ZN6FemGui26TaskDlgFemConstraintPulleyC2EPNS_31ViewProviderFemConstraintPulleyE
FemGui.so:_ZN6FemGui26TaskFemConstraintTransform11changeEventEP6QEvent
FemGui.so:_ZN6FemGui26TaskFemConstraintTransform11qt_metacallEN11QMetaObject4CallEiPPv
FemGui.so:_ZN6FemGui26TaskFemConstraintTransform11qt_metacastEPKc
FemGui.so:_ZN6FemGui26TaskFemConstraintTransform12setSelectionEP15QListWidgetItem
FemGui.so:_ZN6FemGui26TaskFemConstraintTransform14addToSelectionEv
FemGui.so:_ZN6FemGui26TaskFemConstraintTransform18onReferenceDeletedEv
FemGui.so:_ZN6FemGui26TaskFemConstraintTransform19removeFromSelectionEv
FemGui.so:_ZN6FemGui26TaskFemConstraintTransform20getSurfaceReferencesENSt7__cxx1112basic_stringIcSt11char_traitsIcESaIcEEE
FemGui.so:_ZN6FemGui26TaskFemConstraintTransform3CylEv
FemGui.so:_ZN6FemGui26TaskFemConstraintTransform4RectEv
FemGui.so:_ZN6FemGui26TaskFemConstraintTransform8updateUIEv
FemGui.so:_ZN6FemGui26TaskFemConstraintTransform9x_ChangedEi
FemGui.so:_ZN6FemGui26TaskFemConstraintTransform9y_ChangedEi
FemGui.so:_ZN6FemGui26TaskFemConstraintTransform9z_ChangedEi
FemGui.so:_ZN6FemGui26TaskFemConstraintTransformC1EPNS_34ViewProviderFemConstraintTransformEP7QWidget
FemGui.so:_ZN6FemGui26TaskFemConstraintTransformC2EPNS_34ViewProviderFemConstraintTransformEP7QWidget
FemGui.so:_ZN6FemGui26TaskFemConstraintTransformD0Ev
FemGui.so:_ZN6FemGui26TaskFemConstraintTransformD1Ev
FemGui.so:_ZN6FemGui26TaskFemConstraintTransformD2Ev
FemGui.so:_ZN6FemGui27TaskDlgFemConstraintBearing11qt_metacallEN11QMetaObject4CallEiPPv
FemGui.so:_ZN6FemGui27TaskDlgFemConstraintBearing11qt_metacastEPKc
FemGui.so:_ZN6FemGui27TaskDlgFemConstraintBearing6acceptEv
FemGui.so:_ZN6FemGui27TaskDlgFemConstraintBearingC1EPNS_32ViewProviderFemConstraintBearingE
FemGui.so:_ZN6FemGui27TaskDlgFemConstraintBearingC2EPNS_32ViewProviderFemConstraintBearingE
FemGui.so:_ZN6FemGui27TaskDlgFemConstraintContact11qt_metacallEN11QMetaObject4CallEiPPv
FemGui.so:_ZN6FemGui27TaskDlgFemConstraintContact11qt_metacastEPKc
FemGui.so:_ZN6FemGui27TaskDlgFemConstraintContact4openEv
FemGui.so:_ZN6FemGui27TaskDlgFemConstraintContact6acceptEv
FemGui.so:_ZN6FemGui27TaskDlgFemConstraintContact6rejectEv
FemGui.so:_ZN6FemGui27TaskDlgFemConstraintContactC1EPNS_32ViewProviderFemConstraintContactE
FemGui.so:_ZN6FemGui27TaskDlgFemConstraintContactC2EPNS_32ViewProviderFemConstraintContactE
FemGui.so:_ZN6FemGui27ViewProviderFemPostFunction13doubleClickedEv
FemGui.so:_ZN6FemGui27ViewProviderFemPostFunction14getClassTypeIdEv
FemGui.so:_ZN6FemGui27ViewProviderFemPostFunction16setupManipulatorEv
FemGui.so:_ZN6FemGui27ViewProviderFemPostFunction17dragStartCallbackEPvP9SoDragger
FemGui.so:_ZN6FemGui27ViewProviderFemPostFunction18dragFinishCallbackEPvP9SoDragger
FemGui.so:_ZN6FemGui27ViewProviderFemPostFunction18dragMotionCallbackEPvP9SoDragger
FemGui.so:_ZN6FemGui27ViewProviderFemPostFunction18getPropertyDataPtrEv
FemGui.so:_ZN6FemGui27ViewProviderFemPostFunction4initEv
FemGui.so:_ZN6FemGui27ViewProviderFemPostFunction6attachEPN3App14DocumentObjectE
FemGui.so:_ZN6FemGui27ViewProviderFemPostFunction6createEv
FemGui.so:_ZN6FemGui27ViewProviderFemPostFunction7setEditEi
FemGui.so:_ZN6FemGui27ViewProviderFemPostFunction9onChangedEPKN3App8PropertyE
FemGui.so:_ZN6FemGui27ViewProviderFemPostFunction9unsetEditEi
FemGui.so:_ZN6FemGui27ViewProviderFemPostFunctionC1Ev
FemGui.so:_ZN6FemGui27ViewProviderFemPostFunctionC2Ev
FemGui.so:_ZN6FemGui27ViewProviderFemPostFunctionD0Ev
FemGui.so:_ZN6FemGui27ViewProviderFemPostFunctionD1Ev
FemGui.so:_ZN6FemGui27ViewProviderFemPostFunctionD2Ev
FemGui.so:_ZN6FemGui27ViewProviderFemPostPipeline10updateDataEPKN3App8PropertyE
FemGui.so:_ZN6FemGui27ViewProviderFemPostPipeline14getClassTypeIdEv
FemGui.so:_ZN6FemGui27ViewProviderFemPostPipeline18getPropertyDataPtrEv
FemGui.so:_ZN6FemGui27ViewProviderFemPostPipeline18updateFunctionSizeEv
FemGui.so:_ZN6FemGui27ViewProviderFemPostPipeline4initEv
FemGui.so:_ZN6FemGui27ViewProviderFemPostPipeline6createEv
FemGui.so:_ZN6FemGui27ViewProviderFemPostPipelineC1Ev
FemGui.so:_ZN6FemGui27ViewProviderFemPostPipelineC2Ev
FemGui.so:_ZN6FemGui27ViewProviderFemPostPipelineD0Ev
FemGui.so:_ZN6FemGui27ViewProviderFemPostPipelineD1Ev
FemGui.so:_ZN6FemGui27ViewProviderFemPostPipelineD2Ev
FemGui.so:_ZN6FemGui28TaskDlgFemConstraintHeatflux11qt_metacallEN11QMetaObject4CallEiPPv
FemGui.so:_ZN6FemGui28TaskDlgFemConstraintHeatflux11qt_metacastEPKc
FemGui.so:_ZN6FemGui28TaskDlgFemConstraintHeatflux4openEv
FemGui.so:_ZN6FemGui28TaskDlgFemConstraintHeatflux6acceptEv
FemGui.so:_ZN6FemGui28TaskDlgFemConstraintHeatflux6rejectEv
FemGui.so:_ZN6FemGui28TaskDlgFemConstraintHeatfluxC1EPNS_33ViewProviderFemConstraintHeatfluxE
FemGui.so:_ZN6FemGui28TaskDlgFemConstraintHeatfluxC2EPNS_33ViewProviderFemConstraintHeatfluxE
FemGui.so:_ZN6FemGui28TaskDlgFemConstraintPressure11qt_metacallEN11QMetaObject4CallEiPPv
FemGui.so:_ZN6FemGui28TaskDlgFemConstraintPressure11qt_metacastEPKc
FemGui.so:_ZN6FemGui28TaskDlgFemConstraintPressure4openEv
FemGui.so:_ZN6FemGui28TaskDlgFemConstraintPressure6acceptEv
FemGui.so:_ZN6FemGui28TaskDlgFemConstraintPressure6rejectEv
FemGui.so:_ZN6FemGui28TaskDlgFemConstraintPressureC1EPNS_33ViewProviderFemConstraintPressureE
FemGui.so:_ZN6FemGui28TaskDlgFemConstraintPressureC2EPNS_33ViewProviderFemConstraintPressureE
FemGui.so:_ZN6FemGui28TaskFemConstraintTemperature11changeEventEP6QEvent
FemGui.so:_ZN6FemGui28TaskFemConstraintTemperature11qt_metacallEN11QMetaObject4CallEiPPv
FemGui.so:_ZN6FemGui28TaskFemConstraintTemperature11qt_metacastEPKc
FemGui.so:_ZN6FemGui28TaskFemConstraintTemperature12setSelectionEP15QListWidgetItem
FemGui.so:_ZN6FemGui28TaskFemConstraintTemperature14addToSelectionEv
FemGui.so:_ZN6FemGui28TaskFemConstraintTemperature18onReferenceDeletedEv
FemGui.so:_ZN6FemGui28TaskFemConstraintTemperature18onTempCfluxChangedEd
FemGui.so:_ZN6FemGui28TaskFemConstraintTemperature19removeFromSelectionEv
FemGui.so:_ZN6FemGui28TaskFemConstraintTemperature4FluxEv
FemGui.so:_ZN6FemGui28TaskFemConstraintTemperature4TempEv
FemGui.so:_ZN6FemGui28TaskFemConstraintTemperature8updateUIEv
FemGui.so:_ZN6FemGui28TaskFemConstraintTemperatureC1EPNS_36ViewProviderFemConstraintTemperatureEP7QWidget
FemGui.so:_ZN6FemGui28TaskFemConstraintTemperatureC2EPNS_36ViewProviderFemConstraintTemperatureEP7QWidget
FemGui.so:_ZN6FemGui28TaskFemConstraintTemperatureD0Ev
FemGui.so:_ZN6FemGui28TaskFemConstraintTemperatureD1Ev
FemGui.so:_ZN6FemGui28TaskFemConstraintTemperatureD2Ev
FemGui.so:_ZN6FemGui29DlgSettingsFemExportAbaqusImp11changeEventEP6QEvent
FemGui.so:_ZN6FemGui29DlgSettingsFemExportAbaqusImp11qt_metacallEN11QMetaObject4CallEiPPv
FemGui.so:_ZN6FemGui29DlgSettingsFemExportAbaqusImp11qt_metacastEPKc
FemGui.so:_ZN6FemGui29DlgSettingsFemExportAbaqusImp12loadSettingsEv
FemGui.so:_ZN6FemGui29DlgSettingsFemExportAbaqusImp12saveSettingsEv
FemGui.so:_ZN6FemGui29DlgSettingsFemExportAbaqusImpC1EP7QWidget
FemGui.so:_ZN6FemGui29DlgSettingsFemExportAbaqusImpC2EP7QWidget
FemGui.so:_ZN6FemGui29DlgSettingsFemExportAbaqusImpD0Ev
FemGui.so:_ZN6FemGui29DlgSettingsFemExportAbaqusImpD1Ev
FemGui.so:_ZN6FemGui29DlgSettingsFemExportAbaqusImpD2Ev
FemGui.so:_ZN6FemGui29TaskDlgFemConstraintTransform11qt_metacallEN11QMetaObject4CallEiPPv
FemGui.so:_ZN6FemGui29TaskDlgFemConstraintTransform11qt_metacastEPKc
FemGui.so:_ZN6FemGui29TaskDlgFemConstraintTransform4openEv
FemGui.so:_ZN6FemGui29TaskDlgFemConstraintTransform6acceptEv
FemGui.so:_ZN6FemGui29TaskDlgFemConstraintTransform6rejectEv
FemGui.so:_ZN6FemGui29TaskDlgFemConstraintTransformC1EPNS_34ViewProviderFemConstraintTransformE
FemGui.so:_ZN6FemGui29TaskDlgFemConstraintTransformC2EPNS_34ViewProviderFemConstraintTransformE
FemGui.so:_ZN6FemGui29TaskFemConstraintDisplacement11changeEventEP6QEvent
FemGui.so:_ZN6FemGui29TaskFemConstraintDisplacement11qt_metacallEN11QMetaObject4CallEiPPv
FemGui.so:_ZN6FemGui29TaskFemConstraintDisplacement11qt_metacastEPKc
FemGui.so:_ZN6FemGui29TaskFemConstraintDisplacement12setSelectionEP15QListWidgetItem
FemGui.so:_ZN6FemGui29TaskFemConstraintDisplacement14addToSelectionEv
FemGui.so:_ZN6FemGui29TaskFemConstraintDisplacement18onReferenceDeletedEv
FemGui.so:_ZN6FemGui29TaskFemConstraintDisplacement19removeFromSelectionEv
FemGui.so:_ZN6FemGui29TaskFemConstraintDisplacement4fixxEi
FemGui.so:_ZN6FemGui29TaskFemConstraintDisplacement4fixyEi
FemGui.so:_ZN6FemGui29TaskFemConstraintDisplacement4fixzEi
FemGui.so:_ZN6FemGui29TaskFemConstraintDisplacement5freexEi
FemGui.so:_ZN6FemGui29TaskFemConstraintDisplacement5freeyEi
FemGui.so:_ZN6FemGui29TaskFemConstraintDisplacement5freezEi
FemGui.so:_ZN6FemGui29TaskFemConstraintDisplacement5x_rotEd
FemGui.so:_ZN6FemGui29TaskFemConstraintDisplacement5y_rotEd
FemGui.so:_ZN6FemGui29TaskFemConstraintDisplacement5z_rotEd
FemGui.so:_ZN6FemGui29TaskFemConstraintDisplacement7rotfixxEi
FemGui.so:_ZN6FemGui29TaskFemConstraintDisplacement7rotfixyEi
FemGui.so:_ZN6FemGui29TaskFemConstraintDisplacement7rotfixzEi
FemGui.so:_ZN6FemGui29TaskFemConstraintDisplacement8rotfreexEi
FemGui.so:_ZN6FemGui29TaskFemConstraintDisplacement8rotfreeyEi
FemGui.so:_ZN6FemGui29TaskFemConstraintDisplacement8rotfreezEi
FemGui.so:_ZN6FemGui29TaskFemConstraintDisplacement8updateUIEv
FemGui.so:_ZN6FemGui29TaskFemConstraintDisplacement9x_changedEd
FemGui.so:_ZN6FemGui29TaskFemConstraintDisplacement9y_changedEd
FemGui.so:_ZN6FemGui29TaskFemConstraintDisplacement9z_changedEd
FemGui.so:_ZN6FemGui29TaskFemConstraintDisplacementC1EPNS_37ViewProviderFemConstraintDisplacementEP7QWidget
FemGui.so:_ZN6FemGui29TaskFemConstraintDisplacementC2EPNS_37ViewProviderFemConstraintDisplacementEP7QWidget
FemGui.so:_ZN6FemGui29TaskFemConstraintDisplacementD0Ev
FemGui.so:_ZN6FemGui29TaskFemConstraintDisplacementD1Ev
FemGui.so:_ZN6FemGui29TaskFemConstraintDisplacementD2Ev
FemGui.so:_ZN6FemGui29ViewProviderFemConstraintGear10updateDataEPKN3App8PropertyE
FemGui.so:_ZN6FemGui29ViewProviderFemConstraintGear14getClassTypeIdEv
FemGui.so:_ZN6FemGui29ViewProviderFemConstraintGear18getPropertyDataPtrEv
FemGui.so:_ZN6FemGui29ViewProviderFemConstraintGear4initEv
FemGui.so:_ZN6FemGui29ViewProviderFemConstraintGear6createEv
FemGui.so:_ZN6FemGui29ViewProviderFemConstraintGear7setEditEi
FemGui.so:_ZN6FemGui29ViewProviderFemConstraintGearC1Ev
FemGui.so:_ZN6FemGui29ViewProviderFemConstraintGearC2Ev
FemGui.so:_ZN6FemGui29ViewProviderFemConstraintGearD0Ev
FemGui.so:_ZN6FemGui29ViewProviderFemConstraintGearD1Ev
FemGui.so:_ZN6FemGui29ViewProviderFemConstraintGearD2Ev
FemGui.so:_ZN6FemGui29ViewProviderFemPostScalarClip14getClassTypeIdEv
FemGui.so:_ZN6FemGui29ViewProviderFemPostScalarClip15setupTaskDialogEPNS_11TaskDlgPostE
FemGui.so:_ZN6FemGui29ViewProviderFemPostScalarClip18getPropertyDataPtrEv
FemGui.so:_ZN6FemGui29ViewProviderFemPostScalarClip4initEv
FemGui.so:_ZN6FemGui29ViewProviderFemPostScalarClip6createEv
FemGui.so:_ZN6FemGui29ViewProviderFemPostScalarClipC1Ev
FemGui.so:_ZN6FemGui29ViewProviderFemPostScalarClipC2Ev
FemGui.so:_ZN6FemGui29ViewProviderFemPostScalarClipD0Ev
FemGui.so:_ZN6FemGui29ViewProviderFemPostScalarClipD1Ev
FemGui.so:_ZN6FemGui29ViewProviderFemPostScalarClipD2Ev
FemGui.so:_ZN6FemGui29ViewProviderFemPostWarpVector14getClassTypeIdEv
FemGui.so:_ZN6FemGui29ViewProviderFemPostWarpVector15setupTaskDialogEPNS_11TaskDlgPostE
FemGui.so:_ZN6FemGui29ViewProviderFemPostWarpVector18getPropertyDataPtrEv
FemGui.so:_ZN6FemGui29ViewProviderFemPostWarpVector4initEv
FemGui.so:_ZN6FemGui29ViewProviderFemPostWarpVector6createEv
FemGui.so:_ZN6FemGui29ViewProviderFemPostWarpVectorC1Ev
FemGui.so:_ZN6FemGui29ViewProviderFemPostWarpVectorC2Ev
FemGui.so:_ZN6FemGui29ViewProviderFemPostWarpVectorD0Ev
FemGui.so:_ZN6FemGui29ViewProviderFemPostWarpVectorD1Ev
FemGui.so:_ZN6FemGui29ViewProviderFemPostWarpVectorD2Ev
FemGui.so:_ZN6FemGui30TaskFemConstraintFluidBoundary11changeEventEP6QEvent
FemGui.so:_ZN6FemGui30TaskFemConstraintFluidBoundary11qt_metacallEN11QMetaObject4CallEiPPv
FemGui.so:_ZN6FemGui30TaskFemConstraintFluidBoundary11qt_metacastEPKc
FemGui.so:_ZN6FemGui30TaskFemConstraintFluidBoundary14onCheckReverseEb
FemGui.so:_ZN6FemGui30TaskFemConstraintFluidBoundary15updateSubtypeUIEv
FemGui.so:_ZN6FemGui30TaskFemConstraintFluidBoundary16onSubtypeChangedEv
FemGui.so:_ZN6FemGui30TaskFemConstraintFluidBoundary17onButtonDirectionEb
FemGui.so:_ZN6FemGui30TaskFemConstraintFluidBoundary17updateSelectionUIEv
FemGui.so:_ZN6FemGui30TaskFemConstraintFluidBoundary18onReferenceDeletedEv
FemGui.so:_ZN6FemGui30TaskFemConstraintFluidBoundary18onSelectionChangedERKN3Gui16SelectionChangesE
FemGui.so:_ZN6FemGui30TaskFemConstraintFluidBoundary18updateTurbulenceUIEv
FemGui.so:_ZN6FemGui30TaskFemConstraintFluidBoundary20updateBoundaryTypeUIEv
FemGui.so:_ZN6FemGui30TaskFemConstraintFluidBoundary21onBoundaryTypeChangedEv
FemGui.so:_ZN6FemGui30TaskFemConstraintFluidBoundary22onBoundaryValueChangedEd
FemGui.so:_ZN6FemGui30TaskFemConstraintFluidBoundary23updateThermalBoundaryUIEv
FemGui.so:_ZN6FemGui30TaskFemConstraintFluidBoundary28onThermalBoundaryTypeChangedEv
FemGui.so:_ZN6FemGui30TaskFemConstraintFluidBoundary32onTurbulenceSpecificationChangedEv
FemGui.so:_ZN6FemGui30TaskFemConstraintFluidBoundaryC1EPNS_38ViewProviderFemConstraintFluidBoundaryEP7QWidget
FemGui.so:_ZN6FemGui30TaskFemConstraintFluidBoundaryC2EPNS_38ViewProviderFemConstraintFluidBoundaryEP7QWidget
FemGui.so:_ZN6FemGui30TaskFemConstraintFluidBoundaryD0Ev
FemGui.so:_ZN6FemGui30TaskFemConstraintFluidBoundaryD1Ev
FemGui.so:_ZN6FemGui30TaskFemConstraintFluidBoundaryD2Ev
FemGui.so:_ZN6FemGui30TaskFemConstraintPlaneRotation11changeEventEP6QEvent
FemGui.so:_ZN6FemGui30TaskFemConstraintPlaneRotation11qt_metacallEN11QMetaObject4CallEiPPv
FemGui.so:_ZN6FemGui30TaskFemConstraintPlaneRotation11qt_metacastEPKc
FemGui.so:_ZN6FemGui30TaskFemConstraintPlaneRotation12setSelectionEP15QListWidgetItem
FemGui.so:_ZN6FemGui30TaskFemConstraintPlaneRotation14addToSelectionEv
FemGui.so:_ZN6FemGui30TaskFemConstraintPlaneRotation18onReferenceDeletedEv
FemGui.so:_ZN6FemGui30TaskFemConstraintPlaneRotation19removeFromSelectionEv
FemGui.so:_ZN6FemGui30TaskFemConstraintPlaneRotation8updateUIEv
FemGui.so:_ZN6FemGui30TaskFemConstraintPlaneRotationC1EPNS_38ViewProviderFemConstraintPlaneRotationEP7QWidget
FemGui.so:_ZN6FemGui30TaskFemConstraintPlaneRotationC2EPNS_38ViewProviderFemConstraintPlaneRotationEP7QWidget
FemGui.so:_ZN6FemGui30TaskFemConstraintPlaneRotationD0Ev
FemGui.so:_ZN6FemGui30TaskFemConstraintPlaneRotationD1Ev
FemGui.so:_ZN6FemGui30TaskFemConstraintPlaneRotationD2Ev
FemGui.so:_ZN6FemGui30ViewProviderFemConstraintFixed10updateDataEPKN3App8PropertyE
FemGui.so:_ZN6FemGui30ViewProviderFemConstraintFixed14getClassTypeIdEv
FemGui.so:_ZN6FemGui30ViewProviderFemConstraintFixed18getPropertyDataPtrEv
FemGui.so:_ZN6FemGui30ViewProviderFemConstraintFixed4initEv
FemGui.so:_ZN6FemGui30ViewProviderFemConstraintFixed6createEv
FemGui.so:_ZN6FemGui30ViewProviderFemConstraintFixed7setEditEi
FemGui.so:_ZN6FemGui30ViewProviderFemConstraintFixedC1Ev
FemGui.so:_ZN6FemGui30ViewProviderFemConstraintFixedC2Ev
FemGui.so:_ZN6FemGui30ViewProviderFemConstraintFixedD0Ev
FemGui.so:_ZN6FemGui30ViewProviderFemConstraintFixedD1Ev
FemGui.so:_ZN6FemGui30ViewProviderFemConstraintFixedD2Ev
FemGui.so:_ZN6FemGui30ViewProviderFemConstraintForce10updateDataEPKN3App8PropertyE
FemGui.so:_ZN6FemGui30ViewProviderFemConstraintForce14getClassTypeIdEv
FemGui.so:_ZN6FemGui30ViewProviderFemConstraintForce18getPropertyDataPtrEv
FemGui.so:_ZN6FemGui30ViewProviderFemConstraintForce4initEv
FemGui.so:_ZN6FemGui30ViewProviderFemConstraintForce6createEv
FemGui.so:_ZN6FemGui30ViewProviderFemConstraintForce7setEditEi
FemGui.so:_ZN6FemGui30ViewProviderFemConstraintForceC1Ev
FemGui.so:_ZN6FemGui30ViewProviderFemConstraintForceC2Ev
FemGui.so:_ZN6FemGui30ViewProviderFemConstraintForceD0Ev
FemGui.so:_ZN6FemGui30ViewProviderFemConstraintForceD1Ev
FemGui.so:_ZN6FemGui30ViewProviderFemConstraintForceD2Ev
FemGui.so:_ZN6FemGui30ViewProviderFemMeshShapeNetgen10updateDataEPKN3App8PropertyE
FemGui.so:_ZN6FemGui30ViewProviderFemMeshShapeNetgen14getClassTypeIdEv
FemGui.so:_ZN6FemGui30ViewProviderFemMeshShapeNetgen16setupContextMenuEP5QMenuP7QObjectPKc
FemGui.so:_ZN6FemGui30ViewProviderFemMeshShapeNetgen18getPropertyDataPtrEv
FemGui.so:_ZN6FemGui30ViewProviderFemMeshShapeNetgen4initEv
FemGui.so:_ZN6FemGui30ViewProviderFemMeshShapeNetgen6createEv
FemGui.so:_ZN6FemGui30ViewProviderFemMeshShapeNetgen7setEditEi
FemGui.so:_ZN6FemGui30ViewProviderFemMeshShapeNetgenC1Ev
FemGui.so:_ZN6FemGui30ViewProviderFemMeshShapeNetgenC2Ev
FemGui.so:_ZN6FemGui30ViewProviderFemMeshShapeNetgenD0Ev
FemGui.so:_ZN6FemGui30ViewProviderFemMeshShapeNetgenD1Ev
FemGui.so:_ZN6FemGui30ViewProviderFemMeshShapeNetgenD2Ev
FemGui.so:_ZN6FemGui30ViewProviderFemPostDataAtPoint14getClassTypeIdEv
FemGui.so:_ZN6FemGui30ViewProviderFemPostDataAtPoint15setupTaskDialogEPNS_11TaskDlgPostE
FemGui.so:_ZN6FemGui30ViewProviderFemPostDataAtPoint18getPropertyDataPtrEv
FemGui.so:_ZN6FemGui30ViewProviderFemPostDataAtPoint4initEv
FemGui.so:_ZN6FemGui30ViewProviderFemPostDataAtPoint6createEv
FemGui.so:_ZN6FemGui30ViewProviderFemPostDataAtPointC1Ev
FemGui.so:_ZN6FemGui30ViewProviderFemPostDataAtPointC2Ev
FemGui.so:_ZN6FemGui30ViewProviderFemPostDataAtPointD0Ev
FemGui.so:_ZN6FemGui30ViewProviderFemPostDataAtPointD1Ev
FemGui.so:_ZN6FemGui30ViewProviderFemPostDataAtPointD2Ev
FemGui.so:_ZN6FemGui31TaskDlgFemConstraintTemperature11qt_metacallEN11QMetaObject4CallEiPPv
FemGui.so:_ZN6FemGui31TaskDlgFemConstraintTemperature11qt_metacastEPKc
FemGui.so:_ZN6FemGui31TaskDlgFemConstraintTemperature4openEv
FemGui.so:_ZN6FemGui31TaskDlgFemConstraintTemperature6acceptEv
FemGui.so:_ZN6FemGui31TaskDlgFemConstraintTemperature6rejectEv
FemGui.so:_ZN6FemGui31TaskDlgFemConstraintTemperatureC1EPNS_36ViewProviderFemConstraintTemperatureE
FemGui.so:_ZN6FemGui31TaskDlgFemConstraintTemperatureC2EPNS_36ViewProviderFemConstraintTemperatureE
FemGui.so:_ZN6FemGui31ViewProviderFemConstraintPulley10updateDataEPKN3App8PropertyE
FemGui.so:_ZN6FemGui31ViewProviderFemConstraintPulley14getClassTypeIdEv
FemGui.so:_ZN6FemGui31ViewProviderFemConstraintPulley18getPropertyDataPtrEv
FemGui.so:_ZN6FemGui31ViewProviderFemConstraintPulley4initEv
FemGui.so:_ZN6FemGui31ViewProviderFemConstraintPulley6createEv
FemGui.so:_ZN6FemGui31ViewProviderFemConstraintPulley7setEditEi
FemGui.so:_ZN6FemGui31ViewProviderFemConstraintPulleyC1Ev
FemGui.so:_ZN6FemGui31ViewProviderFemConstraintPulleyC2Ev
FemGui.so:_ZN6FemGui31ViewProviderFemConstraintPulleyD0Ev
FemGui.so:_ZN6FemGui31ViewProviderFemConstraintPulleyD1Ev
FemGui.so:_ZN6FemGui31ViewProviderFemConstraintPulleyD2Ev
FemGui.so:_ZN6FemGui32TaskDlgFemConstraintDisplacement11qt_metacallEN11QMetaObject4CallEiPPv
FemGui.so:_ZN6FemGui32TaskDlgFemConstraintDisplacement11qt_metacastEPKc
FemGui.so:_ZN6FemGui32TaskDlgFemConstraintDisplacement4openEv
FemGui.so:_ZN6FemGui32TaskDlgFemConstraintDisplacement6acceptEv
FemGui.so:_ZN6FemGui32TaskDlgFemConstraintDisplacement6rejectEv
FemGui.so:_ZN6FemGui32TaskDlgFemConstraintDisplacementC1EPNS_37ViewProviderFemConstraintDisplacementE
FemGui.so:_ZN6FemGui32TaskDlgFemConstraintDisplacementC2EPNS_37ViewProviderFemConstraintDisplacementE
FemGui.so:_ZN6FemGui32ViewProviderFemConstraintBearing10updateDataEPKN3App8PropertyE
FemGui.so:_ZN6FemGui32ViewProviderFemConstraintBearing14getClassTypeIdEv
FemGui.so:_ZN6FemGui32ViewProviderFemConstraintBearing18getPropertyDataPtrEv
FemGui.so:_ZN6FemGui32ViewProviderFemConstraintBearing4initEv
FemGui.so:_ZN6FemGui32ViewProviderFemConstraintBearing6createEv
FemGui.so:_ZN6FemGui32ViewProviderFemConstraintBearing7setEditEi
FemGui.so:_ZN6FemGui32ViewProviderFemConstraintBearingC1Ev
FemGui.so:_ZN6FemGui32ViewProviderFemConstraintBearingC2Ev
FemGui.so:_ZN6FemGui32ViewProviderFemConstraintBearingD0Ev
FemGui.so:_ZN6FemGui32ViewProviderFemConstraintBearingD1Ev
FemGui.so:_ZN6FemGui32ViewProviderFemConstraintBearingD2Ev
FemGui.so:_ZN6FemGui32ViewProviderFemConstraintContact10updateDataEPKN3App8PropertyE
FemGui.so:_ZN6FemGui32ViewProviderFemConstraintContact14getClassTypeIdEv
FemGui.so:_ZN6FemGui32ViewProviderFemConstraintContact18getPropertyDataPtrEv
FemGui.so:_ZN6FemGui32ViewProviderFemConstraintContact4initEv
FemGui.so:_ZN6FemGui32ViewProviderFemConstraintContact6createEv
FemGui.so:_ZN6FemGui32ViewProviderFemConstraintContact7setEditEi
FemGui.so:_ZN6FemGui32ViewProviderFemConstraintContactC1Ev
FemGui.so:_ZN6FemGui32ViewProviderFemConstraintContactC2Ev
FemGui.so:_ZN6FemGui32ViewProviderFemConstraintContactD0Ev
FemGui.so:_ZN6FemGui32ViewProviderFemConstraintContactD1Ev
FemGui.so:_ZN6FemGui32ViewProviderFemConstraintContactD2Ev
FemGui.so:_ZN6FemGui32ViewProviderFemPostDataAlongLine14getClassTypeIdEv
FemGui.so:_ZN6FemGui32ViewProviderFemPostDataAlongLine15setupTaskDialogEPNS_11TaskDlgPostE
FemGui.so:_ZN6FemGui32ViewProviderFemPostDataAlongLine18getPropertyDataPtrEv
FemGui.so:_ZN6FemGui32ViewProviderFemPostDataAlongLine4initEv
FemGui.so:_ZN6FemGui32ViewProviderFemPostDataAlongLine6createEv
FemGui.so:_ZN6FemGui32ViewProviderFemPostDataAlongLineC1Ev
FemGui.so:_ZN6FemGui32ViewProviderFemPostDataAlongLineC2Ev
FemGui.so:_ZN6FemGui32ViewProviderFemPostDataAlongLineD0Ev
FemGui.so:_ZN6FemGui32ViewProviderFemPostDataAlongLineD1Ev
FemGui.so:_ZN6FemGui32ViewProviderFemPostDataAlongLineD2Ev
FemGui.so:_ZN6FemGui32ViewProviderFemPostPlaneFunction10updateDataEPKN3App8PropertyE
FemGui.so:_ZN6FemGui32ViewProviderFemPostPlaneFunction13draggerUpdateEP9SoDragger
FemGui.so:_ZN6FemGui32ViewProviderFemPostPlaneFunction14getClassTypeIdEv
FemGui.so:_ZN6FemGui32ViewProviderFemPostPlaneFunction18getPropertyDataPtrEv
FemGui.so:_ZN6FemGui32ViewProviderFemPostPlaneFunction19createControlWidgetEv
FemGui.so:_ZN6FemGui32ViewProviderFemPostPlaneFunction4initEv
FemGui.so:_ZN6FemGui32ViewProviderFemPostPlaneFunction6createEv
FemGui.so:_ZN6FemGui32ViewProviderFemPostPlaneFunctionC1Ev
FemGui.so:_ZN6FemGui32ViewProviderFemPostPlaneFunctionC2Ev
FemGui.so:_ZN6FemGui32ViewProviderFemPostPlaneFunctionD0Ev
FemGui.so:_ZN6FemGui32ViewProviderFemPostPlaneFunctionD1Ev
FemGui.so:_ZN6FemGui32ViewProviderFemPostPlaneFunctionD2Ev
FemGui.so:_ZN6FemGui33TaskDlgFemConstraintFluidBoundary11qt_metacallEN11QMetaObject4CallEiPPv
FemGui.so:_ZN6FemGui33TaskDlgFemConstraintFluidBoundary11qt_metacastEPKc
FemGui.so:_ZN6FemGui33TaskDlgFemConstraintFluidBoundary4openEv
FemGui.so:_ZN6FemGui33TaskDlgFemConstraintFluidBoundary6acceptEv
FemGui.so:_ZN6FemGui33TaskDlgFemConstraintFluidBoundary6rejectEv
FemGui.so:_ZN6FemGui33TaskDlgFemConstraintFluidBoundaryC1EPNS_38ViewProviderFemConstraintFluidBoundaryE
FemGui.so:_ZN6FemGui33TaskDlgFemConstraintFluidBoundaryC2EPNS_38ViewProviderFemConstraintFluidBoundaryE
FemGui.so:_ZN6FemGui33TaskDlgFemConstraintPlaneRotation11qt_metacallEN11QMetaObject4CallEiPPv
FemGui.so:_ZN6FemGui33TaskDlgFemConstraintPlaneRotation11qt_metacastEPKc
FemGui.so:_ZN6FemGui33TaskDlgFemConstraintPlaneRotation4openEv
FemGui.so:_ZN6FemGui33TaskDlgFemConstraintPlaneRotation6acceptEv
FemGui.so:_ZN6FemGui33TaskDlgFemConstraintPlaneRotation6rejectEv
FemGui.so:_ZN6FemGui33TaskDlgFemConstraintPlaneRotationC1EPNS_38ViewProviderFemConstraintPlaneRotationE
FemGui.so:_ZN6FemGui33TaskDlgFemConstraintPlaneRotationC2EPNS_38ViewProviderFemConstraintPlaneRotationE
FemGui.so:_ZN6FemGui33ViewProviderFemConstraintHeatflux10updateDataEPKN3App8PropertyE
FemGui.so:_ZN6FemGui33ViewProviderFemConstraintHeatflux14getClassTypeIdEv
FemGui.so:_ZN6FemGui33ViewProviderFemConstraintHeatflux18getPropertyDataPtrEv
FemGui.so:_ZN6FemGui33ViewProviderFemConstraintHeatflux4initEv
FemGui.so:_ZN6FemGui33ViewProviderFemConstraintHeatflux6createEv
FemGui.so:_ZN6FemGui33ViewProviderFemConstraintHeatflux7setEditEi
FemGui.so:_ZN6FemGui33ViewProviderFemConstraintHeatfluxC1Ev
FemGui.so:_ZN6FemGui33ViewProviderFemConstraintHeatfluxC2Ev
FemGui.so:_ZN6FemGui33ViewProviderFemConstraintHeatfluxD0Ev
FemGui.so:_ZN6FemGui33ViewProviderFemConstraintHeatfluxD1Ev
FemGui.so:_ZN6FemGui33ViewProviderFemConstraintHeatfluxD2Ev
FemGui.so:_ZN6FemGui33ViewProviderFemConstraintPressure10updateDataEPKN3App8PropertyE
FemGui.so:_ZN6FemGui33ViewProviderFemConstraintPressure14getClassTypeIdEv
FemGui.so:_ZN6FemGui33ViewProviderFemConstraintPressure18getPropertyDataPtrEv
FemGui.so:_ZN6FemGui33ViewProviderFemConstraintPressure4initEv
FemGui.so:_ZN6FemGui33ViewProviderFemConstraintPressure6createEv
FemGui.so:_ZN6FemGui33ViewProviderFemConstraintPressure7setEditEi
FemGui.so:_ZN6FemGui33ViewProviderFemConstraintPressureC1Ev
FemGui.so:_ZN6FemGui33ViewProviderFemConstraintPressureC2Ev
FemGui.so:_ZN6FemGui33ViewProviderFemConstraintPressureD0Ev
FemGui.so:_ZN6FemGui33ViewProviderFemConstraintPressureD1Ev
FemGui.so:_ZN6FemGui33ViewProviderFemConstraintPressureD2Ev
FemGui.so:_ZN6FemGui33ViewProviderFemPostSphereFunction10updateDataEPKN3App8PropertyE
FemGui.so:_ZN6FemGui33ViewProviderFemPostSphereFunction13draggerUpdateEP9SoDragger
FemGui.so:_ZN6FemGui33ViewProviderFemPostSphereFunction14getClassTypeIdEv
FemGui.so:_ZN6FemGui33ViewProviderFemPostSphereFunction16setupManipulatorEv
FemGui.so:_ZN6FemGui33ViewProviderFemPostSphereFunction18getPropertyDataPtrEv
FemGui.so:_ZN6FemGui33ViewProviderFemPostSphereFunction19createControlWidgetEv
FemGui.so:_ZN6FemGui33ViewProviderFemPostSphereFunction4initEv
FemGui.so:_ZN6FemGui33ViewProviderFemPostSphereFunction6createEv
FemGui.so:_ZN6FemGui33ViewProviderFemPostSphereFunctionC1Ev
FemGui.so:_ZN6FemGui33ViewProviderFemPostSphereFunctionC2Ev
FemGui.so:_ZN6FemGui33ViewProviderFemPostSphereFunctionD0Ev
FemGui.so:_ZN6FemGui33ViewProviderFemPostSphereFunctionD1Ev
FemGui.so:_ZN6FemGui33ViewProviderFemPostSphereFunctionD2Ev
FemGui.so:_ZN6FemGui34ViewProviderFemConstraintTransform10updateDataEPKN3App8PropertyE
FemGui.so:_ZN6FemGui34ViewProviderFemConstraintTransform14getClassTypeIdEv
FemGui.so:_ZN6FemGui34ViewProviderFemConstraintTransform18getPropertyDataPtrEv
FemGui.so:_ZN6FemGui34ViewProviderFemConstraintTransform4initEv
FemGui.so:_ZN6FemGui34ViewProviderFemConstraintTransform6createEv
FemGui.so:_ZN6FemGui34ViewProviderFemConstraintTransform7setEditEi
FemGui.so:_ZN6FemGui34ViewProviderFemConstraintTransformC1Ev
FemGui.so:_ZN6FemGui34ViewProviderFemConstraintTransformC2Ev
FemGui.so:_ZN6FemGui34ViewProviderFemConstraintTransformD0Ev
FemGui.so:_ZN6FemGui34ViewProviderFemConstraintTransformD1Ev
FemGui.so:_ZN6FemGui34ViewProviderFemConstraintTransformD2Ev
FemGui.so:_ZN6FemGui35TaskFemConstraintInitialTemperature11changeEventEP6QEvent
FemGui.so:_ZN6FemGui35TaskFemConstraintInitialTemperature11qt_metacallEN11QMetaObject4CallEiPPv
FemGui.so:_ZN6FemGui35TaskFemConstraintInitialTemperature11qt_metacastEPKc
FemGui.so:_ZN6FemGui35TaskFemConstraintInitialTemperatureC1EPNS_43ViewProviderFemConstraintInitialTemperatureEP7QWidget
FemGui.so:_ZN6FemGui35TaskFemConstraintInitialTemperatureC2EPNS_43ViewProviderFemConstraintInitialTemperatureEP7QWidget
FemGui.so:_ZN6FemGui35TaskFemConstraintInitialTemperatureD0Ev
FemGui.so:_ZN6FemGui35TaskFemConstraintInitialTemperatureD1Ev
FemGui.so:_ZN6FemGui35TaskFemConstraintInitialTemperatureD2Ev
FemGui.so:_ZN6FemGui35ViewProviderFemPostFunctionProvider10updateDataEPKN3App8PropertyE
FemGui.so:_ZN6FemGui35ViewProviderFemPostFunctionProvider10updateSizeEv
FemGui.so:_ZN6FemGui35ViewProviderFemPostFunctionProvider14getClassTypeIdEv
FemGui.so:_ZN6FemGui35ViewProviderFemPostFunctionProvider18getPropertyDataPtrEv
FemGui.so:_ZN6FemGui35ViewProviderFemPostFunctionProvider4initEv
FemGui.so:_ZN6FemGui35ViewProviderFemPostFunctionProvider6createEv
FemGui.so:_ZN6FemGui35ViewProviderFemPostFunctionProvider9onChangedEPKN3App8PropertyE
FemGui.so:_ZN6FemGui35ViewProviderFemPostFunctionProviderC1Ev
FemGui.so:_ZN6FemGui35ViewProviderFemPostFunctionProviderC2Ev
FemGui.so:_ZN6FemGui35ViewProviderFemPostFunctionProviderD0Ev
FemGui.so:_ZN6FemGui35ViewProviderFemPostFunctionProviderD1Ev
FemGui.so:_ZN6FemGui35ViewProviderFemPostFunctionProviderD2Ev
FemGui.so:_ZN6FemGui36ViewProviderFemConstraintTemperature10updateDataEPKN3App8PropertyE
FemGui.so:_ZN6FemGui36ViewProviderFemConstraintTemperature14getClassTypeIdEv
FemGui.so:_ZN6FemGui36ViewProviderFemConstraintTemperature18getPropertyDataPtrEv
FemGui.so:_ZN6FemGui36ViewProviderFemConstraintTemperature4initEv
FemGui.so:_ZN6FemGui36ViewProviderFemConstraintTemperature6createEv
FemGui.so:_ZN6FemGui36ViewProviderFemConstraintTemperature7setEditEi
FemGui.so:_ZN6FemGui36ViewProviderFemConstraintTemperatureC1Ev
FemGui.so:_ZN6FemGui36ViewProviderFemConstraintTemperatureC2Ev
FemGui.so:_ZN6FemGui36ViewProviderFemConstraintTemperatureD0Ev
FemGui.so:_ZN6FemGui36ViewProviderFemConstraintTemperatureD1Ev
FemGui.so:_ZN6FemGui36ViewProviderFemConstraintTemperatureD2Ev
FemGui.so:_ZN6FemGui37ViewProviderFemConstraintDisplacement10updateDataEPKN3App8PropertyE
FemGui.so:_ZN6FemGui37ViewProviderFemConstraintDisplacement14getClassTypeIdEv
FemGui.so:_ZN6FemGui37ViewProviderFemConstraintDisplacement18getPropertyDataPtrEv
FemGui.so:_ZN6FemGui37ViewProviderFemConstraintDisplacement4initEv
FemGui.so:_ZN6FemGui37ViewProviderFemConstraintDisplacement6createEv
FemGui.so:_ZN6FemGui37ViewProviderFemConstraintDisplacement7setEditEi
FemGui.so:_ZN6FemGui37ViewProviderFemConstraintDisplacementC1Ev
FemGui.so:_ZN6FemGui37ViewProviderFemConstraintDisplacementC2Ev
FemGui.so:_ZN6FemGui37ViewProviderFemConstraintDisplacementD0Ev
FemGui.so:_ZN6FemGui37ViewProviderFemConstraintDisplacementD1Ev
FemGui.so:_ZN6FemGui37ViewProviderFemConstraintDisplacementD2Ev
FemGui.so:_ZN6FemGui38TaskDlgFemConstraintInitialTemperature11qt_metacallEN11QMetaObject4CallEiPPv
FemGui.so:_ZN6FemGui38TaskDlgFemConstraintInitialTemperature11qt_metacastEPKc
FemGui.so:_ZN6FemGui38TaskDlgFemConstraintInitialTemperature4openEv
FemGui.so:_ZN6FemGui38TaskDlgFemConstraintInitialTemperature6acceptEv
FemGui.so:_ZN6FemGui38TaskDlgFemConstraintInitialTemperature6rejectEv
FemGui.so:_ZN6FemGui38TaskDlgFemConstraintInitialTemperatureC1EPNS_43ViewProviderFemConstraintInitialTemperatureE
FemGui.so:_ZN6FemGui38TaskDlgFemConstraintInitialTemperatureC2EPNS_43ViewProviderFemConstraintInitialTemperatureE
FemGui.so:_ZN6FemGui38ViewProviderFemConstraintFluidBoundary10updateDataEPKN3App8PropertyE
FemGui.so:_ZN6FemGui38ViewProviderFemConstraintFluidBoundary14getClassTypeIdEv
FemGui.so:_ZN6FemGui38ViewProviderFemConstraintFluidBoundary18getPropertyDataPtrEv
FemGui.so:_ZN6FemGui38ViewProviderFemConstraintFluidBoundary4initEv
FemGui.so:_ZN6FemGui38ViewProviderFemConstraintFluidBoundary6createEv
FemGui.so:_ZN6FemGui38ViewProviderFemConstraintFluidBoundary7setEditEi
FemGui.so:_ZN6FemGui38ViewProviderFemConstraintFluidBoundaryC1Ev
FemGui.so:_ZN6FemGui38ViewProviderFemConstraintFluidBoundaryC2Ev
FemGui.so:_ZN6FemGui38ViewProviderFemConstraintFluidBoundaryD0Ev
FemGui.so:_ZN6FemGui38ViewProviderFemConstraintFluidBoundaryD1Ev
FemGui.so:_ZN6FemGui38ViewProviderFemConstraintFluidBoundaryD2Ev
FemGui.so:_ZN6FemGui38ViewProviderFemConstraintPlaneRotation10updateDataEPKN3App8PropertyE
FemGui.so:_ZN6FemGui38ViewProviderFemConstraintPlaneRotation14getClassTypeIdEv
FemGui.so:_ZN6FemGui38ViewProviderFemConstraintPlaneRotation18getPropertyDataPtrEv
FemGui.so:_ZN6FemGui38ViewProviderFemConstraintPlaneRotation4initEv
FemGui.so:_ZN6FemGui38ViewProviderFemConstraintPlaneRotation6createEv
FemGui.so:_ZN6FemGui38ViewProviderFemConstraintPlaneRotation7setEditEi
FemGui.so:_ZN6FemGui38ViewProviderFemConstraintPlaneRotationC1Ev
FemGui.so:_ZN6FemGui38ViewProviderFemConstraintPlaneRotationC2Ev
FemGui.so:_ZN6FemGui38ViewProviderFemConstraintPlaneRotationD0Ev
FemGui.so:_ZN6FemGui38ViewProviderFemConstraintPlaneRotationD1Ev
FemGui.so:_ZN6FemGui38ViewProviderFemConstraintPlaneRotationD2Ev
FemGui.so:_ZN6FemGui43ViewProviderFemConstraintInitialTemperature10updateDataEPKN3App8PropertyE
FemGui.so:_ZN6FemGui43ViewProviderFemConstraintInitialTemperature14getClassTypeIdEv
FemGui.so:_ZN6FemGui43ViewProviderFemConstraintInitialTemperature18getPropertyDataPtrEv
FemGui.so:_ZN6FemGui43ViewProviderFemConstraintInitialTemperature4initEv
FemGui.so:_ZN6FemGui43ViewProviderFemConstraintInitialTemperature6createEv
FemGui.so:_ZN6FemGui43ViewProviderFemConstraintInitialTemperature7setEditEi
FemGui.so:_ZN6FemGui43ViewProviderFemConstraintInitialTemperatureC1Ev
FemGui.so:_ZN6FemGui43ViewProviderFemConstraintInitialTemperatureC2Ev
FemGui.so:_ZN6FemGui43ViewProviderFemConstraintInitialTemperatureD0Ev
FemGui.so:_ZN6FemGui43ViewProviderFemConstraintInitialTemperatureD1Ev
FemGui.so:_ZN6FemGui43ViewProviderFemConstraintInitialTemperatureD2Ev
FemGui.so:_ZN6FemGui9Workbench14getClassTypeIdEv
FemGui.so:_ZN6FemGui9Workbench4initEv
FemGui.so:_ZN6FemGui9Workbench6createEv
FemGui.so:_ZN6FemGui9WorkbenchC1Ev
FemGui.so:_ZN6FemGui9WorkbenchC2Ev
FemGui.so:_ZN6FemGui9WorkbenchD0Ev
FemGui.so:_ZN6FemGui9WorkbenchD1Ev
FemGui.so:_ZN6FemGui9WorkbenchD2Ev
FemGui.so:_ZN7FemFace10isSameFaceERS_
FemGui.so:_ZN7FemFace3setEsPK16SMDS_MeshElementtsPK13SMDS_MeshNodeS5_S5_S5_S5_S5_S5_S5_
FemGui.so:_ZNK3Gui26ViewProviderPythonFeatureTIN6FemGui18ViewProviderResultEE15getPropertyDataEv
FemGui.so:_ZNK3Gui26ViewProviderPythonFeatureTIN6FemGui18ViewProviderResultEE9getTypeIdEv
FemGui.so:_ZNK3Gui26ViewProviderPythonFeatureTIN6FemGui18ViewProviderSolverEE15getPropertyDataEv
FemGui.so:_ZNK3Gui26ViewProviderPythonFeatureTIN6FemGui18ViewProviderSolverEE9getTypeIdEv
FemGui.so:_ZNK3Gui26ViewProviderPythonFeatureTIN6FemGui19ViewProviderFemMeshEE15getPropertyDataEv
FemGui.so:_ZNK3Gui26ViewProviderPythonFeatureTIN6FemGui19ViewProviderFemMeshEE9getTypeIdEv
FemGui.so:_ZNK3Gui26ViewProviderPythonFeatureTIN6FemGui23ViewProviderFemAnalysisEE15getPropertyDataEv
FemGui.so:_ZNK3Gui26ViewProviderPythonFeatureTIN6FemGui23ViewProviderFemAnalysisEE9getTypeIdEv
FemGui.so:_ZNK3Gui26ViewProviderPythonFeatureTIN6FemGui25ViewProviderFemConstraintEE15getPropertyDataEv
FemGui.so:_ZNK3Gui26ViewProviderPythonFeatureTIN6FemGui25ViewProviderFemConstraintEE9getTypeIdEv
FemGui.so:_ZNK6FemGui10DataMarker10metaObjectEv
FemGui.so:_ZNK6FemGui10DataMarker11countPointsEv
FemGui.so:_ZNK6FemGui10TaskDriver10metaObjectEv
FemGui.so:_ZNK6FemGui11PlaneWidget10metaObjectEv
FemGui.so:_ZNK6FemGui11PointMarker10metaObjectEv
FemGui.so:_ZNK6FemGui11PointMarker11countPointsEv
FemGui.so:_ZNK6FemGui11TaskDlgPost10metaObjectEv
FemGui.so:_ZNK6FemGui11TaskDlgPost18getStandardButtonsEv
FemGui.so:_ZNK6FemGui11TaskPostBox10metaObjectEv
FemGui.so:_ZNK6FemGui11TaskPostCut10metaObjectEv
FemGui.so:_ZNK6FemGui12SphereWidget10metaObjectEv
FemGui.so:_ZNK6FemGui12TaskPostClip10metaObjectEv
FemGui.so:_ZNK6FemGui14FunctionWidget10metaObjectEv
FemGui.so:_ZNK6FemGui14TaskObjectName10metaObjectEv
FemGui.so:_ZNK6FemGui15TaskDlgAnalysis10metaObjectEv
FemGui.so:_ZNK6FemGui15TaskPostDisplay10metaObjectEv
FemGui.so:_ZNK6FemGui16TaskAnalysisInfo10metaObjectEv
FemGui.so:_ZNK6FemGui16TaskPostFunction10metaObjectEv
FemGui.so:_ZNK6FemGui16TaskTetParameter10metaObjectEv
FemGui.so:_ZNK6FemGui17TaskCreateNodeSet10metaObjectEv
FemGui.so:_ZNK6FemGui17TaskFemConstraint10metaObjectEv
FemGui.so:_ZNK6FemGui17TaskFemConstraint11makeRefTextEPKN3App14DocumentObjectERKNSt7__cxx1112basic_stringIcSt11char_traitsIcESaIcEEE
FemGui.so:_ZNK6FemGui17TaskFemConstraint13getReferencesERKSt6vectorINSt7__cxx1112basic_stringIcSt11char_traitsIcESaIcEEESaIS7_EE
FemGui.so:_ZNK6FemGui17TaskFemConstraint8getScaleB5cxx11Ev
FemGui.so:_ZNK6FemGui18TaskPostScalarClip10metaObjectEv
FemGui.so:_ZNK6FemGui18TaskPostWarpVector10metaObjectEv
FemGui.so:_ZNK6FemGui18ViewProviderResult15getPropertyDataEv
FemGui.so:_ZNK6FemGui18ViewProviderResult9getTypeIdEv
FemGui.so:_ZNK6FemGui18ViewProviderSolver15getDisplayModesB5cxx11Ev
FemGui.so:_ZNK6FemGui18ViewProviderSolver15getPropertyDataEv
FemGui.so:_ZNK6FemGui18ViewProviderSolver9getTypeIdEv
FemGui.so:_ZNK6FemGui19PropertyFemMeshItem10countEdgesEv
FemGui.so:_ZNK6FemGui19PropertyFemMeshItem10countFacesEv
FemGui.so:_ZNK6FemGui19PropertyFemMeshItem10countNodesEv
FemGui.so:_ZNK6FemGui19PropertyFemMeshItem10editorDataEP7QWidget
FemGui.so:_ZNK6FemGui19PropertyFemMeshItem10metaObjectEv
FemGui.so:_ZNK6FemGui19PropertyFemMeshItem11countGroupsEv
FemGui.so:_ZNK6FemGui19PropertyFemMeshItem12countVolumesEv
FemGui.so:_ZNK6FemGui19PropertyFemMeshItem12createEditorEP7QWidgetPK7QObjectPKc
FemGui.so:_ZNK6FemGui19PropertyFemMeshItem13countPolygonsEv
FemGui.so:_ZNK6FemGui19PropertyFemMeshItem13setEditorDataEP7QWidgetRK8QVariant
FemGui.so:_ZNK6FemGui19PropertyFemMeshItem16countPolyhedronsEv
FemGui.so:_ZNK6FemGui19PropertyFemMeshItem5valueEPKN3App8PropertyE
FemGui.so:_ZNK6FemGui19PropertyFemMeshItem7toolTipEPKN3App8PropertyE
FemGui.so:_ZNK6FemGui19TaskPostDataAtPoint10metaObjectEv
FemGui.so:_ZNK6FemGui19ViewProviderFemMesh10getElementB5cxx11EPK8SoDetail
FemGui.so:_ZNK6FemGui19ViewProviderFemMesh15getDisplayModesB5cxx11Ev
FemGui.so:_ZNK6FemGui19ViewProviderFemMesh15getPropertyDataEv
FemGui.so:_ZNK6FemGui19ViewProviderFemMesh17getHighlightNodesEv
FemGui.so:_ZNK6FemGui19ViewProviderFemMesh17getSelectionShapeEPKc
FemGui.so:_ZNK6FemGui19ViewProviderFemMesh9getDetailEPKc
FemGui.so:_ZNK6FemGui19ViewProviderFemMesh9getTypeIdEv
FemGui.so:_ZNK6FemGui20DlgSettingsFemCcxImp10metaObjectEv
FemGui.so:_ZNK6FemGui20DlgSettingsFemZ88Imp10metaObjectEv
FemGui.so:_ZNK6FemGui20TaskDlgCreateNodeSet10metaObjectEv
FemGui.so:_ZNK6FemGui20TaskDlgFemConstraint10metaObjectEv
FemGui.so:_ZNK6FemGui20ViewProviderSetFaces15getPropertyDataEv
FemGui.so:_ZNK6FemGui20ViewProviderSetFaces9getTypeIdEv
FemGui.so:_ZNK6FemGui20ViewProviderSetNodes15getPropertyDataEv
FemGui.so:_ZNK6FemGui20ViewProviderSetNodes9getTypeIdEv
FemGui.so:_ZNK6FemGui21DlgSettingsFemGmshImp10metaObjectEv
FemGui.so:_ZNK6FemGui21TaskFemConstraintGear10getReverseEv
FemGui.so:_ZNK6FemGui21TaskFemConstraintGear10metaObjectEv
FemGui.so:_ZNK6FemGui21TaskFemConstraintGear11getDiameterEv
FemGui.so:_ZNK6FemGui21TaskFemConstraintGear13getForceAngleEv
FemGui.so:_ZNK6FemGui21TaskFemConstraintGear16getDirectionNameB5cxx11Ev
FemGui.so:_ZNK6FemGui21TaskFemConstraintGear18getDirectionObjectB5cxx11Ev
FemGui.so:_ZNK6FemGui21TaskFemConstraintGear8getForceEv
FemGui.so:_ZNK6FemGui21TaskPostDataAlongLine10metaObjectEv
FemGui.so:_ZNK6FemGui21ViewProviderFemMeshPy12getNodeColorEv
FemGui.so:_ZNK6FemGui21ViewProviderFemMeshPy14representationB5cxx11Ev
FemGui.so:_ZNK6FemGui21ViewProviderFemMeshPy15getElementColorEv
FemGui.so:_ZNK6FemGui21ViewProviderFemMeshPy19getCustomAttributesEPKc
FemGui.so:_ZNK6FemGui21ViewProviderFemMeshPy19getHighlightedNodesEv
FemGui.so:_ZNK6FemGui21ViewProviderFemMeshPy19getNodeDisplacementEv
FemGui.so:_ZNK6FemGui21ViewProviderFemMeshPy22getVisibleElementFacesEv
FemGui.so:_ZNK6FemGui21ViewProviderFemMeshPy25getViewProviderFemMeshPtrEv
FemGui.so:_ZNK6FemGui22ActiveAnalysisObserver15getActiveObjectEv
FemGui.so:_ZNK6FemGui22ActiveAnalysisObserver15hasActiveObjectEv
FemGui.so:_ZNK6FemGui22DlgSettingsFemElmerImp10metaObjectEv
FemGui.so:_ZNK6FemGui22TaskDlgMeshShapeNetgen10metaObjectEv
FemGui.so:_ZNK6FemGui22TaskFemConstraintFixed10metaObjectEv
FemGui.so:_ZNK6FemGui22TaskFemConstraintFixed13getReferencesB5cxx11Ev
FemGui.so:_ZNK6FemGui22TaskFemConstraintForce10getReverseEv
FemGui.so:_ZNK6FemGui22TaskFemConstraintForce10metaObjectEv
FemGui.so:_ZNK6FemGui22TaskFemConstraintForce13getReferencesB5cxx11Ev
FemGui.so:_ZNK6FemGui22TaskFemConstraintForce16getDirectionNameB5cxx11Ev
FemGui.so:_ZNK6FemGui22TaskFemConstraintForce18getDirectionObjectB5cxx11Ev
FemGui.so:_ZNK6FemGui22TaskFemConstraintForce8getForceEv
FemGui.so:_ZNK6FemGui22ViewProviderDataMarker15getPropertyDataEv
FemGui.so:_ZNK6FemGui22ViewProviderDataMarker9getTypeIdEv
FemGui.so:_ZNK6FemGui22ViewProviderFemPostCut15getPropertyDataEv
FemGui.so:_ZNK6FemGui22ViewProviderFemPostCut9getTypeIdEv
FemGui.so:_ZNK6FemGui23TaskFemConstraintPulley10metaObjectEv
FemGui.so:_ZNK6FemGui23TaskFemConstraintPulley11getIsDrivenEv
FemGui.so:_ZNK6FemGui23TaskFemConstraintPulley15getTensionForceEv
FemGui.so:_ZNK6FemGui23TaskFemConstraintPulley16getOtherDiameterEv
FemGui.so:_ZNK6FemGui23TaskFemConstraintPulley17getCenterDistanceEv
FemGui.so:_ZNK6FemGui23TaskFemConstraintPulley9getTorqueEv
FemGui.so:_ZNK6FemGui23ViewProviderFemAnalysis13canDragObjectEPN3App14DocumentObjectE
FemGui.so:_ZNK6FemGui23ViewProviderFemAnalysis13canDropObjectEPN3App14DocumentObjectE
FemGui.so:_ZNK6FemGui23ViewProviderFemAnalysis13claimChildrenEv
FemGui.so:_ZNK6FemGui23ViewProviderFemAnalysis14canDragObjectsEv
FemGui.so:_ZNK6FemGui23ViewProviderFemAnalysis14canDropObjectsEv
FemGui.so:_ZNK6FemGui23ViewProviderFemAnalysis15getDisplayModesB5cxx11Ev
FemGui.so:_ZNK6FemGui23ViewProviderFemAnalysis15getPropertyDataEv
FemGui.so:_ZNK6FemGui23ViewProviderFemAnalysis9canDeleteEPN3App14DocumentObjectE
FemGui.so:_ZNK6FemGui23ViewProviderFemAnalysis9getTypeIdEv
FemGui.so:_ZNK6FemGui23ViewProviderFemPostClip15getPropertyDataEv
FemGui.so:_ZNK6FemGui23ViewProviderFemPostClip9getTypeIdEv
FemGui.so:_ZNK6FemGui23ViewProviderPointMarker15getPropertyDataEv
FemGui.so:_ZNK6FemGui23ViewProviderPointMarker9getTypeIdEv
FemGui.so:_ZNK6FemGui23ViewProviderSetElements15getPropertyDataEv
FemGui.so:_ZNK6FemGui23ViewProviderSetElements9getTypeIdEv
FemGui.so:_ZNK6FemGui23ViewProviderSetGeometry15getPropertyDataEv
FemGui.so:_ZNK6FemGui23ViewProviderSetGeometry9getTypeIdEv
FemGui.so:_ZNK6FemGui24DlgSettingsFemGeneralImp10metaObjectEv
FemGui.so:_ZNK6FemGui24TaskDlgFemConstraintGear10metaObjectEv
FemGui.so:_ZNK6FemGui24TaskFemConstraintBearing10metaObjectEv
FemGui.so:_ZNK6FemGui24TaskFemConstraintBearing11getDistanceEv
FemGui.so:_ZNK6FemGui24TaskFemConstraintBearing13getReferencesB5cxx11Ev
FemGui.so:_ZNK6FemGui24TaskFemConstraintBearing15getLocationNameB5cxx11Ev
FemGui.so:_ZNK6FemGui24TaskFemConstraintBearing17getLocationObjectB5cxx11Ev
FemGui.so:_ZNK6FemGui24TaskFemConstraintBearing8getAxialEv
FemGui.so:_ZNK6FemGui24TaskFemConstraintContact10metaObjectEv
FemGui.so:_ZNK6FemGui24TaskFemConstraintContact12get_FrictionEv
FemGui.so:_ZNK6FemGui24TaskFemConstraintContact13getReferencesB5cxx11Ev
FemGui.so:_ZNK6FemGui24TaskFemConstraintContact9get_SlopeEv
FemGui.so:_ZNK6FemGui24ViewProviderFemMeshShape15getPropertyDataEv
FemGui.so:_ZNK6FemGui24ViewProviderFemMeshShape9getTypeIdEv
FemGui.so:_ZNK6FemGui25DlgSettingsFemInOutVtkImp10metaObjectEv
FemGui.so:_ZNK6FemGui25DlgSettingsFemMaterialImp10metaObjectEv
FemGui.so:_ZNK6FemGui25TaskDlgFemConstraintFixed10metaObjectEv
FemGui.so:_ZNK6FemGui25TaskDlgFemConstraintForce10metaObjectEv
FemGui.so:_ZNK6FemGui25TaskFemConstraintHeatflux10metaObjectEv
FemGui.so:_ZNK6FemGui25TaskFemConstraintHeatflux11getFilmCoefEv
FemGui.so:_ZNK6FemGui25TaskFemConstraintHeatflux13getReferencesB5cxx11Ev
FemGui.so:_ZNK6FemGui25TaskFemConstraintHeatflux14getAmbientTempEv
FemGui.so:_ZNK6FemGui25TaskFemConstraintHeatflux19get_constraint_typeB5cxx11Ev
FemGui.so:_ZNK6FemGui25TaskFemConstraintPressure10metaObjectEv
FemGui.so:_ZNK6FemGui25TaskFemConstraintPressure11get_ReverseEv
FemGui.so:_ZNK6FemGui25TaskFemConstraintPressure12get_PressureEv
FemGui.so:_ZNK6FemGui25TaskFemConstraintPressure13getReferencesB5cxx11Ev
FemGui.so:_ZNK6FemGui25ViewProviderFemConstraint13claimChildrenEv
FemGui.so:_ZNK6FemGui25ViewProviderFemConstraint15getDisplayModesB5cxx11Ev
FemGui.so:_ZNK6FemGui25ViewProviderFemConstraint15getPropertyDataEv
FemGui.so:_ZNK6FemGui25ViewProviderFemConstraint9getTypeIdEv
FemGui.so:_ZNK6FemGui25ViewProviderFemPostObject12getFrontRootEv
FemGui.so:_ZNK6FemGui25ViewProviderFemPostObject15getDisplayModesB5cxx11Ev
FemGui.so:_ZNK6FemGui25ViewProviderFemPostObject15getPropertyDataEv
FemGui.so:_ZNK6FemGui25ViewProviderFemPostObject9getTypeIdEv
FemGui.so:_ZNK6FemGui26TaskDlgFemConstraintPulley10metaObjectEv
FemGui.so:_ZNK6FemGui26TaskFemConstraintTransform10metaObjectEv
FemGui.so:_ZNK6FemGui26TaskFemConstraintTransform13getReferencesB5cxx11Ev
FemGui.so:_ZNK6FemGui26TaskFemConstraintTransform18get_transform_typeB5cxx11Ev
FemGui.so:_ZNK6FemGui26TaskFemConstraintTransform8makeTextEPKN3App14DocumentObjectE
FemGui.so:_ZNK6FemGui26TaskFemConstraintTransform9get_X_rotEv
FemGui.so:_ZNK6FemGui26TaskFemConstraintTransform9get_Y_rotEv
FemGui.so:_ZNK6FemGui26TaskFemConstraintTransform9get_Z_rotEv
FemGui.so:_ZNK6FemGui26ViewProviderFEMMeshBuilder10buildNodesEPKN3App8PropertyERSt6vectorIP6SoNodeSaIS7_EE
FemGui.so:_ZNK6FemGui26ViewProviderFEMMeshBuilder10createMeshEPKN3App8PropertyEP13SoCoordinate3P16SoIndexedFaceSetP16SoIndexedLineSetRSt6vectorImSaImEESE_Rbbi
FemGui.so:_ZNK6FemGui27TaskDlgFemConstraintBearing10metaObjectEv
FemGui.so:_ZNK6FemGui27TaskDlgFemConstraintContact10metaObjectEv
FemGui.so:_ZNK6FemGui27ViewProviderFemPostFunction15getDisplayModesB5cxx11Ev
FemGui.so:_ZNK6FemGui27ViewProviderFemPostFunction15getPropertyDataEv
FemGui.so:_ZNK6FemGui27ViewProviderFemPostFunction9getTypeIdEv
FemGui.so:_ZNK6FemGui27ViewProviderFemPostPipeline13claimChildrenEv
FemGui.so:_ZNK6FemGui27ViewProviderFemPostPipeline15claimChildren3DEv
FemGui.so:_ZNK6FemGui27ViewProviderFemPostPipeline15getPropertyDataEv
FemGui.so:_ZNK6FemGui27ViewProviderFemPostPipeline9getTypeIdEv
FemGui.so:_ZNK6FemGui28TaskDlgFemConstraintHeatflux10metaObjectEv
FemGui.so:_ZNK6FemGui28TaskDlgFemConstraintPressure10metaObjectEv
FemGui.so:_ZNK6FemGui28TaskFemConstraintTemperature10metaObjectEv
FemGui.so:_ZNK6FemGui28TaskFemConstraintTemperature13getReferencesB5cxx11Ev
FemGui.so:_ZNK6FemGui28TaskFemConstraintTemperature15get_temperatureEv
FemGui.so:_ZNK6FemGui28TaskFemConstraintTemperature19get_constraint_typeB5cxx11Ev
FemGui.so:_ZNK6FemGui28TaskFemConstraintTemperature9get_cfluxEv
FemGui.so:_ZNK6FemGui29DlgSettingsFemExportAbaqusImp10metaObjectEv
FemGui.so:_ZNK6FemGui29TaskDlgFemConstraintTransform10metaObjectEv
FemGui.so:_ZNK6FemGui29TaskFemConstraintDisplacement10metaObjectEv
FemGui.so:_ZNK6FemGui29TaskFemConstraintDisplacement11get_rotxfixEv
FemGui.so:_ZNK6FemGui29TaskFemConstraintDisplacement11get_rotyfixEv
FemGui.so:_ZNK6FemGui29TaskFemConstraintDisplacement11get_rotzfixEv
FemGui.so:_ZNK6FemGui29TaskFemConstraintDisplacement12get_dispxfixEv
FemGui.so:_ZNK6FemGui29TaskFemConstraintDisplacement12get_dispyfixEv
FemGui.so:_ZNK6FemGui29TaskFemConstraintDisplacement12get_dispzfixEv
FemGui.so:_ZNK6FemGui29TaskFemConstraintDisplacement12get_rotxfreeEv
FemGui.so:_ZNK6FemGui29TaskFemConstraintDisplacement12get_rotyfreeEv
FemGui.so:_ZNK6FemGui29TaskFemConstraintDisplacement12get_rotzfreeEv
FemGui.so:_ZNK6FemGui29TaskFemConstraintDisplacement13getReferencesB5cxx11Ev
FemGui.so:_ZNK6FemGui29TaskFemConstraintDisplacement13get_dispxfreeEv
FemGui.so:_ZNK6FemGui29TaskFemConstraintDisplacement13get_dispyfreeEv
FemGui.so:_ZNK6FemGui29TaskFemConstraintDisplacement13get_dispzfreeEv
FemGui.so:_ZNK6FemGui29TaskFemConstraintDisplacement21get_spinxDisplacementEv
FemGui.so:_ZNK6FemGui29TaskFemConstraintDisplacement21get_spinyDisplacementEv
FemGui.so:_ZNK6FemGui29TaskFemConstraintDisplacement21get_spinzDisplacementEv
FemGui.so:_ZNK6FemGui29TaskFemConstraintDisplacement9get_rotxvEv
FemGui.so:_ZNK6FemGui29TaskFemConstraintDisplacement9get_rotyvEv
FemGui.so:_ZNK6FemGui29TaskFemConstraintDisplacement9get_rotzvEv
FemGui.so:_ZNK6FemGui29ViewProviderFemConstraintGear15getPropertyDataEv
FemGui.so:_ZNK6FemGui29ViewProviderFemConstraintGear9getTypeIdEv
FemGui.so:_ZNK6FemGui29ViewProviderFemPostScalarClip15getPropertyDataEv
FemGui.so:_ZNK6FemGui29ViewProviderFemPostScalarClip9getTypeIdEv
FemGui.so:_ZNK6FemGui29ViewProviderFemPostWarpVector15getPropertyDataEv
FemGui.so:_ZNK6FemGui29ViewProviderFemPostWarpVector9getTypeIdEv
FemGui.so:_ZNK6FemGui30TaskFemConstraintFluidBoundary10getReverseEv
FemGui.so:_ZNK6FemGui30TaskFemConstraintFluidBoundary10getSubtypeB5cxx11Ev
FemGui.so:_ZNK6FemGui30TaskFemConstraintFluidBoundary10metaObjectEv
FemGui.so:_ZNK6FemGui30TaskFemConstraintFluidBoundary12getFemSolverEv
FemGui.so:_ZNK6FemGui30TaskFemConstraintFluidBoundary13getReferencesB5cxx11Ev
FemGui.so:_ZNK6FemGui30TaskFemConstraintFluidBoundary15getBoundaryTypeB5cxx11Ev
FemGui.so:_ZNK6FemGui30TaskFemConstraintFluidBoundary15getHTCoeffValueEv
FemGui.so:_ZNK6FemGui30TaskFemConstraintFluidBoundary16getBoundaryValueEv
FemGui.so:_ZNK6FemGui30TaskFemConstraintFluidBoundary16getDirectionNameB5cxx11Ev
FemGui.so:_ZNK6FemGui30TaskFemConstraintFluidBoundary16getHeatFluxValueEv
FemGui.so:_ZNK6FemGui30TaskFemConstraintFluidBoundary18getDirectionObjectB5cxx11Ev
FemGui.so:_ZNK6FemGui30TaskFemConstraintFluidBoundary18getHeatTransferingEv
FemGui.so:_ZNK6FemGui30TaskFemConstraintFluidBoundary18getTurbulenceModelB5cxx11Ev
FemGui.so:_ZNK6FemGui30TaskFemConstraintFluidBoundary19getTemperatureValueEv
FemGui.so:_ZNK6FemGui30TaskFemConstraintFluidBoundary22getThermalBoundaryTypeB5cxx11Ev
FemGui.so:_ZNK6FemGui30TaskFemConstraintFluidBoundary23getTurbulentLengthValueEv
FemGui.so:_ZNK6FemGui30TaskFemConstraintFluidBoundary26getTurbulenceSpecificationB5cxx11Ev
FemGui.so:_ZNK6FemGui30TaskFemConstraintFluidBoundary26getTurbulentIntensityValueEv
FemGui.so:_ZNK6FemGui30TaskFemConstraintPlaneRotation10metaObjectEv
FemGui.so:_ZNK6FemGui30TaskFemConstraintPlaneRotation13getReferencesB5cxx11Ev
FemGui.so:_ZNK6FemGui30ViewProviderFemConstraintFixed15getPropertyDataEv
FemGui.so:_ZNK6FemGui30ViewProviderFemConstraintFixed9getTypeIdEv
FemGui.so:_ZNK6FemGui30ViewProviderFemConstraintForce15getPropertyDataEv
FemGui.so:_ZNK6FemGui30ViewProviderFemConstraintForce9getTypeIdEv
FemGui.so:_ZNK6FemGui30ViewProviderFemMeshShapeNetgen15getPropertyDataEv
FemGui.so:_ZNK6FemGui30ViewProviderFemMeshShapeNetgen9getTypeIdEv
FemGui.so:_ZNK6FemGui30ViewProviderFemPostDataAtPoint15getPropertyDataEv
FemGui.so:_ZNK6FemGui30ViewProviderFemPostDataAtPoint9getTypeIdEv
FemGui.so:_ZNK6FemGui31TaskDlgFemConstraintTemperature10metaObjectEv
FemGui.so:_ZNK6FemGui31ViewProviderFemConstraintPulley15getPropertyDataEv
FemGui.so:_ZNK6FemGui31ViewProviderFemConstraintPulley9getTypeIdEv
FemGui.so:_ZNK6FemGui32TaskDlgFemConstraintDisplacement10metaObjectEv
FemGui.so:_ZNK6FemGui32ViewProviderFemConstraintBearing15getPropertyDataEv
FemGui.so:_ZNK6FemGui32ViewProviderFemConstraintBearing9getTypeIdEv
FemGui.so:_ZNK6FemGui32ViewProviderFemConstraintContact15getPropertyDataEv
FemGui.so:_ZNK6FemGui32ViewProviderFemConstraintContact9getTypeIdEv
FemGui.so:_ZNK6FemGui32ViewProviderFemPostDataAlongLine15getPropertyDataEv
FemGui.so:_ZNK6FemGui32ViewProviderFemPostDataAlongLine9getTypeIdEv
FemGui.so:_ZNK6FemGui32ViewProviderFemPostPlaneFunction15getPropertyDataEv
FemGui.so:_ZNK6FemGui32ViewProviderFemPostPlaneFunction9getTypeIdEv
FemGui.so:_ZNK6FemGui33TaskDlgFemConstraintFluidBoundary10metaObjectEv
FemGui.so:_ZNK6FemGui33TaskDlgFemConstraintPlaneRotation10metaObjectEv
FemGui.so:_ZNK6FemGui33ViewProviderFemConstraintHeatflux15getPropertyDataEv
FemGui.so:_ZNK6FemGui33ViewProviderFemConstraintHeatflux9getTypeIdEv
FemGui.so:_ZNK6FemGui33ViewProviderFemConstraintPressure15getPropertyDataEv
FemGui.so:_ZNK6FemGui33ViewProviderFemConstraintPressure9getTypeIdEv
FemGui.so:_ZNK6FemGui33ViewProviderFemPostSphereFunction15getPropertyDataEv
FemGui.so:_ZNK6FemGui33ViewProviderFemPostSphereFunction9getTypeIdEv
FemGui.so:_ZNK6FemGui34ViewProviderFemConstraintTransform15getPropertyDataEv
FemGui.so:_ZNK6FemGui34ViewProviderFemConstraintTransform9getTypeIdEv
FemGui.so:_ZNK6FemGui35TaskFemConstraintInitialTemperature10metaObjectEv
FemGui.so:_ZNK6FemGui35TaskFemConstraintInitialTemperature15get_temperatureEv
FemGui.so:_ZNK6FemGui35ViewProviderFemPostFunctionProvider13claimChildrenEv
FemGui.so:_ZNK6FemGui35ViewProviderFemPostFunctionProvider15claimChildren3DEv
FemGui.so:_ZNK6FemGui35ViewProviderFemPostFunctionProvider15getPropertyDataEv
FemGui.so:_ZNK6FemGui35ViewProviderFemPostFunctionProvider9getTypeIdEv
FemGui.so:_ZNK6FemGui36ViewProviderFemConstraintTemperature15getPropertyDataEv
FemGui.so:_ZNK6FemGui36ViewProviderFemConstraintTemperature9getTypeIdEv
FemGui.so:_ZNK6FemGui37ViewProviderFemConstraintDisplacement15getPropertyDataEv
FemGui.so:_ZNK6FemGui37ViewProviderFemConstraintDisplacement9getTypeIdEv
FemGui.so:_ZNK6FemGui38TaskDlgFemConstraintInitialTemperature10metaObjectEv
FemGui.so:_ZNK6FemGui38ViewProviderFemConstraintFluidBoundary15getPropertyDataEv
FemGui.so:_ZNK6FemGui38ViewProviderFemConstraintFluidBoundary9getTypeIdEv
FemGui.so:_ZNK6FemGui38ViewProviderFemConstraintPlaneRotation15getPropertyDataEv
FemGui.so:_ZNK6FemGui38ViewProviderFemConstraintPlaneRotation9getTypeIdEv
FemGui.so:_ZNK6FemGui43ViewProviderFemConstraintInitialTemperature15getPropertyDataEv
FemGui.so:_ZNK6FemGui43ViewProviderFemConstraintInitialTemperature9getTypeIdEv
FemGui.so:_ZNK6FemGui9Workbench12setupMenuBarEv
FemGui.so:_ZNK6FemGui9Workbench13setupToolBarsEv
FemGui.so:_ZNK6FemGui9Workbench16setupContextMenuEPKcPN3Gui8MenuItemE
FemGui.so:_ZNK6FemGui9Workbench9getTypeIdEv
FemGui.so:_ZThn160_N6FemGui17TaskCreateNodeSet18onSelectionChangedERKN3Gui16SelectionChangesE
FemGui.so:_ZThn160_N6FemGui17TaskCreateNodeSetD0Ev
FemGui.so:_ZThn160_N6FemGui17TaskCreateNodeSetD1Ev
FemGui.so:_ZThn160_N6FemGui21TaskFemConstraintGear18onSelectionChangedERKN3Gui16SelectionChangesE
FemGui.so:_ZThn160_N6FemGui22TaskFemConstraintFixedD0Ev
FemGui.so:_ZThn160_N6FemGui22TaskFemConstraintFixedD1Ev
FemGui.so:_ZThn160_N6FemGui22TaskFemConstraintForce18onSelectionChangedERKN3Gui16SelectionChangesE
FemGui.so:_ZThn160_N6FemGui22TaskFemConstraintForceD0Ev
FemGui.so:_ZThn160_N6FemGui22TaskFemConstraintForceD1Ev
FemGui.so:_ZThn160_N6FemGui24TaskFemConstraintBearing18onSelectionChangedERKN3Gui16SelectionChangesE
FemGui.so:_ZThn160_N6FemGui24TaskFemConstraintBearingD0Ev
FemGui.so:_ZThn160_N6FemGui24TaskFemConstraintBearingD1Ev
FemGui.so:_ZThn160_N6FemGui24TaskFemConstraintContactD0Ev
FemGui.so:_ZThn160_N6FemGui24TaskFemConstraintContactD1Ev
FemGui.so:_ZThn160_N6FemGui25TaskFemConstraintHeatfluxD0Ev
FemGui.so:_ZThn160_N6FemGui25TaskFemConstraintHeatfluxD1Ev
FemGui.so:_ZThn160_N6FemGui25TaskFemConstraintPressureD0Ev
FemGui.so:_ZThn160_N6FemGui25TaskFemConstraintPressureD1Ev
FemGui.so:_ZThn160_N6FemGui26TaskFemConstraintTransformD0Ev
FemGui.so:_ZThn160_N6FemGui26TaskFemConstraintTransformD1Ev
FemGui.so:_ZThn160_N6FemGui28TaskFemConstraintTemperatureD0Ev
FemGui.so:_ZThn160_N6FemGui28TaskFemConstraintTemperatureD1Ev
FemGui.so:_ZThn160_N6FemGui29TaskFemConstraintDisplacementD0Ev
FemGui.so:_ZThn160_N6FemGui29TaskFemConstraintDisplacementD1Ev
FemGui.so:_ZThn160_N6FemGui30TaskFemConstraintFluidBoundary18onSelectionChangedERKN3Gui16SelectionChangesE
FemGui.so:_ZThn160_N6FemGui30TaskFemConstraintFluidBoundaryD0Ev
FemGui.so:_ZThn160_N6FemGui30TaskFemConstraintFluidBoundaryD1Ev
FemGui.so:_ZThn160_N6FemGui30TaskFemConstraintPlaneRotationD0Ev
FemGui.so:_ZThn160_N6FemGui30TaskFemConstraintPlaneRotationD1Ev
FemGui.so:_ZThn160_N6FemGui35TaskFemConstraintInitialTemperatureD0Ev
FemGui.so:_ZThn160_N6FemGui35TaskFemConstraintInitialTemperatureD1Ev
FemGui.so:_ZThn16_N6FemGui10TaskDriverD0Ev
FemGui.so:_ZThn16_N6FemGui10TaskDriverD1Ev
FemGui.so:_ZThn16_N6FemGui11PlaneWidgetD0Ev
FemGui.so:_ZThn16_N6FemGui11PlaneWidgetD1Ev
FemGui.so:_ZThn16_N6FemGui11TaskPostBoxD0Ev
FemGui.so:_ZThn16_N6FemGui11TaskPostBoxD1Ev
FemGui.so:_ZThn16_N6FemGui11TaskPostCutD0Ev
FemGui.so:_ZThn16_N6FemGui11TaskPostCutD1Ev
FemGui.so:_ZThn16_N6FemGui12SphereWidgetD0Ev
FemGui.so:_ZThn16_N6FemGui12SphereWidgetD1Ev
FemGui.so:_ZThn16_N6FemGui12TaskPostClipD0Ev
FemGui.so:_ZThn16_N6FemGui12TaskPostClipD1Ev
FemGui.so:_ZThn16_N6FemGui14TaskObjectNameD0Ev
FemGui.so:_ZThn16_N6FemGui14TaskObjectNameD1Ev
FemGui.so:_ZThn16_N6FemGui15TaskPostDisplayD0Ev
FemGui.so:_ZThn16_N6FemGui15TaskPostDisplayD1Ev
FemGui.so:_ZThn16_N6FemGui16TaskAnalysisInfoD0Ev
FemGui.so:_ZThn16_N6FemGui16TaskAnalysisInfoD1Ev
FemGui.so:_ZThn16_N6FemGui16TaskPostFunctionD0Ev
FemGui.so:_ZThn16_N6FemGui16TaskPostFunctionD1Ev
FemGui.so:_ZThn16_N6FemGui16TaskTetParameterD0Ev
FemGui.so:_ZThn16_N6FemGui16TaskTetParameterD1Ev
FemGui.so:_ZThn16_N6FemGui17TaskCreateNodeSetD0Ev
FemGui.so:_ZThn16_N6FemGui17TaskCreateNodeSetD1Ev
FemGui.so:_ZThn16_N6FemGui18TaskPostScalarClipD0Ev
FemGui.so:_ZThn16_N6FemGui18TaskPostScalarClipD1Ev
FemGui.so:_ZThn16_N6FemGui18TaskPostWarpVectorD0Ev
FemGui.so:_ZThn16_N6FemGui18TaskPostWarpVectorD1Ev
FemGui.so:_ZThn16_N6FemGui19TaskPostDataAtPointD0Ev
FemGui.so:_ZThn16_N6FemGui19TaskPostDataAtPointD1Ev
FemGui.so:_ZThn16_N6FemGui20DlgSettingsFemCcxImpD0Ev
FemGui.so:_ZThn16_N6FemGui20DlgSettingsFemCcxImpD1Ev
FemGui.so:_ZThn16_N6FemGui20DlgSettingsFemZ88ImpD0Ev
FemGui.so:_ZThn16_N6FemGui20DlgSettingsFemZ88ImpD1Ev
FemGui.so:_ZThn16_N6FemGui21DlgSettingsFemGmshImpD0Ev
FemGui.so:_ZThn16_N6FemGui21DlgSettingsFemGmshImpD1Ev
FemGui.so:_ZThn16_N6FemGui21TaskPostDataAlongLineD0Ev
FemGui.so:_ZThn16_N6FemGui21TaskPostDataAlongLineD1Ev
FemGui.so:_ZThn16_N6FemGui22DlgSettingsFemElmerImpD0Ev
FemGui.so:_ZThn16_N6FemGui22DlgSettingsFemElmerImpD1Ev
FemGui.so:_ZThn16_N6FemGui22TaskFemConstraintFixedD0Ev
FemGui.so:_ZThn16_N6FemGui22TaskFemConstraintFixedD1Ev
FemGui.so:_ZThn16_N6FemGui22TaskFemConstraintForceD0Ev
FemGui.so:_ZThn16_N6FemGui22TaskFemConstraintForceD1Ev
FemGui.so:_ZThn16_N6FemGui24DlgSettingsFemGeneralImpD0Ev
FemGui.so:_ZThn16_N6FemGui24DlgSettingsFemGeneralImpD1Ev
FemGui.so:_ZThn16_N6FemGui24TaskFemConstraintBearingD0Ev
FemGui.so:_ZThn16_N6FemGui24TaskFemConstraintBearingD1Ev
FemGui.so:_ZThn16_N6FemGui24TaskFemConstraintContactD0Ev
FemGui.so:_ZThn16_N6FemGui24TaskFemConstraintContactD1Ev
FemGui.so:_ZThn16_N6FemGui25DlgSettingsFemInOutVtkImpD0Ev
FemGui.so:_ZThn16_N6FemGui25DlgSettingsFemInOutVtkImpD1Ev
FemGui.so:_ZThn16_N6FemGui25DlgSettingsFemMaterialImpD0Ev
FemGui.so:_ZThn16_N6FemGui25DlgSettingsFemMaterialImpD1Ev
FemGui.so:_ZThn16_N6FemGui25TaskFemConstraintHeatfluxD0Ev
FemGui.so:_ZThn16_N6FemGui25TaskFemConstraintHeatfluxD1Ev
FemGui.so:_ZThn16_N6FemGui25TaskFemConstraintPressureD0Ev
FemGui.so:_ZThn16_N6FemGui25TaskFemConstraintPressureD1Ev
FemGui.so:_ZThn16_N6FemGui26TaskFemConstraintTransformD0Ev
FemGui.so:_ZThn16_N6FemGui26TaskFemConstraintTransformD1Ev
FemGui.so:_ZThn16_N6FemGui28TaskFemConstraintTemperatureD0Ev
FemGui.so:_ZThn16_N6FemGui28TaskFemConstraintTemperatureD1Ev
FemGui.so:_ZThn16_N6FemGui29DlgSettingsFemExportAbaqusImpD0Ev
FemGui.so:_ZThn16_N6FemGui29DlgSettingsFemExportAbaqusImpD1Ev
FemGui.so:_ZThn16_N6FemGui29TaskFemConstraintDisplacementD0Ev
FemGui.so:_ZThn16_N6FemGui29TaskFemConstraintDisplacementD1Ev
FemGui.so:_ZThn16_N6FemGui30TaskFemConstraintFluidBoundaryD0Ev
FemGui.so:_ZThn16_N6FemGui30TaskFemConstraintFluidBoundaryD1Ev
FemGui.so:_ZThn16_N6FemGui30TaskFemConstraintPlaneRotationD0Ev
FemGui.so:_ZThn16_N6FemGui30TaskFemConstraintPlaneRotationD1Ev
FemGui.so:_ZThn16_N6FemGui35TaskFemConstraintInitialTemperatureD0Ev
FemGui.so:_ZThn16_N6FemGui35TaskFemConstraintInitialTemperatureD1Ev
FemGui.so:_ZThn480_N6FemGui22ViewProviderFemPostCutD0Ev
FemGui.so:_ZThn480_N6FemGui22ViewProviderFemPostCutD1Ev
FemGui.so:_ZThn480_N6FemGui23ViewProviderFemAnalysisD0Ev
FemGui.so:_ZThn480_N6FemGui23ViewProviderFemAnalysisD1Ev
FemGui.so:_ZThn480_N6FemGui23ViewProviderFemPostClipD0Ev
FemGui.so:_ZThn480_N6FemGui23ViewProviderFemPostClipD1Ev
FemGui.so:_ZThn480_N6FemGui25ViewProviderFemPostObject8OnChangeERN4Base7SubjectIiEEi
FemGui.so:_ZThn480_N6FemGui25ViewProviderFemPostObjectD0Ev
FemGui.so:_ZThn480_N6FemGui25ViewProviderFemPostObjectD1Ev
FemGui.so:_ZThn480_N6FemGui27ViewProviderFemPostPipelineD0Ev
FemGui.so:_ZThn480_N6FemGui27ViewProviderFemPostPipelineD1Ev
FemGui.so:_ZThn480_N6FemGui29ViewProviderFemPostScalarClipD0Ev
FemGui.so:_ZThn480_N6FemGui29ViewProviderFemPostScalarClipD1Ev
FemGui.so:_ZThn480_N6FemGui29ViewProviderFemPostWarpVectorD0Ev
FemGui.so:_ZThn480_N6FemGui29ViewProviderFemPostWarpVectorD1Ev
FemGui.so:_ZThn480_N6FemGui30ViewProviderFemPostDataAtPointD0Ev
FemGui.so:_ZThn480_N6FemGui30ViewProviderFemPostDataAtPointD1Ev
FemGui.so:_ZThn480_N6FemGui32ViewProviderFemPostDataAlongLineD0Ev
FemGui.so:_ZThn480_N6FemGui32ViewProviderFemPostDataAlongLineD1Ev
FreeCAD.so:PyInit_FreeCAD
FreeCADGui.so:PyInit_FreeCADGui
Image.so:PyInit_Image
Image.so:_ZN5Image10ImagePlane14getClassTypeIdEv
Image.so:_ZN5Image10ImagePlane18getPropertyDataPtrEv
Image.so:_ZN5Image10ImagePlane4initEv
Image.so:_ZN5Image10ImagePlane6createEv
Image.so:_ZN5Image10ImagePlaneC1Ev
Image.so:_ZN5Image10ImagePlaneC2Ev
Image.so:_ZN5Image10ImagePlaneD0Ev
Image.so:_ZN5Image10ImagePlaneD1Ev
Image.so:_ZN5Image10ImagePlaneD2Ev
Image.so:_ZN5Image10initModuleEv
Image.so:_ZN5Image9ImageBase10createCopyEPvmmit
Image.so:_ZN5Image9ImageBase15_setColorFormatEit
Image.so:_ZN5Image9ImageBase5clearEv
Image.so:_ZN5Image9ImageBase7pointToEPvmmitb
Image.so:_ZN5Image9ImageBase9_allocateEv
Image.so:_ZN5Image9ImageBase9getSampleEiitRd
Image.so:_ZN5Image9ImageBaseC1ERKS0_
Image.so:_ZN5Image9ImageBaseC1Ev
Image.so:_ZN5Image9ImageBaseC2ERKS0_
Image.so:_ZN5Image9ImageBaseC2Ev
Image.so:_ZN5Image9ImageBaseD0Ev
Image.so:_ZN5Image9ImageBaseD1Ev
Image.so:_ZN5Image9ImageBaseD2Ev
Image.so:_ZN5Image9ImageBaseaSERKS0_
Image.so:_ZNK5Image10ImagePlane15getPropertyDataEv
Image.so:_ZNK5Image10ImagePlane9getTypeIdEv
ImageGui.so:PyInit_ImageGui
ImageGui.so:_Z17loadImageResourcev
ImageGui.so:_Z19CreateImageCommandsv
ImageGui.so:_Z20qInitResources_Imagev
ImageGui.so:_Z23qCleanupResources_Imagev
ImageGui.so:_ZN12CmdImageOpen9activatedEi
ImageGui.so:_ZN12CmdImageOpenC1Ev
ImageGui.so:_ZN12CmdImageOpenC2Ev
ImageGui.so:_ZN15CmdImageScaling9activatedEi
ImageGui.so:_ZN15CmdImageScalingC1Ev
ImageGui.so:_ZN15CmdImageScalingC2Ev
ImageGui.so:_ZN19CmdCreateImagePlane8isActiveEv
ImageGui.so:_ZN19CmdCreateImagePlane9activatedEi
ImageGui.so:_ZN19CmdCreateImagePlaneC1Ev
ImageGui.so:_ZN19CmdCreateImagePlaneC2Ev
ImageGui.so:_ZN8ImageGui10GLImageBox10clearImageEv
ImageGui.so:_ZN8ImageGui10GLImageBox10renderTextEiiRK7QStringRK5QFont
ImageGui.so:_ZN8ImageGui10GLImageBox10setCurrPosEii
ImageGui.so:_ZN8ImageGui10GLImageBox11qt_metacallEN11QMetaObject4CallEiPPv
ImageGui.so:_ZN8ImageGui10GLImageBox11qt_metacastEPKc
ImageGui.so:_ZN8ImageGui10GLImageBox12drawGraphicsEv
ImageGui.so:_ZN8ImageGui10GLImageBox12getPixFormatERjS1_
ImageGui.so:_ZN8ImageGui10GLImageBox12initializeGLEv
ImageGui.so:_ZN8ImageGui10GLImageBox12limitCurrPosEv
ImageGui.so:_ZN8ImageGui10GLImageBox12pointImageToEPvmmitbi
ImageGui.so:_ZN8ImageGui10GLImageBox12resetDisplayEv
ImageGui.so:_ZN8ImageGui10GLImageBox12stretchToFitEv
ImageGui.so:_ZN8ImageGui10GLImageBox13clearColorMapEv
ImageGui.so:_ZN8ImageGui10GLImageBox13setZoomFactorEdbii
ImageGui.so:_ZN8ImageGui10GLImageBox14createColorMapEib
ImageGui.so:_ZN8ImageGui10GLImageBox14fixBasePosCurrEv
ImageGui.so:_ZN8ImageGui10GLImageBox14getCentrePointERiS1_
ImageGui.so:_ZN8ImageGui10GLImageBox14getImageFormatEv
ImageGui.so:_ZN8ImageGui10GLImageBox14getImageSampleEiitRd
ImageGui.so:_ZN8ImageGui10GLImageBox15createImageCopyEPvmmiti
ImageGui.so:_ZN8ImageGui10GLImageBox15limitZoomFactorEv
ImageGui.so:_ZN8ImageGui10GLImageBox16pixValToMapIndexEd
ImageGui.so:_ZN8ImageGui10GLImageBox19handleLoggedMessageERK19QOpenGLDebugMessage
ImageGui.so:_ZN8ImageGui10GLImageBox19setColorMapRedValueEif
ImageGui.so:_ZN8ImageGui10GLImageBox20setColorMapBlueValueEif
ImageGui.so:_ZN8ImageGui10GLImageBox20setColorMapRGBAValueEiffff
ImageGui.so:_ZN8ImageGui10GLImageBox21setColorMapAlphaValueEif
ImageGui.so:_ZN8ImageGui10GLImageBox21setColorMapGreenValueEif
ImageGui.so:_ZN8ImageGui10GLImageBox22calcNumColorMapEntriesEv
ImageGui.so:_ZN8ImageGui10GLImageBox24getImageNumSamplesPerPixEv
ImageGui.so:_ZN8ImageGui10GLImageBox25getDisplayedImageAreaSizeERiS1_
ImageGui.so:_ZN8ImageGui10GLImageBox6redrawEv
ImageGui.so:_ZN8ImageGui10GLImageBox7paintGLEv
ImageGui.so:_ZN8ImageGui10GLImageBox8ICToWC_XEd
ImageGui.so:_ZN8ImageGui10GLImageBox8ICToWC_YEd
ImageGui.so:_ZN8ImageGui10GLImageBox8WCToIC_XEd
ImageGui.so:_ZN8ImageGui10GLImageBox8WCToIC_YEd
ImageGui.so:_ZN8ImageGui10GLImageBox8resizeGLEii
ImageGui.so:_ZN8ImageGui10GLImageBox8setToFitEv
ImageGui.so:_ZN8ImageGui10GLImageBox9drawImageEv
ImageGui.so:_ZN8ImageGui10GLImageBox9relMoveWCEii
ImageGui.so:_ZN8ImageGui10GLImageBox9setNormalEv
ImageGui.so:_ZN8ImageGui10GLImageBoxC1EP7QWidget6QFlagsIN2Qt10WindowTypeEE
ImageGui.so:_ZN8ImageGui10GLImageBoxC2EP7QWidget6QFlagsIN2Qt10WindowTypeEE
ImageGui.so:_ZN8ImageGui10GLImageBoxD0Ev
ImageGui.so:_ZN8ImageGui10GLImageBoxD1Ev
ImageGui.so:_ZN8ImageGui10GLImageBoxD2Ev
ImageGui.so:_ZN8ImageGui10initModuleEv
ImageGui.so:_ZN8ImageGui22ImageOrientationDialog11qt_metacallEN11QMetaObject4CallEiPPv
ImageGui.so:_ZN8ImageGui22ImageOrientationDialog11qt_metacastEPKc
ImageGui.so:_ZN8ImageGui22ImageOrientationDialog6acceptEv
ImageGui.so:_ZN8ImageGui22ImageOrientationDialog9onPreviewEv
ImageGui.so:_ZN8ImageGui22ImageOrientationDialogC1Ev
ImageGui.so:_ZN8ImageGui22ImageOrientationDialogC2Ev
ImageGui.so:_ZN8ImageGui22ImageOrientationDialogD0Ev
ImageGui.so:_ZN8ImageGui22ImageOrientationDialogD1Ev
ImageGui.so:_ZN8ImageGui22ImageOrientationDialogD2Ev
ImageGui.so:_ZN8ImageGui22ViewProviderImagePlane10updateDataEPKN3App8PropertyE
ImageGui.so:_ZN8ImageGui22ViewProviderImagePlane14getClassTypeIdEv
ImageGui.so:_ZN8ImageGui22ViewProviderImagePlane14setDisplayModeEPKc
ImageGui.so:_ZN8ImageGui22ViewProviderImagePlane18getPropertyDataPtrEv
ImageGui.so:_ZN8ImageGui22ViewProviderImagePlane4initEv
ImageGui.so:_ZN8ImageGui22ViewProviderImagePlane6attachEPN3App14DocumentObjectE
ImageGui.so:_ZN8ImageGui22ViewProviderImagePlane6createEv
ImageGui.so:_ZN8ImageGui22ViewProviderImagePlane7loadSvgEPKcffR6QImage
ImageGui.so:_ZN8ImageGui22ViewProviderImagePlaneC1Ev
ImageGui.so:_ZN8ImageGui22ViewProviderImagePlaneC2Ev
ImageGui.so:_ZN8ImageGui22ViewProviderImagePlaneD0Ev
ImageGui.so:_ZN8ImageGui22ViewProviderImagePlaneD1Ev
ImageGui.so:_ZN8ImageGui22ViewProviderImagePlaneD2Ev
ImageGui.so:_ZN8ImageGui9ImageView10clearImageEv
ImageGui.so:_ZN8ImageGui9ImageView10closeEventEP11QCloseEvent
ImageGui.so:_ZN8ImageGui9ImageView10wheelEventEP11QWheelEvent
ImageGui.so:_ZN8ImageGui9ImageView11qt_metacallEN11QMetaObject4CallEiPPv
ImageGui.so:_ZN8ImageGui9ImageView11qt_metacastEPKc
ImageGui.so:_ZN8ImageGui9ImageView12drawGraphicsEv
ImageGui.so:_ZN8ImageGui9ImageView12pointImageToEPvmmitbi
ImageGui.so:_ZN8ImageGui9ImageView13clearColorMapEv
ImageGui.so:_ZN8ImageGui9ImageView13createActionsEv
ImageGui.so:_ZN8ImageGui9ImageView13enableToolBarEb
ImageGui.so:_ZN8ImageGui9ImageView13oneToOneImageEv
ImageGui.so:_ZN8ImageGui9ImageView14createColorMapEib
ImageGui.so:_ZN8ImageGui9ImageView14mouseMoveEventEP11QMouseEvent
ImageGui.so:_ZN8ImageGui9ImageView15createImageCopyEPvmmiti
ImageGui.so:_ZN8ImageGui9ImageView15enableStatusBarEb
ImageGui.so:_ZN8ImageGui9ImageView15mousePressEventEP11QMouseEvent
ImageGui.so:_ZN8ImageGui9ImageView15updateStatusBarEv
ImageGui.so:_ZN8ImageGui9ImageView17closeEventIgnoredEv
ImageGui.so:_ZN8ImageGui9ImageView17enableMouseEventsEb
ImageGui.so:_ZN8ImageGui9ImageView17mouseReleaseEventEP11QMouseEvent
ImageGui.so:_ZN8ImageGui9ImageView18showOriginalColorsEv
ImageGui.so:_ZN8ImageGui9ImageView19createStatusBarTextEv
ImageGui.so:_ZN8ImageGui9ImageView19setColorMapRedValueEif
ImageGui.so:_ZN8ImageGui9ImageView20enableFitImageActionEb
ImageGui.so:_ZN8ImageGui9ImageView20enableOneToOneActionEb
ImageGui.so:_ZN8ImageGui9ImageView20setColorMapBlueValueEif
ImageGui.so:_ZN8ImageGui9ImageView20setColorMapRGBAValueEiffff
ImageGui.so:_ZN8ImageGui9ImageView21mouseDoubleClickEventEP11QMouseEvent
ImageGui.so:_ZN8ImageGui9ImageView21setColorMapAlphaValueEif
ImageGui.so:_ZN8ImageGui9ImageView21setColorMapGreenValueEif
ImageGui.so:_ZN8ImageGui9ImageView4zoomEiiii
ImageGui.so:_ZN8ImageGui9ImageView6selectEii
ImageGui.so:_ZN8ImageGui9ImageView8fitImageEv
ImageGui.so:_ZN8ImageGui9ImageView9addSelectEii
ImageGui.so:_ZN8ImageGui9ImageView9showEventEP10QShowEvent
ImageGui.so:_ZN8ImageGui9ImageView9startDragEv
ImageGui.so:_ZN8ImageGui9ImageViewC1EP7QWidget
ImageGui.so:_ZN8ImageGui9ImageViewC2EP7QWidget
ImageGui.so:_ZN8ImageGui9ImageViewD0Ev
ImageGui.so:_ZN8ImageGui9ImageViewD1Ev
ImageGui.so:_ZN8ImageGui9ImageViewD2Ev
ImageGui.so:_ZN8ImageGui9Workbench14getClassTypeIdEv
ImageGui.so:_ZN8ImageGui9Workbench4initEv
ImageGui.so:_ZN8ImageGui9Workbench6createEv
ImageGui.so:_ZN8ImageGui9WorkbenchC1Ev
ImageGui.so:_ZN8ImageGui9WorkbenchC2Ev
ImageGui.so:_ZN8ImageGui9WorkbenchD0Ev
ImageGui.so:_ZN8ImageGui9WorkbenchD1Ev
ImageGui.so:_ZN8ImageGui9WorkbenchD2Ev
ImageGui.so:_ZNK8ImageGui10GLImageBox10metaObjectEv
ImageGui.so:_ZNK8ImageGui22ImageOrientationDialog10metaObjectEv
ImageGui.so:_ZNK8ImageGui22ViewProviderImagePlane15getDisplayModesB5cxx11Ev
ImageGui.so:_ZNK8ImageGui22ViewProviderImagePlane15getPropertyDataEv
ImageGui.so:_ZNK8ImageGui22ViewProviderImagePlane9getTypeIdEv
ImageGui.so:_ZNK8ImageGui9ImageView10metaObjectEv
ImageGui.so:_ZNK8ImageGui9ImageView15minimumSizeHintEv
ImageGui.so:_ZNK8ImageGui9ImageView21getNumColorMapEntriesEv
ImageGui.so:_ZNK8ImageGui9Workbench13setupToolBarsEv
ImageGui.so:_ZNK8ImageGui9Workbench16setupCommandBarsEv
ImageGui.so:_ZNK8ImageGui9Workbench9getTypeIdEv
ImageGui.so:_ZThn16_N8ImageGui10GLImageBoxD0Ev
ImageGui.so:_ZThn16_N8ImageGui10GLImageBoxD1Ev
ImageGui.so:_ZThn16_N8ImageGui22ImageOrientationDialogD0Ev
ImageGui.so:_ZThn16_N8ImageGui22ImageOrientationDialogD1Ev
ImageGui.so:_ZThn16_N8ImageGui9ImageViewD0Ev
ImageGui.so:_ZThn16_N8ImageGui9ImageViewD1Ev
ImageGui.so:_ZThn48_N8ImageGui9ImageViewD0Ev
ImageGui.so:_ZThn48_N8ImageGui9ImageViewD1Ev
Import.so:PyInit_Import
Import.so:_Z10toVector3dPKd
Import.so:_Z11gPntToTuplePdR6gp_Pnt
Import.so:_Z13gPntTopoint3DR6gp_Pnt
Import.so:_ZN6Import10ExportOCAF10createNodeEPN3App4PartERiRSt6vectorI9TDF_LabelSaIS6_EERS5_I15TopLoc_LocationSaISA_EERS5_IPNS1_14DocumentObjectESaISF_EE
Import.so:_ZN6Import10ExportOCAF12exportObjectEPN3App14DocumentObjectERSt6vectorI9TDF_LabelSaIS5_EERS4_I15TopLoc_LocationSaIS9_EERS4_IS3_SaIS3_EE
Import.so:_ZN6Import10ExportOCAF13getFreeLabelsERSt6vectorI9TDF_LabelSaIS2_EES5_RS1_IiSaIiEE
Import.so:_ZN6Import10ExportOCAF19reallocateFreeShapeESt6vectorIPN3App14DocumentObjectESaIS4_EES1_I9TDF_LabelSaIS7_EES1_IiSaIiEERS1_IS1_INS2_5ColorESaISC_EESaISE_EE
Import.so:_ZN6Import10ExportOCAF8pushNodeEiiRSt6vectorI9TDF_LabelSaIS2_EERS1_I15TopLoc_LocationSaIS6_EE
Import.so:_ZN6Import10ExportOCAF9saveShapeEPN4Part7FeatureERKSt6vectorIN3App5ColorESaIS6_EERS4_I9TDF_LabelSaISB_EERS4_I15TopLoc_LocationSaISF_EERS4_IPNS5_14DocumentObjectESaISK_EE
Import.so:_ZN6Import10ExportOCAFC1E23Handle_TDocStd_Documentb
Import.so:_ZN6Import10ExportOCAFC2E23Handle_TDocStd_Documentb
Import.so:_ZN6Import10ExportOCAFD0Ev
Import.so:_ZN6Import10ExportOCAFD1Ev
Import.so:_ZN6Import10ExportOCAFD2Ev
Import.so:_ZN6Import10ImportOCAF10loadColorsEPN4Part7FeatureERK12TopoDS_Shape
Import.so:_ZN6Import10ImportOCAF10loadShapesERK9TDF_LabelRK15TopLoc_LocationRKNSt7__cxx1112basic_stringIcSt11char_traitsIcESaIcEEESE_bRSt6vectorIPN3App14DocumentObjectESaISI_EE
Import.so:_ZN6Import10ImportOCAF10loadShapesEv
Import.so:_ZN6Import10ImportOCAF11createShapeERK12TopoDS_ShapeRK15TopLoc_LocationRKNSt7__cxx1112basic_stringIcSt11char_traitsIcESaIcEEERSt6vectorIPN3App14DocumentObjectESaISI_EE
Import.so:_ZN6Import10ImportOCAF11createShapeERK9TDF_LabelRK15TopLoc_LocationRKNSt7__cxx1112basic_stringIcSt11char_traitsIcESaIcEEERSt6vectorIPN3App14DocumentObjectESaISI_EEb
Import.so:_ZN6Import10ImportOCAF8setMergeEb
Import.so:_ZN6Import10ImportOCAFC1E23Handle_TDocStd_DocumentPN3App8DocumentERKNSt7__cxx1112basic_stringIcSt11char_traitsIcESaIcEEE
Import.so:_ZN6Import10ImportOCAFC2E23Handle_TDocStd_DocumentPN3App8DocumentERKNSt7__cxx1112basic_stringIcSt11char_traitsIcESaIcEEE
Import.so:_ZN6Import10ImportOCAFD0Ev
Import.so:_ZN6Import10ImportOCAFD1Ev
Import.so:_ZN6Import10ImportOCAFD2Ev
Import.so:_ZN6Import10ImportXCAF10loadShapesERK9TDF_Label
Import.so:_ZN6Import10ImportXCAF10loadShapesEv
Import.so:_ZN6Import10ImportXCAFC1E23Handle_TDocStd_DocumentPN3App8DocumentERKNSt7__cxx1112basic_stringIcSt11char_traitsIcESaIcEEE
Import.so:_ZN6Import10ImportXCAFC2E23Handle_TDocStd_DocumentPN3App8DocumentERKNSt7__cxx1112basic_stringIcSt11char_traitsIcESaIcEEE
Import.so:_ZN6Import10ImportXCAFD0Ev
Import.so:_ZN6Import10ImportXCAFD1Ev
Import.so:_ZN6Import10ImportXCAFD2Ev
Import.so:_ZN6Import10initModuleEv
Import.so:_ZN6Import11StepShapePy19setCustomAttributesEPKcP7_object
Import.so:_ZN6Import11StepShapePy19staticCallback_readEP7_objectS2_
Import.so:_ZN6Import11StepShapePy4readEP7_object
Import.so:_ZN6Import11StepShapePy5_reprEv
Import.so:_ZN6Import11StepShapePy6PyInitEP7_objectS2_
Import.so:_ZN6Import11StepShapePy6PyMakeEP11_typeobjectP7_objectS4_
Import.so:_ZN6Import11StepShapePy8_getattrEPKc
Import.so:_ZN6Import11StepShapePy8_setattrEPKcP7_object
Import.so:_ZN6Import11StepShapePyC1EPNS_9StepShapeEP11_typeobject
Import.so:_ZN6Import11StepShapePyC2EPNS_9StepShapeEP11_typeobject
Import.so:_ZN6Import11StepShapePyD0Ev
Import.so:_ZN6Import11StepShapePyD1Ev
Import.so:_ZN6Import11StepShapePyD2Ev
Import.so:_ZN6Import13ExportOCAFCmdC1E23Handle_TDocStd_Documentb
Import.so:_ZN6Import13ExportOCAFCmdC2E23Handle_TDocStd_Documentb
Import.so:_ZN6Import13ImpExpDxfRead10OnReadLineEPKdS2_b
Import.so:_ZN6Import13ImpExpDxfRead10OnReadTextEPKddPKc
Import.so:_ZN6Import13ImpExpDxfRead10setOptionsEv
Import.so:_ZN6Import13ImpExpDxfRead11OnReadPointEPKd
Import.so:_ZN6Import13ImpExpDxfRead12OnReadCircleEPKdS2_bb
Import.so:_ZN6Import13ImpExpDxfRead12OnReadInsertEPKdS2_PKcd
Import.so:_ZN6Import13ImpExpDxfRead12OnReadSplineER10SplineData
Import.so:_ZN6Import13ImpExpDxfRead13OnReadEllipseEPKddddddb
Import.so:_ZN6Import13ImpExpDxfRead15OnReadDimensionEPKdS2_S2_d
Import.so:_ZN6Import13ImpExpDxfRead8DeformatB5cxx11EPKc
Import.so:_ZN6Import13ImpExpDxfRead9AddObjectEPN4Part9TopoShapeE
Import.so:_ZN6Import13ImpExpDxfRead9OnReadArcEPKdS2_S2_bb
Import.so:_ZN6Import13ImpExpDxfRead9makePointEPKd
Import.so:_ZN6Import13ImpExpDxfReadC1ENSt7__cxx1112basic_stringIcSt11char_traitsIcESaIcEEEPN3App8DocumentE
Import.so:_ZN6Import13ImpExpDxfReadC2ENSt7__cxx1112basic_stringIcSt11char_traitsIcESaIcEEEPN3App8DocumentE
Import.so:_ZN6Import13ImportOCAFCmd11applyColorsEPN4Part7FeatureERKSt6vectorIN3App5ColorESaIS6_EE
Import.so:_ZN6Import13ImportOCAFCmdC1E23Handle_TDocStd_DocumentPN3App8DocumentERKNSt7__cxx1112basic_stringIcSt11char_traitsIcESaIcEEE
Import.so:_ZN6Import13ImportOCAFCmdC2E23Handle_TDocStd_DocumentPN3App8DocumentERKNSt7__cxx1112basic_stringIcSt11char_traitsIcESaIcEEE
Import.so:_ZN6Import14ImpExpDxfWrite10exportLineER17BRepAdaptor_Curve
Import.so:_ZN6Import14ImpExpDxfWrite10exportTextEPKcN4Base7Vector3IdEES5_di
Import.so:_ZN6Import14ImpExpDxfWrite10setOptionsEv
Import.so:_ZN6Import14ImpExpDxfWrite11exportShapeE12TopoDS_Shape
Import.so:_ZN6Import14ImpExpDxfWrite11gp_PntEqualE6gp_PntS1_
Import.so:_ZN6Import14ImpExpDxfWrite12exportBCurveER17BRepAdaptor_Curve
Import.so:_ZN6Import14ImpExpDxfWrite12exportCircleER17BRepAdaptor_Curve
Import.so:_ZN6Import14ImpExpDxfWrite12exportLWPolyER17BRepAdaptor_Curve
Import.so:_ZN6Import14ImpExpDxfWrite13exportBSplineER17BRepAdaptor_Curve
Import.so:_ZN6Import14ImpExpDxfWrite13exportEllipseER17BRepAdaptor_Curve
Import.so:_ZN6Import14ImpExpDxfWrite13gp_PntCompareE6gp_PntS1_
Import.so:_ZN6Import14ImpExpDxfWrite14exportPolylineER17BRepAdaptor_Curve
Import.so:_ZN6Import14ImpExpDxfWrite15exportLinearDimEN4Base7Vector3IdEES3_S3_S3_Pc
Import.so:_ZN6Import14ImpExpDxfWrite15exportRadialDimEN4Base7Vector3IdEES3_S3_Pc
Import.so:_ZN6Import14ImpExpDxfWrite16exportAngularDimEN4Base7Vector3IdEES3_S3_S3_S3_Pc
Import.so:_ZN6Import14ImpExpDxfWrite16exportEllipseArcER17BRepAdaptor_Curve
Import.so:_ZN6Import14ImpExpDxfWrite18exportDiametricDimEN4Base7Vector3IdEES3_S3_Pc
Import.so:_ZN6Import14ImpExpDxfWrite9exportArcER17BRepAdaptor_Curve
Import.so:_ZN6Import14ImpExpDxfWriteC1ENSt7__cxx1112basic_stringIcSt11char_traitsIcESaIcEEE
Import.so:_ZN6Import14ImpExpDxfWriteC2ENSt7__cxx1112basic_stringIcSt11char_traitsIcESaIcEEE
Import.so:_ZN6Import14ImpExpDxfWriteD1Ev
Import.so:_ZN6Import14ImpExpDxfWriteD2Ev
Import.so:_ZN6Import9StepShape4readEPKc
Import.so:_ZN6Import9StepShapeC1Ev
Import.so:_ZN6Import9StepShapeC2Ev
Import.so:_ZN6Import9StepShapeD1Ev
Import.so:_ZN6Import9StepShapeD2Ev
Import.so:_ZN8CDxfRead10ReadCircleEv
Import.so:_ZN8CDxfRead10ReadInsertEv
Import.so:_ZN8CDxfRead10ReadSplineEv
Import.so:_ZN8CDxfRead10ReadVertexEPdPbS0_
Import.so:_ZN8CDxfRead11ReadEllipseEv
Import.so:_ZN8CDxfRead12OnReadCircleEPKddb
Import.so:_ZN8CDxfRead12ReadPolyLineEv
Import.so:_ZN8CDxfRead13OnReadEllipseEPKdS1_ddd
Import.so:_ZN8CDxfRead13ReadBlockInfoEv
Import.so:_ZN8CDxfRead13ReadDimensionEv
Import.so:_ZN8CDxfRead14ReadLwPolyLineEv
Import.so:_ZN8CDxfRead6DoReadEb
Import.so:_ZN8CDxfRead7ReadArcEv
Import.so:_ZN8CDxfRead8DerefACIEv
Import.so:_ZN8CDxfRead8ReadLineEv
Import.so:_ZN8CDxfRead8ReadTextEv
Import.so:_ZN8CDxfRead8get_lineEv
Import.so:_ZN8CDxfRead8put_lineEPKc
Import.so:_ZN8CDxfRead9OnReadArcEdddPKddb
Import.so:_ZN8CDxfRead9ReadLayerEv
Import.so:_ZN8CDxfRead9ReadPointEv
Import.so:_ZN8CDxfRead9ReadUnitsEv
Import.so:_ZN8CDxfReadC1EPKc
Import.so:_ZN8CDxfReadC2EPKc
Import.so:_ZN8CDxfReadD1Ev
Import.so:_ZN8CDxfReadD2Ev
Import.so:_ZN9CDxfWrite10writePointEPKd
Import.so:_ZN9CDxfWrite11writeCircleEPKdd
Import.so:_ZN9CDxfWrite11writeSplineERK13SplineDataOut
Import.so:_ZN9CDxfWrite11writeVertexEddd
Import.so:_ZN9CDxfWrite12addBlockNameENSt7__cxx1112basic_stringIcSt11char_traitsIcESaIcEEES5_
Import.so:_ZN9CDxfWrite12getPlateFileENSt7__cxx1112basic_stringIcSt11char_traitsIcESaIcEEE
Import.so:_ZN9CDxfWrite12setLayerNameENSt7__cxx1112basic_stringIcSt11char_traitsIcESaIcEEE
Import.so:_ZN9CDxfWrite12writeEllipseEPKddddddb
Import.so:_ZN9CDxfWrite13writePolylineERK13LWPolyDataOut
Import.so:_ZN9CDxfWrite14getBlockHandleB5cxx11Ev
Import.so:_ZN9CDxfWrite14getLayerHandleB5cxx11Ev
Import.so:_ZN9CDxfWrite14makeLayerTableEv
Import.so:_ZN9CDxfWrite14writeLinearDimEPKdS1_S1_S1_PKc
Import.so:_ZN9CDxfWrite14writeRadialDimEPKdS1_S1_PKc
Import.so:_ZN9CDxfWrite15getEntityHandleB5cxx11Ev
Import.so:_ZN9CDxfWrite15writeAngularDimEPKdS1_S1_S1_S1_S1_PKc
Import.so:_ZN9CDxfWrite15writeLWPolyLineERK13LWPolyDataOut
Import.so:_ZN9CDxfWrite17writeBlockTrailerEv
Import.so:_ZN9CDxfWrite17writeDiametricDimEPKdS1_S1_PKc
Import.so:_ZN9CDxfWrite18getBlkRecordHandleB5cxx11Ev
Import.so:_ZN9CDxfWrite18writeBlocksSectionEv
Import.so:_ZN9CDxfWrite18writeHeaderSectionEv
Import.so:_ZN9CDxfWrite18writeTablesSectionEv
Import.so:_ZN9CDxfWrite19writeClassesSectionEv
Import.so:_ZN9CDxfWrite19writeLinearDimBlockEPKdS1_S1_S1_PKc
Import.so:_ZN9CDxfWrite19writeObjectsSectionEv
Import.so:_ZN9CDxfWrite19writeRadialDimBlockEPKdS1_S1_PKc
Import.so:_ZN9CDxfWrite20makeBlockSectionHeadEv
Import.so:_ZN9CDxfWrite20writeAngularDimBlockEPKdS1_S1_S1_S1_S1_PKc
Import.so:_ZN9CDxfWrite20writeEntitiesSectionEv
Import.so:_ZN9CDxfWrite21writeDimBlockPreambleEv
Import.so:_ZN9CDxfWrite22writeDiametricDimBlockEPKdS1_S1_PKc
Import.so:_ZN9CDxfWrite24makeBlockRecordTableBodyEv
Import.so:_ZN9CDxfWrite24makeBlockRecordTableHeadEv
Import.so:_ZN9CDxfWrite4initEv
Import.so:_ZN9CDxfWrite6endRunEv
Import.so:_ZN9CDxfWrite7putLineEN4Base7Vector3IdEES2_PNSt7__cxx1119basic_ostringstreamIcSt11char_traitsIcESaIcEEENS3_12basic_stringIcS6_S7_EESB_
Import.so:_ZN9CDxfWrite7putTextEPKcN4Base7Vector3IdEES4_diPNSt7__cxx1119basic_ostringstreamIcSt11char_traitsIcESaIcEEENS5_12basic_stringIcS8_S9_EESD_
Import.so:_ZN9CDxfWrite8putArrowEN4Base7Vector3IdEES2_S2_PNSt7__cxx1119basic_ostringstreamIcSt11char_traitsIcESaIcEEENS3_12basic_stringIcS6_S7_EESB_
Import.so:_ZN9CDxfWrite8writeArcEPKdS1_S1_b
Import.so:_ZN9CDxfWrite9writeLineEPKdS1_
Import.so:_ZN9CDxfWrite9writeTextEPKcPKdS3_di
Import.so:_ZN9CDxfWriteC1EPKc
Import.so:_ZN9CDxfWriteC2EPKc
Import.so:_ZN9CDxfWriteD1Ev
Import.so:_ZN9CDxfWriteD2Ev
Import.so:_ZNK6Import10ExportOCAF10filterPartEPN3App4PartE
Import.so:_ZNK6Import10ExportOCAF13getPartColorsESt6vectorIPN3App14DocumentObjectESaIS4_EES1_I9TDF_LabelSaIS7_EES1_IiSaIiEERS1_IS1_INS2_5ColorESaISC_EESaISE_EE
Import.so:_ZNK6Import10ImportXCAF11createShapeERK12TopoDS_Shapebb
Import.so:_ZNK6Import11StepShapePy14representationB5cxx11Ev
Import.so:_ZNK6Import11StepShapePy15getStepShapePtrEv
Import.so:_ZNK6Import11StepShapePy19getCustomAttributesEPKc
Import.so:_ZNK6Import13ExportOCAFCmd10findColorsEPN4Part7FeatureERSt6vectorIN3App5ColorESaIS6_EE
Import.so:_ZNK6Import13ImpExpDxfRead11AddGraphicsEv
Import.so:_ZNK8CDxfRead2mmEd
Import.so:_ZNK8CDxfRead9LayerNameB5cxx11Ev
ImportGui.so:PyInit_ImportGui
ImportGui.so:_Z20CreateImportCommandsv
ImportGui.so:_ZN10ImportIges8isActiveEv
ImportGui.so:_ZN10ImportIges9activatedEi
ImportGui.so:_ZN10ImportIgesC1Ev
ImportGui.so:_ZN10ImportIgesC2Ev
ImportGui.so:_ZN10ImportStep8isActiveEv
ImportGui.so:_ZN10ImportStep9activatedEi
ImportGui.so:_ZN10ImportStepC1Ev
ImportGui.so:_ZN10ImportStepC2Ev
ImportGui.so:_ZN11OCAFBrowser4loadEP11QTreeWidget
ImportGui.so:_ZN11OCAFBrowser4loadERK9TDF_LabelP15QTreeWidgetItemRK7QString
ImportGui.so:_ZN19FCCmdImportReadBREP8isActiveEv
ImportGui.so:_ZN19FCCmdImportReadBREP9activatedEi
ImportGui.so:_ZN19FCCmdImportReadBREPC1Ev
ImportGui.so:_ZN19FCCmdImportReadBREPC2Ev
ImportGui.so:_ZN9ImportGui10initModuleEv
ImportGui.so:_ZN9ImportGui9Workbench14getClassTypeIdEv
ImportGui.so:_ZN9ImportGui9Workbench4initEv
ImportGui.so:_ZN9ImportGui9Workbench6createEv
ImportGui.so:_ZN9ImportGui9WorkbenchC1Ev
ImportGui.so:_ZN9ImportGui9WorkbenchC2Ev
ImportGui.so:_ZN9ImportGui9WorkbenchD0Ev
ImportGui.so:_ZN9ImportGui9WorkbenchD1Ev
ImportGui.so:_ZN9ImportGui9WorkbenchD2Ev
ImportGui.so:_ZNK9ImportGui9Workbench13setupToolBarsEv
ImportGui.so:_ZNK9ImportGui9Workbench16setupCommandBarsEv
ImportGui.so:_ZNK9ImportGui9Workbench9getTypeIdEv
Inspection.so:PyInit_Inspection
Inspection.so:_ZN10Inspection10initModuleEv
Inspection.so:_ZN10Inspection17InspectActualMesh8getPointEm
Inspection.so:_ZN10Inspection17InspectActualMeshC1ERKN4Mesh10MeshObjectE
Inspection.so:_ZN10Inspection17InspectActualMeshC2ERKN4Mesh10MeshObjectE
Inspection.so:_ZN10Inspection17InspectActualMeshD0Ev
Inspection.so:_ZN10Inspection17InspectActualMeshD1Ev
Inspection.so:_ZN10Inspection17InspectActualMeshD2Ev
Inspection.so:_ZN10Inspection18InspectActualShape8getPointEm
Inspection.so:_ZN10Inspection18InspectActualShapeC1ERKN4Part9TopoShapeE
Inspection.so:_ZN10Inspection18InspectActualShapeC2ERKN4Part9TopoShapeE
Inspection.so:_ZN10Inspection18InspectNominalMesh11getDistanceERKN4Base7Vector3IfEE
Inspection.so:_ZN10Inspection18InspectNominalMeshC1ERKN4Mesh10MeshObjectEf
Inspection.so:_ZN10Inspection18InspectNominalMeshC2ERKN4Mesh10MeshObjectEf
Inspection.so:_ZN10Inspection18InspectNominalMeshD0Ev
Inspection.so:_ZN10Inspection18InspectNominalMeshD1Ev
Inspection.so:_ZN10Inspection18InspectNominalMeshD2Ev
Inspection.so:_ZN10Inspection19InspectActualPoints8getPointEm
Inspection.so:_ZN10Inspection19InspectActualPointsC1ERKN6Points11PointKernelE
Inspection.so:_ZN10Inspection19InspectActualPointsC2ERKN6Points11PointKernelE
Inspection.so:_ZN10Inspection19InspectNominalShape11getDistanceERKN4Base7Vector3IfEE
Inspection.so:_ZN10Inspection19InspectNominalShapeC1ERK12TopoDS_Shapef
Inspection.so:_ZN10Inspection19InspectNominalShapeC2ERK12TopoDS_Shapef
Inspection.so:_ZN10Inspection19InspectNominalShapeD0Ev
Inspection.so:_ZN10Inspection19InspectNominalShapeD1Ev
Inspection.so:_ZN10Inspection19InspectNominalShapeD2Ev
Inspection.so:_ZN10Inspection20InspectNominalPoints11getDistanceERKN4Base7Vector3IfEE
Inspection.so:_ZN10Inspection20InspectNominalPointsC1ERKN6Points11PointKernelEf
Inspection.so:_ZN10Inspection20InspectNominalPointsC2ERKN6Points11PointKernelEf
Inspection.so:_ZN10Inspection20InspectNominalPointsD0Ev
Inspection.so:_ZN10Inspection20InspectNominalPointsD1Ev
Inspection.so:_ZN10Inspection20InspectNominalPointsD2Ev
Inspection.so:_ZN10Inspection20PropertyDistanceList11getPyObjectEv
Inspection.so:_ZN10Inspection20PropertyDistanceList11setPyObjectEP7_object
Inspection.so:_ZN10Inspection20PropertyDistanceList14RestoreDocFileERN4Base6ReaderE
Inspection.so:_ZN10Inspection20PropertyDistanceList14getClassTypeIdEv
Inspection.so:_ZN10Inspection20PropertyDistanceList4initEv
Inspection.so:_ZN10Inspection20PropertyDistanceList5PasteERKN3App8PropertyE
Inspection.so:_ZN10Inspection20PropertyDistanceList6createEv
Inspection.so:_ZN10Inspection20PropertyDistanceList7RestoreERN4Base9XMLReaderE
Inspection.so:_ZN10Inspection20PropertyDistanceList7setSizeEi
Inspection.so:_ZN10Inspection20PropertyDistanceList8setValueEf
Inspection.so:_ZN10Inspection20PropertyDistanceList9setValuesERKSt6vectorIfSaIfEE
Inspection.so:_ZN10Inspection20PropertyDistanceListC1Ev
Inspection.so:_ZN10Inspection20PropertyDistanceListC2Ev
Inspection.so:_ZN10Inspection20PropertyDistanceListD0Ev
Inspection.so:_ZN10Inspection20PropertyDistanceListD1Ev
Inspection.so:_ZN10Inspection20PropertyDistanceListD2Ev
Inspection.so:_ZN10Inspection22InspectNominalFastMesh11getDistanceERKN4Base7Vector3IfEE
Inspection.so:_ZN10Inspection22InspectNominalFastMeshC1ERKN4Mesh10MeshObjectEf
Inspection.so:_ZN10Inspection22InspectNominalFastMeshC2ERKN4Mesh10MeshObjectEf
Inspection.so:_ZN10Inspection22InspectNominalFastMeshD0Ev
Inspection.so:_ZN10Inspection22InspectNominalFastMeshD1Ev
Inspection.so:_ZN10Inspection22InspectNominalFastMeshD2Ev
Inspection.so:_ZN10Inspection5Group14getClassTypeIdEv
Inspection.so:_ZN10Inspection5Group18getPropertyDataPtrEv
Inspection.so:_ZN10Inspection5Group4initEv
Inspection.so:_ZN10Inspection5Group6createEv
Inspection.so:_ZN10Inspection5GroupC1Ev
Inspection.so:_ZN10Inspection5GroupC2Ev
Inspection.so:_ZN10Inspection5GroupD0Ev
Inspection.so:_ZN10Inspection5GroupD1Ev
Inspection.so:_ZN10Inspection5GroupD2Ev
Inspection.so:_ZN10Inspection7Feature14getClassTypeIdEv
Inspection.so:_ZN10Inspection7Feature18getPropertyDataPtrEv
Inspection.so:_ZN10Inspection7Feature4initEv
Inspection.so:_ZN10Inspection7Feature6createEv
Inspection.so:_ZN10Inspection7Feature7executeEv
Inspection.so:_ZN10Inspection7FeatureC1Ev
Inspection.so:_ZN10Inspection7FeatureC2Ev
Inspection.so:_ZN10Inspection7FeatureD0Ev
Inspection.so:_ZN10Inspection7FeatureD1Ev
Inspection.so:_ZN10Inspection7FeatureD2Ev
Inspection.so:_ZNK10Inspection17InspectActualMesh11countPointsEv
Inspection.so:_ZNK10Inspection18InspectActualShape11countPointsEv
Inspection.so:_ZNK10Inspection19InspectActualPoints11countPointsEv
Inspection.so:_ZNK10Inspection20PropertyDistanceList10getMemSizeEv
Inspection.so:_ZNK10Inspection20PropertyDistanceList11SaveDocFileERN4Base6WriterE
Inspection.so:_ZNK10Inspection20PropertyDistanceList4CopyEv
Inspection.so:_ZNK10Inspection20PropertyDistanceList4SaveERN4Base6WriterE
Inspection.so:_ZNK10Inspection20PropertyDistanceList7getSizeEv
Inspection.so:_ZNK10Inspection20PropertyDistanceList9getTypeIdEv
Inspection.so:_ZNK10Inspection5Group15getPropertyDataEv
Inspection.so:_ZNK10Inspection5Group9getTypeIdEv
Inspection.so:_ZNK10Inspection7Feature11mustExecuteEv
Inspection.so:_ZNK10Inspection7Feature15getPropertyDataEv
Inspection.so:_ZNK10Inspection7Feature9getTypeIdEv
Inspection.so:_ZThn448_N10Inspection5GroupD0Ev
Inspection.so:_ZThn448_N10Inspection5GroupD1Ev
InspectionGui.so:PyInit_InspectionGui
InspectionGui.so:_Z24CreateInspectionCommandsv
InspectionGui.so:_Z25qInitResources_Inspectionv
InspectionGui.so:_Z28qCleanupResources_Inspectionv
InspectionGui.so:_ZN13InspectionGui10initModuleEv
InspectionGui.so:_ZN13InspectionGui11calcWeightsERK7SbVec3fS2_S2_S2_RfS3_S3_
InspectionGui.so:_ZN13InspectionGui16VisualInspection11qt_metacallEN11QMetaObject4CallEiPPv
InspectionGui.so:_ZN13InspectionGui16VisualInspection11qt_metacastEPKc
InspectionGui.so:_ZN13InspectionGui16VisualInspection12loadSettingsEv
InspectionGui.so:_ZN13InspectionGui16VisualInspection12saveSettingsEv
InspectionGui.so:_ZN13InspectionGui16VisualInspection14onActivateItemEP15QTreeWidgetItem
InspectionGui.so:_ZN13InspectionGui16VisualInspection6acceptEv
InspectionGui.so:_ZN13InspectionGui16VisualInspectionC1EP7QWidget6QFlagsIN2Qt10WindowTypeEE
InspectionGui.so:_ZN13InspectionGui16VisualInspectionC2EP7QWidget6QFlagsIN2Qt10WindowTypeEE
InspectionGui.so:_ZN13InspectionGui16VisualInspectionD0Ev
InspectionGui.so:_ZN13InspectionGui16VisualInspectionD1Ev
InspectionGui.so:_ZN13InspectionGui16VisualInspectionD2Ev
InspectionGui.so:_ZN13InspectionGui22ViewProviderInspection10updateDataEPKN3App8PropertyE
InspectionGui.so:_ZN13InspectionGui22ViewProviderInspection12setDistancesEv
InspectionGui.so:_ZN13InspectionGui22ViewProviderInspection14getClassTypeIdEv
InspectionGui.so:_ZN13InspectionGui22ViewProviderInspection14setDisplayModeEPKc
InspectionGui.so:_ZN13InspectionGui22ViewProviderInspection15inspectCallbackEPvP15SoEventCallback
InspectionGui.so:_ZN13InspectionGui22ViewProviderInspection18getPropertyDataPtrEv
InspectionGui.so:_ZN13InspectionGui22ViewProviderInspection4hideEv
InspectionGui.so:_ZN13InspectionGui22ViewProviderInspection4initEv
InspectionGui.so:_ZN13InspectionGui22ViewProviderInspection4showEv
InspectionGui.so:_ZN13InspectionGui22ViewProviderInspection6attachEPN3App14DocumentObjectE
InspectionGui.so:_ZN13InspectionGui22ViewProviderInspection6createEv
InspectionGui.so:_ZN13InspectionGui22ViewProviderInspection8OnChangeERN4Base7SubjectIiEEi
InspectionGui.so:_ZN13InspectionGui22ViewProviderInspection9onChangedEPKN3App8PropertyE
InspectionGui.so:_ZN13InspectionGui22ViewProviderInspectionC1Ev
InspectionGui.so:_ZN13InspectionGui22ViewProviderInspectionC2Ev
InspectionGui.so:_ZN13InspectionGui22ViewProviderInspectionD0Ev
InspectionGui.so:_ZN13InspectionGui22ViewProviderInspectionD1Ev
InspectionGui.so:_ZN13InspectionGui22ViewProviderInspectionD2Ev
InspectionGui.so:_ZN13InspectionGui27ViewProviderInspectionGroup14getClassTypeIdEv
InspectionGui.so:_ZN13InspectionGui27ViewProviderInspectionGroup18getPropertyDataPtrEv
InspectionGui.so:_ZN13InspectionGui27ViewProviderInspectionGroup4initEv
InspectionGui.so:_ZN13InspectionGui27ViewProviderInspectionGroup6createEv
InspectionGui.so:_ZN13InspectionGui27ViewProviderInspectionGroupC1Ev
InspectionGui.so:_ZN13InspectionGui27ViewProviderInspectionGroupC2Ev
InspectionGui.so:_ZN13InspectionGui27ViewProviderInspectionGroupD0Ev
InspectionGui.so:_ZN13InspectionGui27ViewProviderInspectionGroupD1Ev
InspectionGui.so:_ZN13InspectionGui27ViewProviderInspectionGroupD2Ev
InspectionGui.so:_ZN13InspectionGui8calcAreaERK7SbVec3fS2_S2_
InspectionGui.so:_ZN13InspectionGui9Workbench14getClassTypeIdEv
InspectionGui.so:_ZN13InspectionGui9Workbench4initEv
InspectionGui.so:_ZN13InspectionGui9Workbench6createEv
InspectionGui.so:_ZN13InspectionGui9WorkbenchC1Ev
InspectionGui.so:_ZN13InspectionGui9WorkbenchC2Ev
InspectionGui.so:_ZN13InspectionGui9WorkbenchD0Ev
InspectionGui.so:_ZN13InspectionGui9WorkbenchD1Ev
InspectionGui.so:_ZN13InspectionGui9WorkbenchD2Ev
InspectionGui.so:_ZN17CmdInspectElement8isActiveEv
InspectionGui.so:_ZN17CmdInspectElement9activatedEi
InspectionGui.so:_ZN17CmdInspectElementC1Ev
InspectionGui.so:_ZN17CmdInspectElementC2Ev
InspectionGui.so:_ZN19CmdVisualInspection8isActiveEv
InspectionGui.so:_ZN19CmdVisualInspection9activatedEi
InspectionGui.so:_ZN19CmdVisualInspectionC1Ev
InspectionGui.so:_ZN19CmdVisualInspectionC2Ev
InspectionGui.so:_ZNK13InspectionGui16VisualInspection10metaObjectEv
InspectionGui.so:_ZNK13InspectionGui22ViewProviderInspection12getFrontRootEv
InspectionGui.so:_ZNK13InspectionGui22ViewProviderInspection15getDisplayModesB5cxx11Ev
InspectionGui.so:_ZNK13InspectionGui22ViewProviderInspection15getPropertyDataEv
InspectionGui.so:_ZNK13InspectionGui22ViewProviderInspection15inspectDistanceEPK13SoPickedPoint
InspectionGui.so:_ZNK13InspectionGui22ViewProviderInspection7getIconEv
InspectionGui.so:_ZNK13InspectionGui22ViewProviderInspection9getTypeIdEv
InspectionGui.so:_ZNK13InspectionGui27ViewProviderInspectionGroup15getPropertyDataEv
InspectionGui.so:_ZNK13InspectionGui27ViewProviderInspectionGroup7getIconEv
InspectionGui.so:_ZNK13InspectionGui27ViewProviderInspectionGroup9getTypeIdEv
InspectionGui.so:_ZNK13InspectionGui9Workbench12setupMenuBarEv
InspectionGui.so:_ZNK13InspectionGui9Workbench13setupToolBarsEv
InspectionGui.so:_ZNK13InspectionGui9Workbench9getTypeIdEv
InspectionGui.so:_ZThn16_N13InspectionGui16VisualInspectionD0Ev
InspectionGui.so:_ZThn16_N13InspectionGui16VisualInspectionD1Ev
InspectionGui.so:_ZThn480_N13InspectionGui22ViewProviderInspection8OnChangeERN4Base7SubjectIiEEi
InspectionGui.so:_ZThn480_N13InspectionGui22ViewProviderInspectionD0Ev
InspectionGui.so:_ZThn480_N13InspectionGui22ViewProviderInspectionD1Ev
InspectionGui.so:_ZThn480_N13InspectionGui27ViewProviderInspectionGroupD0Ev
InspectionGui.so:_ZThn480_N13InspectionGui27ViewProviderInspectionGroupD1Ev
Measure.so:PyInit_Measure
Measure.so:_Z10debugprintRKNSt7__cxx1112basic_stringIcSt11char_traitsIcESaIcEEE
Measure.so:_ZN7Measure10initModuleEv
Measure.so:_ZN7Measure11Measurement11getPyObjectEv
Measure.so:_ZN7Measure11Measurement14addReference3DEPN3App14DocumentObjectEPKc
Measure.so:_ZN7Measure11Measurement14addReference3DEPN3App14DocumentObjectERKNSt7__cxx1112basic_stringIcSt11char_traitsIcESaIcEEE
Measure.so:_ZN7Measure11Measurement14getClassTypeIdEv
Measure.so:_ZN7Measure11Measurement15has3DReferencesEv
Measure.so:_ZN7Measure11Measurement4initEv
Measure.so:_ZN7Measure11Measurement5clearEv
Measure.so:_ZN7Measure11Measurement6createEv
Measure.so:_ZN7Measure11Measurement7getTypeEv
Measure.so:_ZN7Measure11MeasurementC1Ev
Measure.so:_ZN7Measure11MeasurementC2Ev
Measure.so:_ZN7Measure11MeasurementD0Ev
Measure.so:_ZN7Measure11MeasurementD1Ev
Measure.so:_ZN7Measure11MeasurementD2Ev
Measure.so:_ZN7Measure13MeasurementPy14addReference3DEP7_object
Measure.so:_ZN7Measure13MeasurementPy15has3DReferencesEP7_object
Measure.so:_ZN7Measure13MeasurementPy18staticCallback_comEP7_objectS2_
Measure.so:_ZN7Measure13MeasurementPy19setCustomAttributesEPKcP7_object
Measure.so:_ZN7Measure13MeasurementPy20staticCallback_angleEP7_objectS2_
Measure.so:_ZN7Measure13MeasurementPy20staticCallback_clearEP7_objectS2_
Measure.so:_ZN7Measure13MeasurementPy20staticCallback_deltaEP7_objectS2_
Measure.so:_ZN7Measure13MeasurementPy21staticCallback_lengthEP7_objectS2_
Measure.so:_ZN7Measure13MeasurementPy21staticCallback_radiusEP7_objectS2_
Measure.so:_ZN7Measure13MeasurementPy29staticCallback_addReference3DEP7_objectS2_
Measure.so:_ZN7Measure13MeasurementPy30staticCallback_has3DReferencesEP7_objectS2_
Measure.so:_ZN7Measure13MeasurementPy3comEP7_object
Measure.so:_ZN7Measure13MeasurementPy5_reprEv
Measure.so:_ZN7Measure13MeasurementPy5angleEP7_object
Measure.so:_ZN7Measure13MeasurementPy5clearEP7_object
Measure.so:_ZN7Measure13MeasurementPy5deltaEP7_object
Measure.so:_ZN7Measure13MeasurementPy6PyInitEP7_objectS2_
Measure.so:_ZN7Measure13MeasurementPy6PyMakeEP11_typeobjectP7_objectS4_
Measure.so:_ZN7Measure13MeasurementPy6lengthEP7_object
Measure.so:_ZN7Measure13MeasurementPy6radiusEP7_object
Measure.so:_ZN7Measure13MeasurementPy8_getattrEPKc
Measure.so:_ZN7Measure13MeasurementPy8_setattrEPKcP7_object
Measure.so:_ZN7Measure13MeasurementPyC1EPNS_11MeasurementEP11_typeobject
Measure.so:_ZN7Measure13MeasurementPyC2EPNS_11MeasurementEP11_typeobject
Measure.so:_ZN7Measure13MeasurementPyD0Ev
Measure.so:_ZN7Measure13MeasurementPyD1Ev
Measure.so:_ZN7Measure13MeasurementPyD2Ev
Measure.so:_ZNK7Measure11Measurement10getMemSizeEv
Measure.so:_ZNK7Measure11Measurement10massCenterEv
Measure.so:_ZNK7Measure11Measurement5angleERKN4Base7Vector3IdEE
Measure.so:_ZNK7Measure11Measurement5deltaEv
Measure.so:_ZNK7Measure11Measurement6lengthEv
Measure.so:_ZNK7Measure11Measurement6radiusEv
Measure.so:_ZNK7Measure11Measurement8getShapeEPN3App14DocumentObjectEPKc
Measure.so:_ZNK7Measure11Measurement9getTypeIdEv
Measure.so:_ZNK7Measure13MeasurementPy14representationB5cxx11Ev
Measure.so:_ZNK7Measure13MeasurementPy17getMeasurementPtrEv
Measure.so:_ZNK7Measure13MeasurementPy19getCustomAttributesEPKc
Mesh.so:PyInit_Mesh
Mesh.so:_Z16NoDivTriTriIsectPfS_S_S_S_S_
Mesh.so:_Z16coplanar_tri_triPfS_S_S_S_S_S_
Mesh.so:_Z17tri_tri_intersectPfS_S_S_S_S_
Mesh.so:_Z32tri_tri_intersect_with_isectlinePfS_S_S_S_S_PiS_S_
Mesh.so:_Z5ltrimPc
Mesh.so:_Z5ltrimRNSt7__cxx1112basic_stringIcSt11char_traitsIcESaIcEEE
Mesh.so:_Z5upperPc
Mesh.so:_Z5upperRNSt7__cxx1112basic_stringIcSt11char_traitsIcESaIcEEE
Mesh.so:_Z9numDigitsi
Mesh.so:_ZN3App14FeatureCustomTIN4Mesh7FeatureEE14getClassTypeIdEv
Mesh.so:_ZN3App14FeatureCustomTIN4Mesh7FeatureEE18getPropertyDataPtrEv
Mesh.so:_ZN3App14FeatureCustomTIN4Mesh7FeatureEE4initEv
Mesh.so:_ZN3App14FeatureCustomTIN4Mesh7FeatureEE6createEv
Mesh.so:_ZN3App14FeaturePythonTIN4Mesh7FeatureEE11getPyObjectEv
Mesh.so:_ZN3App14FeaturePythonTIN4Mesh7FeatureEE14getClassTypeIdEv
Mesh.so:_ZN3App14FeaturePythonTIN4Mesh7FeatureEE18getPropertyDataPtrEv
Mesh.so:_ZN3App14FeaturePythonTIN4Mesh7FeatureEE4initEv
Mesh.so:_ZN3App14FeaturePythonTIN4Mesh7FeatureEE6createEv
Mesh.so:_ZN3Wm414ETManifoldMesh10CreateEdgeEii
Mesh.so:_ZN3Wm414ETManifoldMesh14CreateTriangleEiii
Mesh.so:_ZN3Wm414ETManifoldMesh14InsertTriangleEiii
Mesh.so:_ZN3Wm414ETManifoldMesh14RemoveTriangleEiii
Mesh.so:_ZN3Wm414ETManifoldMesh4EdgeC1Eii
Mesh.so:_ZN3Wm414ETManifoldMesh4EdgeC2Eii
Mesh.so:_ZN3Wm414ETManifoldMesh4EdgeD0Ev
Mesh.so:_ZN3Wm414ETManifoldMesh4EdgeD1Ev
Mesh.so:_ZN3Wm414ETManifoldMesh4EdgeD2Ev
Mesh.so:_ZN3Wm414ETManifoldMesh5PrintEPKc
Mesh.so:_ZN3Wm414ETManifoldMesh8TriangleC1Eiii
Mesh.so:_ZN3Wm414ETManifoldMesh8TriangleC2Eiii
Mesh.so:_ZN3Wm414ETManifoldMesh8TriangleD0Ev
Mesh.so:_ZN3Wm414ETManifoldMesh8TriangleD1Ev
Mesh.so:_ZN3Wm414ETManifoldMesh8TriangleD2Ev
Mesh.so:_ZN3Wm414ETManifoldMeshC1EPFPNS0_4EdgeEiiEPFPNS0_8TriangleEiiiE
Mesh.so:_ZN3Wm414ETManifoldMeshC2EPFPNS0_4EdgeEiiEPFPNS0_8TriangleEiiiE
Mesh.so:_ZN3Wm414ETManifoldMeshD0Ev
Mesh.so:_ZN3Wm414ETManifoldMeshD1Ev
Mesh.so:_ZN3Wm414ETManifoldMeshD2Ev
Mesh.so:_ZN3Wm414VEManifoldMesh10CreateEdgeEii
Mesh.so:_ZN3Wm414VEManifoldMesh10InsertEdgeEii
Mesh.so:_ZN3Wm414VEManifoldMesh10RemoveEdgeEii
Mesh.so:_ZN3Wm414VEManifoldMesh12CreateVertexEi
Mesh.so:_ZN3Wm414VEManifoldMesh4EdgeC1Eii
Mesh.so:_ZN3Wm414VEManifoldMesh4EdgeC2Eii
Mesh.so:_ZN3Wm414VEManifoldMesh4EdgeD0Ev
Mesh.so:_ZN3Wm414VEManifoldMesh4EdgeD1Ev
Mesh.so:_ZN3Wm414VEManifoldMesh4EdgeD2Ev
Mesh.so:_ZN3Wm414VEManifoldMesh5PrintEPKc
Mesh.so:_ZN3Wm414VEManifoldMesh6VertexC1Ei
Mesh.so:_ZN3Wm414VEManifoldMesh6VertexC2Ei
Mesh.so:_ZN3Wm414VEManifoldMesh6VertexD0Ev
Mesh.so:_ZN3Wm414VEManifoldMesh6VertexD1Ev
Mesh.so:_ZN3Wm414VEManifoldMesh6VertexD2Ev
Mesh.so:_ZN3Wm414VEManifoldMeshC1EPFPNS0_6VertexEiEPFPNS0_4EdgeEiiE
Mesh.so:_ZN3Wm414VEManifoldMeshC2EPFPNS0_6VertexEiEPFPNS0_4EdgeEiiE
Mesh.so:_ZN3Wm414VEManifoldMeshD0Ev
Mesh.so:_ZN3Wm414VEManifoldMeshD1Ev
Mesh.so:_ZN3Wm414VEManifoldMeshD2Ev
Mesh.so:_ZN3Wm46System10EndianCopyEiPKvPv
Mesh.so:_ZN3Wm46System10EndianCopyEiiPKvPv
Mesh.so:_ZN3Wm46System10InitializeEv
Mesh.so:_ZN3Wm46System11IsBigEndianEv
Mesh.so:_ZN3Wm46System12GetDirectoryEi
Mesh.so:_ZN3Wm46System15InsertDirectoryEPKc
Mesh.so:_ZN3Wm46System15RemoveDirectoryEPKc
Mesh.so:_ZN3Wm46System20GetDirectoryQuantityEv
Mesh.so:_ZN3Wm46System20RemoveAllDirectoriesEv
Mesh.so:_ZN3Wm46System4LoadEPKcRPcRi
Mesh.so:_ZN3Wm46System4SaveEPKcS2_i
Mesh.so:_ZN3Wm46System5FopenEPKcS2_
Mesh.so:_ZN3Wm46System5Read1EP8_IO_FILEiPv
Mesh.so:_ZN3Wm46System5Read1EPKciPv
Mesh.so:_ZN3Wm46System6AppendEPKcPci
Mesh.so:_ZN3Wm46System6FcloseEP8_IO_FILE
Mesh.so:_ZN3Wm46System6GetEnvEPKc
Mesh.so:_ZN3Wm46System6MemcpyEPvmPKvm
Mesh.so:_ZN3Wm46System6StrcatEPcmPKc
Mesh.so:_ZN3Wm46System6StrcpyEPcmPKc
Mesh.so:_ZN3Wm46System6StrtokEPcPKcRS1_
Mesh.so:_ZN3Wm46System6Write1EP8_IO_FILEiPKv
Mesh.so:_ZN3Wm46System6Write1EPciPKv
Mesh.so:_ZN3Wm46System7FprintfEP8_IO_FILEPKcz
Mesh.so:_ZN3Wm46System7GetPathEPKcS2_
Mesh.so:_ZN3Wm46System7GetPathEPKci
Mesh.so:_ZN3Wm46System7GetTimeEv
Mesh.so:_ZN3Wm46System7MakeRGBEhhh
Mesh.so:_ZN3Wm46System7Read2beEP8_IO_FILEiPv
Mesh.so:_ZN3Wm46System7Read2beEPKciPv
Mesh.so:_ZN3Wm46System7Read2leEP8_IO_FILEiPv
Mesh.so:_ZN3Wm46System7Read2leEPKciPv
Mesh.so:_ZN3Wm46System7Read4beEP8_IO_FILEiPv
Mesh.so:_ZN3Wm46System7Read4beEPKciPv
Mesh.so:_ZN3Wm46System7Read4leEP8_IO_FILEiPv
Mesh.so:_ZN3Wm46System7Read4leEPKciPv
Mesh.so:_ZN3Wm46System7Read8beEP8_IO_FILEiPv
Mesh.so:_ZN3Wm46System7Read8beEPKciPv
Mesh.so:_ZN3Wm46System7Read8leEP8_IO_FILEiPv
Mesh.so:_ZN3Wm46System7Read8leEPKciPv
Mesh.so:_ZN3Wm46System7SprintfEPcmPKcz
Mesh.so:_ZN3Wm46System7StrncpyEPcmPKcm
Mesh.so:_ZN3Wm46System8MakeRGBAEhhhh
Mesh.so:_ZN3Wm46System8Write2beEP8_IO_FILEiPKv
Mesh.so:_ZN3Wm46System8Write2beEPciPKv
Mesh.so:_ZN3Wm46System8Write2leEP8_IO_FILEiPKv
Mesh.so:_ZN3Wm46System8Write2leEPciPKv
Mesh.so:_ZN3Wm46System8Write4beEP8_IO_FILEiPKv
Mesh.so:_ZN3Wm46System8Write4beEPciPKv
Mesh.so:_ZN3Wm46System8Write4leEP8_IO_FILEiPKv
Mesh.so:_ZN3Wm46System8Write4leEPciPKv
Mesh.so:_ZN3Wm46System8Write8beEP8_IO_FILEiPKv
Mesh.so:_ZN3Wm46System8Write8beEPciPKv
Mesh.so:_ZN3Wm46System8Write8leEP8_IO_FILEiPKv
Mesh.so:_ZN3Wm46System8Write8leEPciPKv
Mesh.so:_ZN3Wm46System9SwapBytesEiPv
Mesh.so:_ZN3Wm46System9SwapBytesEiiPv
Mesh.so:_ZN3Wm46System9TerminateEv
Mesh.so:_ZN4Mesh10FixDefects14getClassTypeIdEv
Mesh.so:_ZN4Mesh10FixDefects18getPropertyDataPtrEv
Mesh.so:_ZN4Mesh10FixDefects4initEv
Mesh.so:_ZN4Mesh10FixDefects6createEv
Mesh.so:_ZN4Mesh10FixDefects7executeEv
Mesh.so:_ZN4Mesh10FixDefectsC1Ev
Mesh.so:_ZN4Mesh10FixDefectsC2Ev
Mesh.so:_ZN4Mesh10FixDefectsD0Ev
Mesh.so:_ZN4Mesh10FixDefectsD1Ev
Mesh.so:_ZN4Mesh10FixDefectsD2Ev
Mesh.so:_ZN4Mesh10FixIndices14getClassTypeIdEv
Mesh.so:_ZN4Mesh10FixIndices18getPropertyDataPtrEv
Mesh.so:_ZN4Mesh10FixIndices4initEv
Mesh.so:_ZN4Mesh10FixIndices6createEv
Mesh.so:_ZN4Mesh10FixIndices7executeEv
Mesh.so:_ZN4Mesh10FixIndicesC1Ev
Mesh.so:_ZN4Mesh10FixIndicesC2Ev
Mesh.so:_ZN4Mesh10FixIndicesD0Ev
Mesh.so:_ZN4Mesh10FixIndicesD1Ev
Mesh.so:_ZN4Mesh10FixIndicesD2Ev
Mesh.so:_ZN4Mesh10MeshObject10addSegmentERKNS_7SegmentE
Mesh.so:_ZN4Mesh10MeshObject10addSegmentERKSt6vectorImSaImEE
Mesh.so:_ZN4Mesh10MeshObject10createConeEfffifi
Mesh.so:_ZN4Mesh10MeshObject10createCubeEfff
Mesh.so:_ZN4Mesh10MeshObject10createCubeEffff
Mesh.so:_ZN4Mesh10MeshObject10getSegmentEm
Mesh.so:_ZN4Mesh10MeshObject10snapVertexEmRKN4Base7Vector3IfEE
Mesh.so:_ZN4Mesh10MeshObject10splitEdgesEv
Mesh.so:_ZN4Mesh10MeshObject10splitFacetEmRKN4Base7Vector3IfEES5_
Mesh.so:_ZN4Mesh10MeshObject10swapKernelERN8MeshCore10MeshKernelERKSt6vectorINSt7__cxx1112basic_stringIcSt11char_traitsIcESaIcEEESaISA_EE
Mesh.so:_ZN4Mesh10MeshObject10updateMeshERKSt6vectorImSaImEE
Mesh.so:_ZN4Mesh10MeshObject10updateMeshEv
Mesh.so:_ZN4Mesh10MeshObject11createTorusEffi
Mesh.so:_ZN4Mesh10MeshObject11fillupHolesEmiRN8MeshCore27AbstractPolygonTriangulatorE
Mesh.so:_ZN4Mesh10MeshObject11flipNormalsEv
Mesh.so:_ZN4Mesh10MeshObject12collapseEdgeEmm
Mesh.so:_ZN4Mesh10MeshObject12createSphereEfi
Mesh.so:_ZN4Mesh10MeshObject12deleteFacetsERKSt6vectorImSaImEE
Mesh.so:_ZN4Mesh10MeshObject12deletePointsERKSt6vectorImSaImEE
Mesh.so:_ZN4Mesh10MeshObject12insertVertexEmRKN4Base7Vector3IfEE
Mesh.so:_ZN4Mesh10MeshObject12setTransformERKN4Base8Matrix4DE
Mesh.so:_ZN4Mesh10MeshObject13collapseFacetEm
Mesh.so:_ZN4Mesh10MeshObject13deletedFacetsERKSt6vectorImSaImEE
Mesh.so:_ZN4Mesh10MeshObject13offsetSpecialEfff
Mesh.so:_ZN4Mesh10MeshObject13optimizeEdgesEv
Mesh.so:_ZN4Mesh10MeshObject14RestoreDocFileERN4Base6ReaderE
Mesh.so:_ZN4Mesh10MeshObject14collapseFacetsERKSt6vectorImSaImEE
Mesh.so:_ZN4Mesh10MeshObject14createCylinderEffifi
Mesh.so:_ZN4Mesh10MeshObject14getClassTypeIdEv
Mesh.so:_ZN4Mesh10MeshObject14offsetSpecial2Ef
Mesh.so:_ZN4Mesh10MeshObject15createEllipsoidEffi
Mesh.so:_ZN4Mesh10MeshObject15validateIndicesEv
Mesh.so:_ZN4Mesh10MeshObject16harmonizeNormalsEv
Mesh.so:_ZN4Mesh10MeshObject16optimizeTopologyEf
Mesh.so:_ZN4Mesh10MeshObject16removeComponentsEm
Mesh.so:_ZN4Mesh10MeshObject17transformGeometryERKN4Base8Matrix4DE
Mesh.so:_ZN4Mesh10MeshObject18createMeshFromListERN2Py4ListE
Mesh.so:_ZN4Mesh10MeshObject18removeNonManifoldsEv
Mesh.so:_ZN4Mesh10MeshObject19removeInvalidPointsEv
Mesh.so:_ZN4Mesh10MeshObject20const_facet_iterator11dereferenceEv
Mesh.so:_ZN4Mesh10MeshObject20const_facet_iteratorC1EPKS0_m
Mesh.so:_ZN4Mesh10MeshObject20const_facet_iteratorC1ERKS1_
Mesh.so:_ZN4Mesh10MeshObject20const_facet_iteratorC2EPKS0_m
Mesh.so:_ZN4Mesh10MeshObject20const_facet_iteratorC2ERKS1_
Mesh.so:_ZN4Mesh10MeshObject20const_facet_iteratorD1Ev
Mesh.so:_ZN4Mesh10MeshObject20const_facet_iteratorD2Ev
Mesh.so:_ZN4Mesh10MeshObject20const_facet_iteratoraSERKS1_
Mesh.so:_ZN4Mesh10MeshObject20const_facet_iteratordeEv
Mesh.so:_ZN4Mesh10MeshObject20const_facet_iteratormmEv
Mesh.so:_ZN4Mesh10MeshObject20const_facet_iteratorppEv
Mesh.so:_ZN4Mesh10MeshObject20const_facet_iteratorptEv
Mesh.so:_ZN4Mesh10MeshObject20const_point_iterator11dereferenceEv
Mesh.so:_ZN4Mesh10MeshObject20const_point_iteratorC1EPKS0_m
Mesh.so:_ZN4Mesh10MeshObject20const_point_iteratorC1ERKS1_
Mesh.so:_ZN4Mesh10MeshObject20const_point_iteratorC2EPKS0_m
Mesh.so:_ZN4Mesh10MeshObject20const_point_iteratorC2ERKS1_
Mesh.so:_ZN4Mesh10MeshObject20const_point_iteratorD1Ev
Mesh.so:_ZN4Mesh10MeshObject20const_point_iteratorD2Ev
Mesh.so:_ZN4Mesh10MeshObject20const_point_iteratoraSERKS1_
Mesh.so:_ZN4Mesh10MeshObject20const_point_iteratordeEv
Mesh.so:_ZN4Mesh10MeshObject20const_point_iteratormmEv
Mesh.so:_ZN4Mesh10MeshObject20const_point_iteratorppEv
Mesh.so:_ZN4Mesh10MeshObject20const_point_iteratorptEv
Mesh.so:_ZN4Mesh10MeshObject20deleteSelectedFacetsEv
Mesh.so:_ZN4Mesh10MeshObject20deleteSelectedPointsEv
Mesh.so:_ZN4Mesh10MeshObject20removeFoldsOnSurfaceEv
Mesh.so:_ZN4Mesh10MeshObject20validateDeformationsEff
Mesh.so:_ZN4Mesh10MeshObject21validateDegenerationsEf
Mesh.so:_ZN4Mesh10MeshObject22removeDuplicatedFacetsEv
Mesh.so:_ZN4Mesh10MeshObject22removeDuplicatedPointsEv
Mesh.so:_ZN4Mesh10MeshObject22transformToEigenSystemEv
Mesh.so:_ZN4Mesh10MeshObject23removeNonManifoldPointsEv
Mesh.so:_ZN4Mesh10MeshObject23removeSelfIntersectionsERKSt6vectorImSaImEE
Mesh.so:_ZN4Mesh10MeshObject23removeSelfIntersectionsEv
Mesh.so:_ZN4Mesh10MeshObject24removeFullBoundaryFacetsEv
Mesh.so:_ZN4Mesh10MeshObject3cutERKN4Base9Polygon2dERKNS1_14ViewProjMethodENS0_7CutTypeE
Mesh.so:_ZN4Mesh10MeshObject4initEv
Mesh.so:_ZN4Mesh10MeshObject4loadEPKcPN8MeshCore8MaterialE
Mesh.so:_ZN4Mesh10MeshObject4loadERSi
Mesh.so:_ZN4Mesh10MeshObject4loadERSiN8MeshCore6MeshIO6FormatEPNS2_8MaterialE
Mesh.so:_ZN4Mesh10MeshObject4swapERN8MeshCore10MeshKernelE
Mesh.so:_ZN4Mesh10MeshObject4swapERS0_
Mesh.so:_ZN4Mesh10MeshObject4trimERKN4Base9Polygon2dERKNS1_14ViewProjMethodENS0_7CutTypeE
Mesh.so:_ZN4Mesh10MeshObject5clearEv
Mesh.so:_ZN4Mesh10MeshObject6createEv
Mesh.so:_ZN4Mesh10MeshObject6offsetEf
Mesh.so:_ZN4Mesh10MeshObject6refineEv
Mesh.so:_ZN4Mesh10MeshObject6smoothEif
Mesh.so:_ZN4Mesh10MeshObject7RestoreERN4Base9XMLReaderE
Mesh.so:_ZN4Mesh10MeshObject7addMeshERKN8MeshCore10MeshKernelE
Mesh.so:_ZN4Mesh10MeshObject7addMeshERKS0_
Mesh.so:_ZN4Mesh10MeshObject8addFacetERKN8MeshCore13MeshGeomFacetE
Mesh.so:_ZN4Mesh10MeshObject8decimateEff
Mesh.so:_ZN4Mesh10MeshObject8setPointEmRKN4Base7Vector3IdEE
Mesh.so:_ZN4Mesh10MeshObject8swapEdgeEmm
Mesh.so:_ZN4Mesh10MeshObject9addFacetsERKSt6vectorIN4Data14ComplexGeoData5FacetESaIS4_EERKS1_IN4Base7Vector3IdEESaISB_EEb
Mesh.so:_ZN4Mesh10MeshObject9addFacetsERKSt6vectorIN8MeshCore13MeshGeomFacetESaIS3_EE
Mesh.so:_ZN4Mesh10MeshObject9addFacetsERKSt6vectorIN8MeshCore9MeshFacetESaIS3_EERKS1_IN4Base7Vector3IfEESaISA_EEb
Mesh.so:_ZN4Mesh10MeshObject9addFacetsERKSt6vectorIN8MeshCore9MeshFacetESaIS3_EEb
Mesh.so:_ZN4Mesh10MeshObject9movePointEmRKN4Base7Vector3IdEE
Mesh.so:_ZN4Mesh10MeshObject9setFacetsERKSt6vectorIN4Data14ComplexGeoData5FacetESaIS4_EERKS1_IN4Base7Vector3IdEESaISB_EE
Mesh.so:_ZN4Mesh10MeshObject9setFacetsERKSt6vectorIN8MeshCore13MeshGeomFacetESaIS3_EE
Mesh.so:_ZN4Mesh10MeshObject9setKernelERKN8MeshCore10MeshKernelE
Mesh.so:_ZN4Mesh10MeshObject9splitEdgeEmmRKN4Base7Vector3IfEE
Mesh.so:_ZN4Mesh10MeshObjectC1ERKN8MeshCore10MeshKernelE
Mesh.so:_ZN4Mesh10MeshObjectC1ERKN8MeshCore10MeshKernelERKN4Base8Matrix4DE
Mesh.so:_ZN4Mesh10MeshObjectC1ERKS0_
Mesh.so:_ZN4Mesh10MeshObjectC1Ev
Mesh.so:_ZN4Mesh10MeshObjectC2ERKN8MeshCore10MeshKernelE
Mesh.so:_ZN4Mesh10MeshObjectC2ERKN8MeshCore10MeshKernelERKN4Base8Matrix4DE
Mesh.so:_ZN4Mesh10MeshObjectC2ERKS0_
Mesh.so:_ZN4Mesh10MeshObjectC2Ev
Mesh.so:_ZN4Mesh10MeshObjectD0Ev
Mesh.so:_ZN4Mesh10MeshObjectD1Ev
Mesh.so:_ZN4Mesh10MeshObjectD2Ev
Mesh.so:_ZN4Mesh10MeshObjectaSERKS0_
Mesh.so:_ZN4Mesh10initModuleEv
Mesh.so:_ZN4Mesh11AmfExporter11addMeshFeatEPN3App14DocumentObjectE
Mesh.so:_ZN4Mesh11AmfExporter11addPartFeatEPN3App14DocumentObjectEf
Mesh.so:_ZN4Mesh11AmfExporter7addMeshERKN8MeshCore10MeshKernelERKSt3mapINSt7__cxx1112basic_stringIcSt11char_traitsIcESaIcEEESB_St4lessISB_ESaISt4pairIKSB_SB_EEE
Mesh.so:_ZN4Mesh11AmfExporterC1ENSt7__cxx1112basic_stringIcSt11char_traitsIcESaIcEEERKSt3mapIS6_S6_St4lessIS6_ESaISt4pairIKS6_S6_EEEb
Mesh.so:_ZN4Mesh11AmfExporterC2ENSt7__cxx1112basic_stringIcSt11char_traitsIcESaIcEEERKSt3mapIS6_S6_St4lessIS6_ESaISt4pairIKS6_S6_EEEb
Mesh.so:_ZN4Mesh11AmfExporterD0Ev
Mesh.so:_ZN4Mesh11AmfExporterD1Ev
Mesh.so:_ZN4Mesh11AmfExporterD2Ev
Mesh.so:_ZN4Mesh11FlipNormals14getClassTypeIdEv
Mesh.so:_ZN4Mesh11FlipNormals18getPropertyDataPtrEv
Mesh.so:_ZN4Mesh11FlipNormals4initEv
Mesh.so:_ZN4Mesh11FlipNormals6createEv
Mesh.so:_ZN4Mesh11FlipNormals7executeEv
Mesh.so:_ZN4Mesh11FlipNormalsC1Ev
Mesh.so:_ZN4Mesh11FlipNormalsC2Ev
Mesh.so:_ZN4Mesh11FlipNormalsD0Ev
Mesh.so:_ZN4Mesh11FlipNormalsD1Ev
Mesh.so:_ZN4Mesh11FlipNormalsD2Ev
Mesh.so:_ZN4Mesh11MeshPointPy19setCustomAttributesEPKcP7_object
Mesh.so:_ZN4Mesh11MeshPointPy19staticCallback_getxEP7_objectPv
Mesh.so:_ZN4Mesh11MeshPointPy19staticCallback_getyEP7_objectPv
Mesh.so:_ZN4Mesh11MeshPointPy19staticCallback_getzEP7_objectPv
Mesh.so:_ZN4Mesh11MeshPointPy19staticCallback_moveEP7_objectS2_
Mesh.so:_ZN4Mesh11MeshPointPy19staticCallback_setxEP7_objectS2_Pv
Mesh.so:_ZN4Mesh11MeshPointPy19staticCallback_setyEP7_objectS2_Pv
Mesh.so:_ZN4Mesh11MeshPointPy19staticCallback_setzEP7_objectS2_Pv
Mesh.so:_ZN4Mesh11MeshPointPy22staticCallback_unboundEP7_objectS2_
Mesh.so:_ZN4Mesh11MeshPointPy23staticCallback_getBoundEP7_objectPv
Mesh.so:_ZN4Mesh11MeshPointPy23staticCallback_getIndexEP7_objectPv
Mesh.so:_ZN4Mesh11MeshPointPy23staticCallback_setBoundEP7_objectS2_Pv
Mesh.so:_ZN4Mesh11MeshPointPy23staticCallback_setIndexEP7_objectS2_Pv
Mesh.so:_ZN4Mesh11MeshPointPy24staticCallback_getNormalEP7_objectPv
Mesh.so:_ZN4Mesh11MeshPointPy24staticCallback_getVectorEP7_objectPv
Mesh.so:_ZN4Mesh11MeshPointPy24staticCallback_setNormalEP7_objectS2_Pv
Mesh.so:_ZN4Mesh11MeshPointPy24staticCallback_setVectorEP7_objectS2_Pv
Mesh.so:_ZN4Mesh11MeshPointPy4moveEP7_object
Mesh.so:_ZN4Mesh11MeshPointPy4setxEN2Py5FloatE
Mesh.so:_ZN4Mesh11MeshPointPy4setyEN2Py5FloatE
Mesh.so:_ZN4Mesh11MeshPointPy4setzEN2Py5FloatE
Mesh.so:_ZN4Mesh11MeshPointPy5_reprEv
Mesh.so:_ZN4Mesh11MeshPointPy6PyInitEP7_objectS2_
Mesh.so:_ZN4Mesh11MeshPointPy6PyMakeEP11_typeobjectP7_objectS4_
Mesh.so:_ZN4Mesh11MeshPointPy7unboundEP7_object
Mesh.so:_ZN4Mesh11MeshPointPy8_getattrEPKc
Mesh.so:_ZN4Mesh11MeshPointPy8_setattrEPKcP7_object
Mesh.so:_ZN4Mesh11MeshPointPyC1EPNS_9MeshPointEP11_typeobject
Mesh.so:_ZN4Mesh11MeshPointPyC2EPNS_9MeshPointEP11_typeobject
Mesh.so:_ZN4Mesh11MeshPointPyD0Ev
Mesh.so:_ZN4Mesh11MeshPointPyD1Ev
Mesh.so:_ZN4Mesh11MeshPointPyD2Ev
Mesh.so:_ZN4Mesh13MergeExporter11addMeshFeatEPN3App14DocumentObjectE
Mesh.so:_ZN4Mesh13MergeExporter11addPartFeatEPN3App14DocumentObjectEf
Mesh.so:_ZN4Mesh13MergeExporterC1ENSt7__cxx1112basic_stringIcSt11char_traitsIcESaIcEEEN8MeshCore6MeshIO6FormatE
Mesh.so:_ZN4Mesh13MergeExporterC2ENSt7__cxx1112basic_stringIcSt11char_traitsIcESaIcEEEN8MeshCore6MeshIO6FormatE
Mesh.so:_ZN4Mesh13MergeExporterD0Ev
Mesh.so:_ZN4Mesh13MergeExporterD1Ev
Mesh.so:_ZN4Mesh13MergeExporterD2Ev
Mesh.so:_ZN4Mesh13MeshFeaturePy10fixIndicesEP7_object
Mesh.so:_ZN4Mesh13MeshFeaturePy11countFacetsEP7_object
Mesh.so:_ZN4Mesh13MeshFeaturePy11countPointsEP7_object
Mesh.so:_ZN4Mesh13MeshFeaturePy16fixDegenerationsEP7_object
Mesh.so:_ZN4Mesh13MeshFeaturePy16harmonizeNormalsEP7_object
Mesh.so:_ZN4Mesh13MeshFeaturePy18removeNonManifoldsEP7_object
Mesh.so:_ZN4Mesh13MeshFeaturePy19removeInvalidPointsEP7_object
Mesh.so:_ZN4Mesh13MeshFeaturePy19setCustomAttributesEPKcP7_object
Mesh.so:_ZN4Mesh13MeshFeaturePy20fixSelfIntersectionsEP7_object
Mesh.so:_ZN4Mesh13MeshFeaturePy20removeFoldsOnSurfaceEP7_object
Mesh.so:_ZN4Mesh13MeshFeaturePy21staticCallback_smoothEP7_objectS2_
Mesh.so:_ZN4Mesh13MeshFeaturePy22removeDuplicatedFacetsEP7_object
Mesh.so:_ZN4Mesh13MeshFeaturePy22removeDuplicatedPointsEP7_object
Mesh.so:_ZN4Mesh13MeshFeaturePy23removeNonManifoldPointsEP7_object
Mesh.so:_ZN4Mesh13MeshFeaturePy25staticCallback_fixIndicesEP7_objectS2_
Mesh.so:_ZN4Mesh13MeshFeaturePy26staticCallback_countFacetsEP7_objectS2_
Mesh.so:_ZN4Mesh13MeshFeaturePy26staticCallback_countPointsEP7_objectS2_
Mesh.so:_ZN4Mesh13MeshFeaturePy31staticCallback_fixDegenerationsEP7_objectS2_
Mesh.so:_ZN4Mesh13MeshFeaturePy31staticCallback_harmonizeNormalsEP7_objectS2_
Mesh.so:_ZN4Mesh13MeshFeaturePy33staticCallback_removeNonManifoldsEP7_objectS2_
Mesh.so:_ZN4Mesh13MeshFeaturePy34staticCallback_removeInvalidPointsEP7_objectS2_
Mesh.so:_ZN4Mesh13MeshFeaturePy35staticCallback_fixSelfIntersectionsEP7_objectS2_
Mesh.so:_ZN4Mesh13MeshFeaturePy35staticCallback_removeFoldsOnSurfaceEP7_objectS2_
Mesh.so:_ZN4Mesh13MeshFeaturePy37staticCallback_removeDuplicatedFacetsEP7_objectS2_
Mesh.so:_ZN4Mesh13MeshFeaturePy37staticCallback_removeDuplicatedPointsEP7_objectS2_
Mesh.so:_ZN4Mesh13MeshFeaturePy38staticCallback_removeNonManifoldPointsEP7_objectS2_
Mesh.so:_ZN4Mesh13MeshFeaturePy5_reprEv
Mesh.so:_ZN4Mesh13MeshFeaturePy6PyInitEP7_objectS2_
Mesh.so:_ZN4Mesh13MeshFeaturePy6PyMakeEP11_typeobjectP7_objectS4_
Mesh.so:_ZN4Mesh13MeshFeaturePy6smoothEP7_object
Mesh.so:_ZN4Mesh13MeshFeaturePy8_getattrEPKc
Mesh.so:_ZN4Mesh13MeshFeaturePy8_setattrEPKcP7_object
Mesh.so:_ZN4Mesh13MeshFeaturePyC1EPNS_7FeatureEP11_typeobject
Mesh.so:_ZN4Mesh13MeshFeaturePyC2EPNS_7FeatureEP11_typeobject
Mesh.so:_ZN4Mesh13MeshFeaturePyD0Ev
Mesh.so:_ZN4Mesh13MeshFeaturePyD1Ev
Mesh.so:_ZN4Mesh13MeshFeaturePyD2Ev
Mesh.so:_ZN4Mesh13SegmentByMesh14getClassTypeIdEv
Mesh.so:_ZN4Mesh13SegmentByMesh18getPropertyDataPtrEv
Mesh.so:_ZN4Mesh13SegmentByMesh4initEv
Mesh.so:_ZN4Mesh13SegmentByMesh6createEv
Mesh.so:_ZN4Mesh13SegmentByMesh7executeEv
Mesh.so:_ZN4Mesh13SegmentByMeshC1Ev
Mesh.so:_ZN4Mesh13SegmentByMeshC2Ev
Mesh.so:_ZN4Mesh13SetOperations14getClassTypeIdEv
Mesh.so:_ZN4Mesh13SetOperations18getPropertyDataPtrEv
Mesh.so:_ZN4Mesh13SetOperations4initEv
Mesh.so:_ZN4Mesh13SetOperations6createEv
Mesh.so:_ZN4Mesh13SetOperations7executeEv
Mesh.so:_ZN4Mesh13SetOperationsC1Ev
Mesh.so:_ZN4Mesh13SetOperationsC2Ev
Mesh.so:_ZN4Mesh15FixDeformations14getClassTypeIdEv
Mesh.so:_ZN4Mesh15FixDeformations18getPropertyDataPtrEv
Mesh.so:_ZN4Mesh15FixDeformations4initEv
Mesh.so:_ZN4Mesh15FixDeformations6createEv
Mesh.so:_ZN4Mesh15FixDeformations7executeEv
Mesh.so:_ZN4Mesh15FixDeformationsC1Ev
Mesh.so:_ZN4Mesh15FixDeformationsC2Ev
Mesh.so:_ZN4Mesh15FixDeformationsD0Ev
Mesh.so:_ZN4Mesh15FixDeformationsD1Ev
Mesh.so:_ZN4Mesh15FixDeformationsD2Ev
Mesh.so:_ZN4Mesh15FixNonManifolds14getClassTypeIdEv
Mesh.so:_ZN4Mesh15FixNonManifolds18getPropertyDataPtrEv
Mesh.so:_ZN4Mesh15FixNonManifolds4initEv
Mesh.so:_ZN4Mesh15FixNonManifolds6createEv
Mesh.so:_ZN4Mesh15FixNonManifolds7executeEv
Mesh.so:_ZN4Mesh15FixNonManifoldsC1Ev
Mesh.so:_ZN4Mesh15FixNonManifoldsC2Ev
Mesh.so:_ZN4Mesh15FixNonManifoldsD0Ev
Mesh.so:_ZN4Mesh15FixNonManifoldsD1Ev
Mesh.so:_ZN4Mesh15FixNonManifoldsD2Ev
Mesh.so:_ZN4Mesh16FixDegenerations14getClassTypeIdEv
Mesh.so:_ZN4Mesh16FixDegenerations18getPropertyDataPtrEv
Mesh.so:_ZN4Mesh16FixDegenerations4initEv
Mesh.so:_ZN4Mesh16FixDegenerations6createEv
Mesh.so:_ZN4Mesh16FixDegenerations7executeEv
Mesh.so:_ZN4Mesh16FixDegenerationsC1Ev
Mesh.so:_ZN4Mesh16FixDegenerationsC2Ev
Mesh.so:_ZN4Mesh16FixDegenerationsD0Ev
Mesh.so:_ZN4Mesh16FixDegenerationsD1Ev
Mesh.so:_ZN4Mesh16FixDegenerationsD2Ev
Mesh.so:_ZN4Mesh16HarmonizeNormals14getClassTypeIdEv
Mesh.so:_ZN4Mesh16HarmonizeNormals18getPropertyDataPtrEv
Mesh.so:_ZN4Mesh16HarmonizeNormals4initEv
Mesh.so:_ZN4Mesh16HarmonizeNormals6createEv
Mesh.so:_ZN4Mesh16HarmonizeNormals7executeEv
Mesh.so:_ZN4Mesh16HarmonizeNormalsC1Ev
Mesh.so:_ZN4Mesh16HarmonizeNormalsC2Ev
Mesh.so:_ZN4Mesh16HarmonizeNormalsD0Ev
Mesh.so:_ZN4Mesh16HarmonizeNormalsD1Ev
Mesh.so:_ZN4Mesh16HarmonizeNormalsD2Ev
Mesh.so:_ZN4Mesh16RemoveComponents14getClassTypeIdEv
Mesh.so:_ZN4Mesh16RemoveComponents18getPropertyDataPtrEv
Mesh.so:_ZN4Mesh16RemoveComponents4initEv
Mesh.so:_ZN4Mesh16RemoveComponents6createEv
Mesh.so:_ZN4Mesh16RemoveComponents7executeEv
Mesh.so:_ZN4Mesh16RemoveComponentsC1Ev
Mesh.so:_ZN4Mesh16RemoveComponentsC2Ev
Mesh.so:_ZN4Mesh16RemoveComponentsD0Ev
Mesh.so:_ZN4Mesh16RemoveComponentsD1Ev
Mesh.so:_ZN4Mesh16RemoveComponentsD2Ev
Mesh.so:_ZN4Mesh18FixDuplicatedFaces14getClassTypeIdEv
Mesh.so:_ZN4Mesh18FixDuplicatedFaces18getPropertyDataPtrEv
Mesh.so:_ZN4Mesh18FixDuplicatedFaces4initEv
Mesh.so:_ZN4Mesh18FixDuplicatedFaces6createEv
Mesh.so:_ZN4Mesh18FixDuplicatedFaces7executeEv
Mesh.so:_ZN4Mesh18FixDuplicatedFacesC1Ev
Mesh.so:_ZN4Mesh18FixDuplicatedFacesC2Ev
Mesh.so:_ZN4Mesh18FixDuplicatedFacesD0Ev
Mesh.so:_ZN4Mesh18FixDuplicatedFacesD1Ev
Mesh.so:_ZN4Mesh18FixDuplicatedFacesD2Ev
Mesh.so:_ZN4Mesh18PropertyMeshKernel11getPyObjectEv
Mesh.so:_ZN4Mesh18PropertyMeshKernel11setPyObjectEP7_object
Mesh.so:_ZN4Mesh18PropertyMeshKernel11setValuePtrEPNS_10MeshObjectE
Mesh.so:_ZN4Mesh18PropertyMeshKernel12startEditingEv
Mesh.so:_ZN4Mesh18PropertyMeshKernel13finishEditingEv
Mesh.so:_ZN4Mesh18PropertyMeshKernel14RestoreDocFileERN4Base6ReaderE
Mesh.so:_ZN4Mesh18PropertyMeshKernel14getClassTypeIdEv
Mesh.so:_ZN4Mesh18PropertyMeshKernel15setPointIndicesERKSt6vectorISt4pairImN4Base7Vector3IfEEESaIS6_EE
Mesh.so:_ZN4Mesh18PropertyMeshKernel17transformGeometryERKN4Base8Matrix4DE
Mesh.so:_ZN4Mesh18PropertyMeshKernel4initEv
Mesh.so:_ZN4Mesh18PropertyMeshKernel5PasteERKN3App8PropertyE
Mesh.so:_ZN4Mesh18PropertyMeshKernel6createEv
Mesh.so:_ZN4Mesh18PropertyMeshKernel7RestoreERN4Base9XMLReaderE
Mesh.so:_ZN4Mesh18PropertyMeshKernel8setValueERKN8MeshCore10MeshKernelE
Mesh.so:_ZN4Mesh18PropertyMeshKernel8setValueERKNS_10MeshObjectE
Mesh.so:_ZN4Mesh18PropertyMeshKernel8swapMeshERN8MeshCore10MeshKernelE
Mesh.so:_ZN4Mesh18PropertyMeshKernel8swapMeshERNS_10MeshObjectE
Mesh.so:_ZN4Mesh18PropertyMeshKernelC1Ev
Mesh.so:_ZN4Mesh18PropertyMeshKernelC2Ev
Mesh.so:_ZN4Mesh18PropertyMeshKernelD0Ev
Mesh.so:_ZN4Mesh18PropertyMeshKernelD1Ev
Mesh.so:_ZN4Mesh18PropertyMeshKernelD2Ev
Mesh.so:_ZN4Mesh18PropertyNormalList11getPyObjectEv
Mesh.so:_ZN4Mesh18PropertyNormalList11setPyObjectEP7_object
Mesh.so:_ZN4Mesh18PropertyNormalList14RestoreDocFileERN4Base6ReaderE
Mesh.so:_ZN4Mesh18PropertyNormalList14getClassTypeIdEv
Mesh.so:_ZN4Mesh18PropertyNormalList17transformGeometryERKN4Base8Matrix4DE
Mesh.so:_ZN4Mesh18PropertyNormalList4initEv
Mesh.so:_ZN4Mesh18PropertyNormalList5PasteERKN3App8PropertyE
Mesh.so:_ZN4Mesh18PropertyNormalList6createEv
Mesh.so:_ZN4Mesh18PropertyNormalList7RestoreERN4Base9XMLReaderE
Mesh.so:_ZN4Mesh18PropertyNormalList7setSizeEi
Mesh.so:_ZN4Mesh18PropertyNormalList8setValueERKN4Base7Vector3IfEE
Mesh.so:_ZN4Mesh18PropertyNormalList8setValueEfff
Mesh.so:_ZN4Mesh18PropertyNormalList9setValuesERKSt6vectorIN4Base7Vector3IfEESaIS4_EE
Mesh.so:_ZN4Mesh18PropertyNormalListC1Ev
Mesh.so:_ZN4Mesh18PropertyNormalListC2Ev
Mesh.so:_ZN4Mesh18PropertyNormalListD0Ev
Mesh.so:_ZN4Mesh18PropertyNormalListD1Ev
Mesh.so:_ZN4Mesh18PropertyNormalListD2Ev
Mesh.so:_ZN4Mesh18TransformDemolding14getClassTypeIdEv
Mesh.so:_ZN4Mesh18TransformDemolding18getPropertyDataPtrEv
Mesh.so:_ZN4Mesh18TransformDemolding4initEv
Mesh.so:_ZN4Mesh18TransformDemolding6createEv
Mesh.so:_ZN4Mesh18TransformDemolding7executeEv
Mesh.so:_ZN4Mesh18TransformDemoldingC1Ev
Mesh.so:_ZN4Mesh18TransformDemoldingC2Ev
Mesh.so:_ZN4Mesh19FixDuplicatedPoints14getClassTypeIdEv
Mesh.so:_ZN4Mesh19FixDuplicatedPoints18getPropertyDataPtrEv
Mesh.so:_ZN4Mesh19FixDuplicatedPoints4initEv
Mesh.so:_ZN4Mesh19FixDuplicatedPoints6createEv
Mesh.so:_ZN4Mesh19FixDuplicatedPoints7executeEv
Mesh.so:_ZN4Mesh19FixDuplicatedPointsC1Ev
Mesh.so:_ZN4Mesh19FixDuplicatedPointsC2Ev
Mesh.so:_ZN4Mesh19FixDuplicatedPointsD0Ev
Mesh.so:_ZN4Mesh19FixDuplicatedPointsD1Ev
Mesh.so:_ZN4Mesh19FixDuplicatedPointsD2Ev
Mesh.so:_ZN4Mesh21PropertyCurvatureList11getPyObjectEv
Mesh.so:_ZN4Mesh21PropertyCurvatureList11setPyObjectEP7_object
Mesh.so:_ZN4Mesh21PropertyCurvatureList14RestoreDocFileERN4Base6ReaderE
Mesh.so:_ZN4Mesh21PropertyCurvatureList14getClassTypeIdEv
Mesh.so:_ZN4Mesh21PropertyCurvatureList17transformGeometryERKN4Base8Matrix4DE
Mesh.so:_ZN4Mesh21PropertyCurvatureList4initEv
Mesh.so:_ZN4Mesh21PropertyCurvatureList5PasteERKN3App8PropertyE
Mesh.so:_ZN4Mesh21PropertyCurvatureList6createEv
Mesh.so:_ZN4Mesh21PropertyCurvatureList7RestoreERN4Base9XMLReaderE
Mesh.so:_ZN4Mesh21PropertyCurvatureList8setValueERKNS_13CurvatureInfoE
Mesh.so:_ZN4Mesh21PropertyCurvatureList9setValuesERKSt6vectorINS_13CurvatureInfoESaIS2_EE
Mesh.so:_ZN4Mesh21PropertyCurvatureListC1Ev
Mesh.so:_ZN4Mesh21PropertyCurvatureListC2Ev
Mesh.so:_ZN4Mesh21PropertyCurvatureListD0Ev
Mesh.so:_ZN4Mesh21PropertyCurvatureListD1Ev
Mesh.so:_ZN4Mesh21PropertyCurvatureListD2Ev
Mesh.so:_ZN4Mesh4Cone14getClassTypeIdEv
Mesh.so:_ZN4Mesh4Cone18getPropertyDataPtrEv
Mesh.so:_ZN4Mesh4Cone4initEv
Mesh.so:_ZN4Mesh4Cone6createEv
Mesh.so:_ZN4Mesh4Cone7executeEv
Mesh.so:_ZN4Mesh4ConeC1Ev
Mesh.so:_ZN4Mesh4ConeC2Ev
Mesh.so:_ZN4Mesh4Cube14getClassTypeIdEv
Mesh.so:_ZN4Mesh4Cube18getPropertyDataPtrEv
Mesh.so:_ZN4Mesh4Cube4initEv
Mesh.so:_ZN4Mesh4Cube6createEv
Mesh.so:_ZN4Mesh4Cube7executeEv
Mesh.so:_ZN4Mesh4CubeC1Ev
Mesh.so:_ZN4Mesh4CubeC2Ev
Mesh.so:_ZN4Mesh5FacetC1ERKN8MeshCore9MeshFacetEPNS_10MeshObjectEm
Mesh.so:_ZN4Mesh5FacetC1ERKS0_
Mesh.so:_ZN4Mesh5FacetC2ERKN8MeshCore9MeshFacetEPNS_10MeshObjectEm
Mesh.so:_ZN4Mesh5FacetC2ERKS0_
Mesh.so:_ZN4Mesh5FacetD1Ev
Mesh.so:_ZN4Mesh5FacetD2Ev
Mesh.so:_ZN4Mesh5FacetaSERKS0_
Mesh.so:_ZN4Mesh5Torus14getClassTypeIdEv
Mesh.so:_ZN4Mesh5Torus18getPropertyDataPtrEv
Mesh.so:_ZN4Mesh5Torus4initEv
Mesh.so:_ZN4Mesh5Torus6createEv
Mesh.so:_ZN4Mesh5Torus7executeEv
Mesh.so:_ZN4Mesh5TorusC1Ev
Mesh.so:_ZN4Mesh5TorusC2Ev
Mesh.so:_ZN4Mesh6Export14getClassTypeIdEv
Mesh.so:_ZN4Mesh6Export18getPropertyDataPtrEv
Mesh.so:_ZN4Mesh6Export4initEv
Mesh.so:_ZN4Mesh6Export6createEv
Mesh.so:_ZN4Mesh6Export7executeEv
Mesh.so:_ZN4Mesh6ExportC1Ev
Mesh.so:_ZN4Mesh6ExportC2Ev
Mesh.so:_ZN4Mesh6Import14getClassTypeIdEv
Mesh.so:_ZN4Mesh6Import18getPropertyDataPtrEv
Mesh.so:_ZN4Mesh6Import4initEv
Mesh.so:_ZN4Mesh6Import6createEv
Mesh.so:_ZN4Mesh6Import7executeEv
Mesh.so:_ZN4Mesh6ImportC1Ev
Mesh.so:_ZN4Mesh6ImportC2Ev
Mesh.so:_ZN4Mesh6MeshPy10differenceEP7_object
Mesh.so:_ZN4Mesh6MeshPy10fixIndicesEP7_object
Mesh.so:_ZN4Mesh6MeshPy10foraminateEP7_object
Mesh.so:_ZN4Mesh6MeshPy10getSegmentEP7_object
Mesh.so:_ZN4Mesh6MeshPy10snapVertexEP7_object
Mesh.so:_ZN4Mesh6MeshPy10splitEdgesEP7_object
Mesh.so:_ZN4Mesh6MeshPy10splitFacetEP7_object
Mesh.so:_ZN4Mesh6MeshPy11fillupHolesEP7_object
Mesh.so:_ZN4Mesh6MeshPy11flipNormalsEP7_object
Mesh.so:_ZN4Mesh6MeshPy12collapseEdgeEP7_object
Mesh.so:_ZN4Mesh6MeshPy12insertVertexEP7_object
Mesh.so:_ZN4Mesh6MeshPy12removeFacetsEP7_object
Mesh.so:_ZN4Mesh6MeshPy13collapseFacetEP7_object
Mesh.so:_ZN4Mesh6MeshPy13countSegmentsEP7_object
Mesh.so:_ZN4Mesh6MeshPy13crossSectionsEP7_object
Mesh.so:_ZN4Mesh6MeshPy13offsetSpecialEP7_object
Mesh.so:_ZN4Mesh6MeshPy13optimizeEdgesEP7_object
Mesh.so:_ZN4Mesh6MeshPy13writeInventorEP7_object
Mesh.so:_ZN4Mesh6MeshPy14collapseFacetsEP7_object
Mesh.so:_ZN4Mesh6MeshPy14getEigenSystemEP7_object
Mesh.so:_ZN4Mesh6MeshPy15countComponentsEP7_object
Mesh.so:_ZN4Mesh6MeshPy15fixDeformationsEP7_object
Mesh.so:_ZN4Mesh6MeshPy15getPointNormalsEP7_object
Mesh.so:_ZN4Mesh6MeshPy15hasNonManifoldsEP7_object
Mesh.so:_ZN4Mesh6MeshPy15meshFromSegmentEP7_object
Mesh.so:_ZN4Mesh6MeshPy16fixDegenerationsEP7_object
Mesh.so:_ZN4Mesh6MeshPy16harmonizeNormalsEP7_object
Mesh.so:_ZN4Mesh6MeshPy16hasInvalidPointsEP7_object
Mesh.so:_ZN4Mesh6MeshPy16optimizeTopologyEP7_object
Mesh.so:_ZN4Mesh6MeshPy16removeComponentsEP7_object
Mesh.so:_ZN4Mesh6MeshPy16transformToEigenEP7_object
Mesh.so:_ZN4Mesh6MeshPy17getFacetSelectionEP7_object
Mesh.so:_ZN4Mesh6MeshPy17getInternalFacetsEP7_object
Mesh.so:_ZN4Mesh6MeshPy17getPlanarSegmentsEP7_object
Mesh.so:_ZN4Mesh6MeshPy17getPointSelectionEP7_object
Mesh.so:_ZN4Mesh6MeshPy17getSegmentsOfTypeEP7_object
Mesh.so:_ZN4Mesh6MeshPy17nearestFacetOnRayEP7_object
Mesh.so:_ZN4Mesh6MeshPy18removeNonManifoldsEP7_object
Mesh.so:_ZN4Mesh6MeshPy18staticCallback_cutEP7_objectS2_
Mesh.so:_ZN4Mesh6MeshPy19removeInvalidPointsEP7_object
Mesh.so:_ZN4Mesh6MeshPy19setCustomAttributesEPKcP7_object
Mesh.so:_ZN4Mesh6MeshPy19staticCallback_copyEP7_objectS2_
Mesh.so:_ZN4Mesh6MeshPy19staticCallback_readEP7_objectS2_S2_
Mesh.so:_ZN4Mesh6MeshPy19staticCallback_trimEP7_objectS2_
Mesh.so:_ZN4Mesh6MeshPy20fixSelfIntersectionsEP7_object
Mesh.so:_ZN4Mesh6MeshPy20getSelfIntersectionsEP7_object
Mesh.so:_ZN4Mesh6MeshPy20hasSelfIntersectionsEP7_object
Mesh.so:_ZN4Mesh6MeshPy20rebuildNeighbourHoodEP7_object
Mesh.so:_ZN4Mesh6MeshPy20removeFoldsOnSurfaceEP7_object
Mesh.so:_ZN4Mesh6MeshPy20staticCallback_clearEP7_objectS2_
Mesh.so:_ZN4Mesh6MeshPy20staticCallback_innerEP7_objectS2_
Mesh.so:_ZN4Mesh6MeshPy20staticCallback_outerEP7_objectS2_
Mesh.so:_ZN4Mesh6MeshPy20staticCallback_uniteEP7_objectS2_
Mesh.so:_ZN4Mesh6MeshPy20staticCallback_writeEP7_objectS2_S2_
Mesh.so:_ZN4Mesh6MeshPy21getSeparateComponentsEP7_object
Mesh.so:_ZN4Mesh6MeshPy21staticCallback_offsetEP7_objectS2_
Mesh.so:_ZN4Mesh6MeshPy21staticCallback_refineEP7_objectS2_
Mesh.so:_ZN4Mesh6MeshPy21staticCallback_rotateEP7_objectS2_
Mesh.so:_ZN4Mesh6MeshPy21staticCallback_smoothEP7_objectS2_S2_
Mesh.so:_ZN4Mesh6MeshPy22getSegmentsByCurvatureEP7_object
Mesh.so:_ZN4Mesh6MeshPy22removeDuplicatedFacetsEP7_object
Mesh.so:_ZN4Mesh6MeshPy22removeDuplicatedPointsEP7_object
Mesh.so:_ZN4Mesh6MeshPy22staticCallback_addMeshEP7_objectS2_
Mesh.so:_ZN4Mesh6MeshPy22staticCallback_coarsenEP7_objectS2_
Mesh.so:_ZN4Mesh6MeshPy22staticCallback_getAreaEP7_objectPv
Mesh.so:_ZN4Mesh6MeshPy22staticCallback_isSolidEP7_objectS2_
Mesh.so:_ZN4Mesh6MeshPy22staticCallback_setAreaEP7_objectS2_Pv
Mesh.so:_ZN4Mesh6MeshPy23removeNonManifoldPointsEP7_object
Mesh.so:_ZN4Mesh6MeshPy23staticCallback_addFacetEP7_objectS2_
Mesh.so:_ZN4Mesh6MeshPy23staticCallback_decimateEP7_objectS2_
Mesh.so:_ZN4Mesh6MeshPy23staticCallback_setPointEP7_objectS2_
Mesh.so:_ZN4Mesh6MeshPy23staticCallback_swapEdgeEP7_objectS2_
Mesh.so:_ZN4Mesh6MeshPy24staticCallback_addFacetsEP7_objectS2_
Mesh.so:_ZN4Mesh6MeshPy24staticCallback_getFacetsEP7_objectPv
Mesh.so:_ZN4Mesh6MeshPy24staticCallback_getPointsEP7_objectPv
Mesh.so:_ZN4Mesh6MeshPy24staticCallback_getVolumeEP7_objectPv
Mesh.so:_ZN4Mesh6MeshPy24staticCallback_intersectEP7_objectS2_
Mesh.so:_ZN4Mesh6MeshPy24staticCallback_printInfoEP7_objectS2_
Mesh.so:_ZN4Mesh6MeshPy24staticCallback_setFacetsEP7_objectS2_Pv
Mesh.so:_ZN4Mesh6MeshPy24staticCallback_setPointsEP7_objectS2_Pv
Mesh.so:_ZN4Mesh6MeshPy24staticCallback_setVolumeEP7_objectS2_Pv
Mesh.so:_ZN4Mesh6MeshPy24staticCallback_splitEdgeEP7_objectS2_
Mesh.so:_ZN4Mesh6MeshPy24staticCallback_transformEP7_objectS2_
Mesh.so:_ZN4Mesh6MeshPy24staticCallback_translateEP7_objectS2_
Mesh.so:_ZN4Mesh6MeshPy25staticCallback_differenceEP7_objectS2_
Mesh.so:_ZN4Mesh6MeshPy25staticCallback_fixIndicesEP7_objectS2_
Mesh.so:_ZN4Mesh6MeshPy25staticCallback_foraminateEP7_objectS2_
Mesh.so:_ZN4Mesh6MeshPy25staticCallback_getSegmentEP7_objectS2_
Mesh.so:_ZN4Mesh6MeshPy25staticCallback_snapVertexEP7_objectS2_
Mesh.so:_ZN4Mesh6MeshPy25staticCallback_splitEdgesEP7_objectS2_
Mesh.so:_ZN4Mesh6MeshPy25staticCallback_splitFacetEP7_objectS2_
Mesh.so:_ZN4Mesh6MeshPy26staticCallback_fillupHolesEP7_objectS2_
Mesh.so:_ZN4Mesh6MeshPy26staticCallback_flipNormalsEP7_objectS2_
Mesh.so:_ZN4Mesh6MeshPy26staticCallback_getTopologyEP7_objectPv
Mesh.so:_ZN4Mesh6MeshPy26staticCallback_setTopologyEP7_objectS2_Pv
Mesh.so:_ZN4Mesh6MeshPy27getNonUniformOrientedFacetsEP7_object
Mesh.so:_ZN4Mesh6MeshPy27hasNonUniformOrientedFacetsEP7_object
Mesh.so:_ZN4Mesh6MeshPy27staticCallback_collapseEdgeEP7_objectS2_
Mesh.so:_ZN4Mesh6MeshPy27staticCallback_insertVertexEP7_objectS2_
Mesh.so:_ZN4Mesh6MeshPy27staticCallback_removeFacetsEP7_objectS2_
Mesh.so:_ZN4Mesh6MeshPy28staticCallback_collapseFacetEP7_objectS2_
Mesh.so:_ZN4Mesh6MeshPy28staticCallback_countSegmentsEP7_objectS2_
Mesh.so:_ZN4Mesh6MeshPy28staticCallback_crossSectionsEP7_objectS2_
Mesh.so:_ZN4Mesh6MeshPy28staticCallback_getCountEdgesEP7_objectPv
Mesh.so:_ZN4Mesh6MeshPy28staticCallback_offsetSpecialEP7_objectS2_
Mesh.so:_ZN4Mesh6MeshPy28staticCallback_optimizeEdgesEP7_objectS2_
Mesh.so:_ZN4Mesh6MeshPy28staticCallback_setCountEdgesEP7_objectS2_Pv
Mesh.so:_ZN4Mesh6MeshPy28staticCallback_writeInventorEP7_objectS2_
Mesh.so:_ZN4Mesh6MeshPy29countNonUniformOrientedFacetsEP7_object
Mesh.so:_ZN4Mesh6MeshPy29staticCallback_collapseFacetsEP7_objectS2_
Mesh.so:_ZN4Mesh6MeshPy29staticCallback_getCountFacetsEP7_objectPv
Mesh.so:_ZN4Mesh6MeshPy29staticCallback_getCountPointsEP7_objectPv
Mesh.so:_ZN4Mesh6MeshPy29staticCallback_getEigenSystemEP7_objectS2_
Mesh.so:_ZN4Mesh6MeshPy29staticCallback_setCountFacetsEP7_objectS2_Pv
Mesh.so:_ZN4Mesh6MeshPy29staticCallback_setCountPointsEP7_objectS2_Pv
Mesh.so:_ZN4Mesh6MeshPy30staticCallback_countComponentsEP7_objectS2_
Mesh.so:_ZN4Mesh6MeshPy30staticCallback_fixDeformationsEP7_objectS2_
Mesh.so:_ZN4Mesh6MeshPy30staticCallback_getPointNormalsEP7_objectS2_
Mesh.so:_ZN4Mesh6MeshPy30staticCallback_hasNonManifoldsEP7_objectS2_
Mesh.so:_ZN4Mesh6MeshPy30staticCallback_meshFromSegmentEP7_objectS2_
Mesh.so:_ZN4Mesh6MeshPy31staticCallback_fixDegenerationsEP7_objectS2_
Mesh.so:_ZN4Mesh6MeshPy31staticCallback_harmonizeNormalsEP7_objectS2_
Mesh.so:_ZN4Mesh6MeshPy31staticCallback_hasInvalidPointsEP7_objectS2_
Mesh.so:_ZN4Mesh6MeshPy31staticCallback_optimizeTopologyEP7_objectS2_
Mesh.so:_ZN4Mesh6MeshPy31staticCallback_removeComponentsEP7_objectS2_
Mesh.so:_ZN4Mesh6MeshPy31staticCallback_transformToEigenEP7_objectS2_
Mesh.so:_ZN4Mesh6MeshPy32staticCallback_getFacetSelectionEP7_objectS2_
Mesh.so:_ZN4Mesh6MeshPy32staticCallback_getInternalFacetsEP7_objectS2_
Mesh.so:_ZN4Mesh6MeshPy32staticCallback_getPlanarSegmentsEP7_objectS2_
Mesh.so:_ZN4Mesh6MeshPy32staticCallback_getPointSelectionEP7_objectS2_
Mesh.so:_ZN4Mesh6MeshPy32staticCallback_getSegmentsOfTypeEP7_objectS2_
Mesh.so:_ZN4Mesh6MeshPy32staticCallback_nearestFacetOnRayEP7_objectS2_
Mesh.so:_ZN4Mesh6MeshPy33staticCallback_removeNonManifoldsEP7_objectS2_
Mesh.so:_ZN4Mesh6MeshPy34staticCallback_removeInvalidPointsEP7_objectS2_
Mesh.so:_ZN4Mesh6MeshPy35staticCallback_fixSelfIntersectionsEP7_objectS2_
Mesh.so:_ZN4Mesh6MeshPy35staticCallback_getSelfIntersectionsEP7_objectS2_
Mesh.so:_ZN4Mesh6MeshPy35staticCallback_hasSelfIntersectionsEP7_objectS2_
Mesh.so:_ZN4Mesh6MeshPy35staticCallback_rebuildNeighbourHoodEP7_objectS2_
Mesh.so:_ZN4Mesh6MeshPy35staticCallback_removeFoldsOnSurfaceEP7_objectS2_
Mesh.so:_ZN4Mesh6MeshPy36staticCallback_getSeparateComponentsEP7_objectS2_
Mesh.so:_ZN4Mesh6MeshPy37staticCallback_getSegmentsByCurvatureEP7_objectS2_
Mesh.so:_ZN4Mesh6MeshPy37staticCallback_removeDuplicatedFacetsEP7_objectS2_
Mesh.so:_ZN4Mesh6MeshPy37staticCallback_removeDuplicatedPointsEP7_objectS2_
Mesh.so:_ZN4Mesh6MeshPy38staticCallback_removeNonManifoldPointsEP7_objectS2_
Mesh.so:_ZN4Mesh6MeshPy3cutEP7_object
Mesh.so:_ZN4Mesh6MeshPy42staticCallback_getNonUniformOrientedFacetsEP7_objectS2_
Mesh.so:_ZN4Mesh6MeshPy42staticCallback_hasNonUniformOrientedFacetsEP7_objectS2_
Mesh.so:_ZN4Mesh6MeshPy44staticCallback_countNonUniformOrientedFacetsEP7_objectS2_
Mesh.so:_ZN4Mesh6MeshPy4copyEP7_object
Mesh.so:_ZN4Mesh6MeshPy4readEP7_objectS2_
Mesh.so:_ZN4Mesh6MeshPy4trimEP7_object
Mesh.so:_ZN4Mesh6MeshPy5_reprEv
Mesh.so:_ZN4Mesh6MeshPy5clearEP7_object
Mesh.so:_ZN4Mesh6MeshPy5innerEP7_object
Mesh.so:_ZN4Mesh6MeshPy5outerEP7_object
Mesh.so:_ZN4Mesh6MeshPy5uniteEP7_object
Mesh.so:_ZN4Mesh6MeshPy5writeEP7_objectS2_
Mesh.so:_ZN4Mesh6MeshPy6PyInitEP7_objectS2_
Mesh.so:_ZN4Mesh6MeshPy6PyMakeEP11_typeobjectP7_objectS4_
Mesh.so:_ZN4Mesh6MeshPy6offsetEP7_object
Mesh.so:_ZN4Mesh6MeshPy6refineEP7_object
Mesh.so:_ZN4Mesh6MeshPy6rotateEP7_object
Mesh.so:_ZN4Mesh6MeshPy6smoothEP7_objectS2_
Mesh.so:_ZN4Mesh6MeshPy7addMeshEP7_object
Mesh.so:_ZN4Mesh6MeshPy7coarsenEP7_object
Mesh.so:_ZN4Mesh6MeshPy7isSolidEP7_object
Mesh.so:_ZN4Mesh6MeshPy8_getattrEPKc
Mesh.so:_ZN4Mesh6MeshPy8_setattrEPKcP7_object
Mesh.so:_ZN4Mesh6MeshPy8addFacetEP7_object
Mesh.so:_ZN4Mesh6MeshPy8decimateEP7_object
Mesh.so:_ZN4Mesh6MeshPy8setPointEP7_object
Mesh.so:_ZN4Mesh6MeshPy8swapEdgeEP7_object
Mesh.so:_ZN4Mesh6MeshPy9addFacetsEP7_object
Mesh.so:_ZN4Mesh6MeshPy9intersectEP7_object
Mesh.so:_ZN4Mesh6MeshPy9printInfoEP7_object
Mesh.so:_ZN4Mesh6MeshPy9splitEdgeEP7_object
Mesh.so:_ZN4Mesh6MeshPy9transformEP7_object
Mesh.so:_ZN4Mesh6MeshPy9translateEP7_object
Mesh.so:_ZN4Mesh6MeshPyC1EPNS_10MeshObjectEP11_typeobject
Mesh.so:_ZN4Mesh6MeshPyC2EPNS_10MeshObjectEP11_typeobject
Mesh.so:_ZN4Mesh6MeshPyD0Ev
Mesh.so:_ZN4Mesh6MeshPyD1Ev
Mesh.so:_ZN4Mesh6MeshPyD2Ev
Mesh.so:_ZN4Mesh6Sphere14getClassTypeIdEv
Mesh.so:_ZN4Mesh6Sphere18getPropertyDataPtrEv
Mesh.so:_ZN4Mesh6Sphere4initEv
Mesh.so:_ZN4Mesh6Sphere6createEv
Mesh.so:_ZN4Mesh6Sphere7executeEv
Mesh.so:_ZN4Mesh6SphereC1Ev
Mesh.so:_ZN4Mesh6SphereC2Ev
Mesh.so:_ZN4Mesh7FacetPy10isDeformedEP7_object
Mesh.so:_ZN4Mesh7FacetPy13isDegeneratedEP7_object
Mesh.so:_ZN4Mesh7FacetPy19setCustomAttributesEPKcP7_object
Mesh.so:_ZN4Mesh7FacetPy22staticCallback_getAreaEP7_objectPv
Mesh.so:_ZN4Mesh7FacetPy22staticCallback_setAreaEP7_objectS2_Pv
Mesh.so:_ZN4Mesh7FacetPy22staticCallback_unboundEP7_objectS2_
Mesh.so:_ZN4Mesh7FacetPy23staticCallback_getBoundEP7_objectPv
Mesh.so:_ZN4Mesh7FacetPy23staticCallback_getIndexEP7_objectPv
Mesh.so:_ZN4Mesh7FacetPy23staticCallback_setBoundEP7_objectS2_Pv
Mesh.so:_ZN4Mesh7FacetPy23staticCallback_setIndexEP7_objectS2_Pv
Mesh.so:_ZN4Mesh7FacetPy24staticCallback_getNormalEP7_objectPv
Mesh.so:_ZN4Mesh7FacetPy24staticCallback_getPointsEP7_objectPv
Mesh.so:_ZN4Mesh7FacetPy24staticCallback_intersectEP7_objectS2_
Mesh.so:_ZN4Mesh7FacetPy24staticCallback_setNormalEP7_objectS2_Pv
Mesh.so:_ZN4Mesh7FacetPy24staticCallback_setPointsEP7_objectS2_Pv
Mesh.so:_ZN4Mesh7FacetPy25staticCallback_isDeformedEP7_objectS2_
Mesh.so:_ZN4Mesh7FacetPy28staticCallback_isDegeneratedEP7_objectS2_
Mesh.so:_ZN4Mesh7FacetPy30staticCallback_getPointIndicesEP7_objectPv
Mesh.so:_ZN4Mesh7FacetPy30staticCallback_setPointIndicesEP7_objectS2_Pv
Mesh.so:_ZN4Mesh7FacetPy34staticCallback_getNeighbourIndicesEP7_objectPv
Mesh.so:_ZN4Mesh7FacetPy34staticCallback_setNeighbourIndicesEP7_objectS2_Pv
Mesh.so:_ZN4Mesh7FacetPy5_reprEv
Mesh.so:_ZN4Mesh7FacetPy6PyInitEP7_objectS2_
Mesh.so:_ZN4Mesh7FacetPy6PyMakeEP11_typeobjectP7_objectS4_
Mesh.so:_ZN4Mesh7FacetPy7unboundEP7_object
Mesh.so:_ZN4Mesh7FacetPy8_getattrEPKc
Mesh.so:_ZN4Mesh7FacetPy8_setattrEPKcP7_object
Mesh.so:_ZN4Mesh7FacetPy9intersectEP7_object
Mesh.so:_ZN4Mesh7FacetPyC1EPNS_5FacetEP11_typeobject
Mesh.so:_ZN4Mesh7FacetPyC2EPNS_5FacetEP11_typeobject
Mesh.so:_ZN4Mesh7FacetPyD0Ev
Mesh.so:_ZN4Mesh7FacetPyD1Ev
Mesh.so:_ZN4Mesh7FacetPyD2Ev
Mesh.so:_ZN4Mesh7Feature11getPyObjectEv
Mesh.so:_ZN4Mesh7Feature14getClassTypeIdEv
Mesh.so:_ZN4Mesh7Feature18getPropertyDataPtrEv
Mesh.so:_ZN4Mesh7Feature4initEv
Mesh.so:_ZN4Mesh7Feature6createEv
Mesh.so:_ZN4Mesh7Feature7executeEv
Mesh.so:_ZN4Mesh7Feature9onChangedEPKN3App8PropertyE
Mesh.so:_ZN4Mesh7FeatureC1Ev
Mesh.so:_ZN4Mesh7FeatureC2Ev
Mesh.so:_ZN4Mesh7FeatureD0Ev
Mesh.so:_ZN4Mesh7FeatureD1Ev
Mesh.so:_ZN4Mesh7FeatureD2Ev
Mesh.so:_ZN4Mesh7Segment10addIndicesERKSt6vectorImSaImEE
Mesh.so:_ZN4Mesh7Segment13removeIndicesERKSt6vectorImSaImEE
Mesh.so:_ZN4Mesh7Segment20const_facet_iterator11dereferenceEv
Mesh.so:_ZN4Mesh7Segment20const_facet_iteratorC1EPKS0_N9__gnu_cxx17__normal_iteratorIPKmSt6vectorImSaImEEEE
Mesh.so:_ZN4Mesh7Segment20const_facet_iteratorC1ERKS1_
Mesh.so:_ZN4Mesh7Segment20const_facet_iteratorC2EPKS0_N9__gnu_cxx17__normal_iteratorIPKmSt6vectorImSaImEEEE
Mesh.so:_ZN4Mesh7Segment20const_facet_iteratorC2ERKS1_
Mesh.so:_ZN4Mesh7Segment20const_facet_iteratorD1Ev
Mesh.so:_ZN4Mesh7Segment20const_facet_iteratorD2Ev
Mesh.so:_ZN4Mesh7Segment20const_facet_iteratoraSERKS1_
Mesh.so:_ZN4Mesh7Segment20const_facet_iteratormmEv
Mesh.so:_ZN4Mesh7Segment20const_facet_iteratorppEv
Mesh.so:_ZN4Mesh7SegmentC1EPNS_10MeshObjectERKSt6vectorImSaImEEb
Mesh.so:_ZN4Mesh7SegmentC1EPNS_10MeshObjectEb
Mesh.so:_ZN4Mesh7SegmentC2EPNS_10MeshObjectERKSt6vectorImSaImEEb
Mesh.so:_ZN4Mesh7SegmentC2EPNS_10MeshObjectEb
Mesh.so:_ZN4Mesh7SegmentaSERKS0_
Mesh.so:_ZN4Mesh8Cylinder14getClassTypeIdEv
Mesh.so:_ZN4Mesh8Cylinder18getPropertyDataPtrEv
Mesh.so:_ZN4Mesh8Cylinder4initEv
Mesh.so:_ZN4Mesh8Cylinder6createEv
Mesh.so:_ZN4Mesh8Cylinder7executeEv
Mesh.so:_ZN4Mesh8CylinderC1Ev
Mesh.so:_ZN4Mesh8CylinderC2Ev
Mesh.so:_ZN4Mesh8Exporter11addAppGroupEPN3App14DocumentObjectEf
Mesh.so:_ZN4Mesh8Exporter11isSupportedEPN3App14DocumentObjectE
Mesh.so:_ZN4Mesh8Exporter9addObjectEPN3App14DocumentObjectEf
Mesh.so:_ZN4Mesh8Exporter9xmlEscapeERKNSt7__cxx1112basic_stringIcSt11char_traitsIcESaIcEEE
Mesh.so:_ZN4Mesh8ExporterC1Ev
Mesh.so:_ZN4Mesh8ExporterC2Ev
Mesh.so:_ZN4Mesh9Curvature14getClassTypeIdEv
Mesh.so:_ZN4Mesh9Curvature18getPropertyDataPtrEv
Mesh.so:_ZN4Mesh9Curvature4initEv
Mesh.so:_ZN4Mesh9Curvature6createEv
Mesh.so:_ZN4Mesh9Curvature7executeEv
Mesh.so:_ZN4Mesh9CurvatureC1Ev
Mesh.so:_ZN4Mesh9CurvatureC2Ev
Mesh.so:_ZN4Mesh9Ellipsoid14getClassTypeIdEv
Mesh.so:_ZN4Mesh9Ellipsoid18getPropertyDataPtrEv
Mesh.so:_ZN4Mesh9Ellipsoid4initEv
Mesh.so:_ZN4Mesh9Ellipsoid6createEv
Mesh.so:_ZN4Mesh9Ellipsoid7executeEv
Mesh.so:_ZN4Mesh9EllipsoidC1Ev
Mesh.so:_ZN4Mesh9EllipsoidC2Ev
Mesh.so:_ZN4Mesh9FillHoles14getClassTypeIdEv
Mesh.so:_ZN4Mesh9FillHoles18getPropertyDataPtrEv
Mesh.so:_ZN4Mesh9FillHoles4initEv
Mesh.so:_ZN4Mesh9FillHoles6createEv
Mesh.so:_ZN4Mesh9FillHoles7executeEv
Mesh.so:_ZN4Mesh9FillHolesC1Ev
Mesh.so:_ZN4Mesh9FillHolesC2Ev
Mesh.so:_ZN4Mesh9FillHolesD0Ev
Mesh.so:_ZN4Mesh9FillHolesD1Ev
Mesh.so:_ZN4Mesh9FillHolesD2Ev
Mesh.so:_ZN4Mesh9Transform14getClassTypeIdEv
Mesh.so:_ZN4Mesh9Transform18getPropertyDataPtrEv
Mesh.so:_ZN4Mesh9Transform4initEv
Mesh.so:_ZN4Mesh9Transform6createEv
Mesh.so:_ZN4Mesh9Transform7executeEv
Mesh.so:_ZN4Mesh9TransformC1Ev
Mesh.so:_ZN4Mesh9TransformC2Ev
Mesh.so:_ZN8MeshCore10MeshKDTree5ClearEv
Mesh.so:_ZN8MeshCore10MeshKDTree8OptimizeEv
Mesh.so:_ZN8MeshCore10MeshKDTreeC1ERKNS_14MeshPointArrayE
Mesh.so:_ZN8MeshCore10MeshKDTreeC1ERKSt6vectorIN4Base7Vector3IfEESaIS4_EE
Mesh.so:_ZN8MeshCore10MeshKDTreeC2ERKNS_14MeshPointArrayE
Mesh.so:_ZN8MeshCore10MeshKDTreeC2ERKSt6vectorIN4Base7Vector3IfEESaIS4_EE
Mesh.so:_ZN8MeshCore10MeshKDTreeD1Ev
Mesh.so:_ZN8MeshCore10MeshKDTreeD2Ev
Mesh.so:_ZN8MeshCore10MeshKernel10ErasePointEmmb
Mesh.so:_ZN8MeshCore10MeshKernel11DeleteFacetERKNS_17MeshFacetIteratorE
Mesh.so:_ZN8MeshCore10MeshKernel11DeleteFacetEm
Mesh.so:_ZN8MeshCore10MeshKernel11DeletePointERKNS_17MeshPointIteratorE
Mesh.so:_ZN8MeshCore10MeshKernel11DeletePointEm
Mesh.so:_ZN8MeshCore10MeshKernel12DeleteFacetsERKSt6vectorImSaImEE
Mesh.so:_ZN8MeshCore10MeshKernel12DeletePointsERKSt6vectorImSaImEE
Mesh.so:_ZN8MeshCore10MeshKernel14RecalcBoundBoxEv
Mesh.so:_ZN8MeshCore10MeshKernel14RemoveInvalidsEv
Mesh.so:_ZN8MeshCore10MeshKernel17RebuildNeighboursEm
Mesh.so:_ZN8MeshCore10MeshKernel17RebuildNeighboursEv
Mesh.so:_ZN8MeshCore10MeshKernel4ReadERSi
Mesh.so:_ZN8MeshCore10MeshKernel4SwapERS0_
Mesh.so:_ZN8MeshCore10MeshKernel5AdoptERNS_14MeshPointArrayERNS_14MeshFacetArrayEb
Mesh.so:_ZN8MeshCore10MeshKernel5ClearEv
Mesh.so:_ZN8MeshCore10MeshKernel5MergeERKNS_14MeshPointArrayERKNS_14MeshFacetArrayE
Mesh.so:_ZN8MeshCore10MeshKernel5MergeERKS0_
Mesh.so:_ZN8MeshCore10MeshKernel6AssignERKNS_14MeshPointArrayERKNS_14MeshFacetArrayEb
Mesh.so:_ZN8MeshCore10MeshKernel6SmoothEif
Mesh.so:_ZN8MeshCore10MeshKernel7CleanupEv
Mesh.so:_ZN8MeshCore10MeshKernel8AddFacetERKNS_13MeshGeomFacetE
Mesh.so:_ZN8MeshCore10MeshKernel9AddFacetsERKSt6vectorINS_13MeshGeomFacetESaIS2_EE
Mesh.so:_ZN8MeshCore10MeshKernel9AddFacetsERKSt6vectorINS_9MeshFacetESaIS2_EERKS1_IN4Base7Vector3IfEESaIS9_EEb
Mesh.so:_ZN8MeshCore10MeshKernel9AddFacetsERKSt6vectorINS_9MeshFacetESaIS2_EEb
Mesh.so:_ZN8MeshCore10MeshKernel9CutFacetsERKNS_13MeshFacetGridEPKN4Base14ViewProjMethodERKNS4_9Polygon2dEbRSt6vectorINS_13MeshGeomFacetESaISC_EE
Mesh.so:_ZN8MeshCore10MeshKernel9CutFacetsERKNS_13MeshFacetGridEPKN4Base14ViewProjMethodERKNS4_9Polygon2dEbRSt6vectorImSaImEE
Mesh.so:_ZN8MeshCore10MeshKernel9TransformERKN4Base8Matrix4DE
Mesh.so:_ZN8MeshCore10MeshKernelC1ERKS0_
Mesh.so:_ZN8MeshCore10MeshKernelC1Ev
Mesh.so:_ZN8MeshCore10MeshKernelC2ERKS0_
Mesh.so:_ZN8MeshCore10MeshKernelC2Ev
Mesh.so:_ZN8MeshCore10MeshKernelaSERKS0_
Mesh.so:_ZN8MeshCore10MeshKernelaSERKSt6vectorINS_13MeshGeomFacetESaIS2_EE
Mesh.so:_ZN8MeshCore10MeshKernelmLERKN4Base8Matrix4DE
Mesh.so:_ZN8MeshCore10MeshKernelpLERKNS_13MeshGeomFacetE
Mesh.so:_ZN8MeshCore10MeshKernelpLERKSt6vectorINS_13MeshGeomFacetESaIS2_EE
Mesh.so:_ZN8MeshCore10MeshOutput12SaveMeshNodeERSo
Mesh.so:_ZN8MeshCore10MeshOutput16SetSTLHeaderDataERKNSt7__cxx1112basic_stringIcSt11char_traitsIcESaIcEEE
Mesh.so:_ZN8MeshCore10MeshOutput9GetFormatEPKc
Mesh.so:_ZN8MeshCore10MeshOutput9TransformERKN4Base8Matrix4DE
Mesh.so:_ZN8MeshCore10SurfaceFit10PolynomFitEv
Mesh.so:_ZN8MeshCore10SurfaceFit16GetCurvatureInfoEdddRdS1_
Mesh.so:_ZN8MeshCore10SurfaceFit16GetCurvatureInfoEdddRdS1_RN4Base7Vector3IfEES5_S1_
Mesh.so:_ZN8MeshCore10SurfaceFit3FitEv
Mesh.so:_ZN8MeshCore10SurfaceFitC1Ev
Mesh.so:_ZN8MeshCore10SurfaceFitC2Ev
Mesh.so:_ZN8MeshCore11CylinderFit17ProjectToCylinderEv
Mesh.so:_ZN8MeshCore11CylinderFit3FitEv
Mesh.so:_ZN8MeshCore11CylinderFitC1Ev
Mesh.so:_ZN8MeshCore11CylinderFitC2Ev
Mesh.so:_ZN8MeshCore11CylinderFitD0Ev
Mesh.so:_ZN8MeshCore11CylinderFitD1Ev
Mesh.so:_ZN8MeshCore11CylinderFitD2Ev
Mesh.so:_ZN8MeshCore11MeshBuilder10InitializeEmb
Mesh.so:_ZN8MeshCore11MeshBuilder12SetToleranceEf
Mesh.so:_ZN8MeshCore11MeshBuilder16SetNeighbourhoodEv
Mesh.so:_ZN8MeshCore11MeshBuilder24RemoveUnreferencedPointsEv
Mesh.so:_ZN8MeshCore11MeshBuilder6FinishEb
Mesh.so:_ZN8MeshCore11MeshBuilder8AddFacetEPN4Base7Vector3IfEEhm
Mesh.so:_ZN8MeshCore11MeshBuilder8AddFacetERKN4Base7Vector3IfEES5_S5_S5_hm
Mesh.so:_ZN8MeshCore11MeshBuilder8AddFacetERKNS_13MeshGeomFacetEbb
Mesh.so:_ZN8MeshCore11MeshBuilderC1ERNS_10MeshKernelE
Mesh.so:_ZN8MeshCore11MeshBuilderC2ERNS_10MeshKernelE
Mesh.so:_ZN8MeshCore11MeshBuilderD1Ev
Mesh.so:_ZN8MeshCore11MeshBuilderD2Ev
Mesh.so:_ZN8MeshCore11MeshCleanup11SetMaterialEPNS_8MaterialE
Mesh.so:_ZN8MeshCore11MeshCleanup14RemoveInvalidsEv
Mesh.so:_ZN8MeshCore11MeshCleanup19RemoveInvalidFacetsEv
Mesh.so:_ZN8MeshCore11MeshCleanup19RemoveInvalidPointsEv
Mesh.so:_ZN8MeshCore11MeshCleanupC1ERNS_14MeshPointArrayERNS_14MeshFacetArrayE
Mesh.so:_ZN8MeshCore11MeshCleanupC2ERNS_14MeshPointArrayERNS_14MeshFacetArrayE
Mesh.so:_ZN8MeshCore11MeshCleanupD1Ev
Mesh.so:_ZN8MeshCore11MeshCleanupD2Ev
Mesh.so:_ZN8MeshCore12MeshSimplify8simplifyEff
Mesh.so:_ZN8MeshCore12MeshSimplifyC1ERNS_10MeshKernelE
Mesh.so:_ZN8MeshCore12MeshSimplifyC2ERNS_10MeshKernelE
Mesh.so:_ZN8MeshCore12MeshSimplifyD1Ev
Mesh.so:_ZN8MeshCore12MeshSimplifyD2Ev
Mesh.so:_ZN8MeshCore12MeshTrimming10TrimFacetsERKSt6vectorImSaImEERS1_INS_13MeshGeomFacetESaIS6_EE
Mesh.so:_ZN8MeshCore12MeshTrimming11AdjustFacetERNS_9MeshFacetEi
Mesh.so:_ZN8MeshCore12MeshTrimming12CreateFacetsEmiRKSt6vectorIN4Base7Vector3IfEESaIS4_EERS1_INS_13MeshGeomFacetESaIS9_EE
Mesh.so:_ZN8MeshCore12MeshTrimming12CreateFacetsEmiRKSt6vectorIN4Base7Vector3IfEESaIS4_EERS4_RS1_INS_13MeshGeomFacetESaISA_EE
Mesh.so:_ZN8MeshCore12MeshTrimming15SetInnerOrOuterENS0_5TModeE
Mesh.so:_ZN8MeshCore12MeshTrimming21IsPolygonPointInFacetEmRN4Base7Vector3IfEE
Mesh.so:_ZN8MeshCore12MeshTrimmingC1ERNS_10MeshKernelEPKN4Base14ViewProjMethodERKNS3_9Polygon2dE
Mesh.so:_ZN8MeshCore12MeshTrimmingC2ERNS_10MeshKernelEPKN4Base14ViewProjMethodERKNS3_9Polygon2dE
Mesh.so:_ZN8MeshCore12MeshTrimmingD1Ev
Mesh.so:_ZN8MeshCore12MeshTrimmingD2Ev
Mesh.so:_ZN8MeshCore12QuadraticFit16GetCurvatureInfoEdddRdS1_
Mesh.so:_ZN8MeshCore12QuadraticFit16GetCurvatureInfoEdddRdS1_RN4Base7Vector3IfEES5_S1_
Mesh.so:_ZN8MeshCore12QuadraticFit3FitEv
Mesh.so:_ZN8MeshCore13Approximation5ClearEv
Mesh.so:_ZN8MeshCore13Approximation7ConvertERKN3Wm47Vector3IdEERN4Base7Vector3IfEE
Mesh.so:_ZN8MeshCore13Approximation7ConvertERKN4Base7Vector3IfEERN3Wm47Vector3IdEE
Mesh.so:_ZN8MeshCore13Approximation8AddPointERKN4Base7Vector3IfEE
Mesh.so:_ZN8MeshCore13Approximation9AddPointsERKNSt7__cxx114listIN4Base7Vector3IfEESaIS5_EEE
Mesh.so:_ZN8MeshCore13Approximation9AddPointsERKSt3setIN4Base7Vector3IfEESt4lessIS4_ESaIS4_EE
Mesh.so:_ZN8MeshCore13Approximation9AddPointsERKSt6vectorIN4Base7Vector3IfEESaIS4_EE
Mesh.so:_ZN8MeshCore13ApproximationC1Ev
Mesh.so:_ZN8MeshCore13ApproximationC2Ev
Mesh.so:_ZN8MeshCore13ApproximationD0Ev
Mesh.so:_ZN8MeshCore13ApproximationD1Ev
Mesh.so:_ZN8MeshCore13ApproximationD2Ev
Mesh.so:_ZN8MeshCore13MeshAlgorithm18SplitBoundaryLoopsERKSt6vectorImSaImEERNSt7__cxx114listIS3_SaIS3_EEE
Mesh.so:_ZN8MeshCore13MeshAlgorithm18SplitBoundaryLoopsERNSt7__cxx114listISt6vectorImSaImEESaIS5_EEE
Mesh.so:_ZN8MeshCore13MeshAlgorithm8SurroundERKN4Base9BoundBox3IfEERKNS1_7Vector3IfEE
Mesh.so:_ZN8MeshCore13MeshCurvature14ComputePerFaceEb
Mesh.so:_ZN8MeshCore13MeshCurvature16ComputePerVertexEv
Mesh.so:_ZN8MeshCore13MeshCurvatureC1ERKNS_10MeshKernelE
Mesh.so:_ZN8MeshCore13MeshCurvatureC1ERKNS_10MeshKernelERKSt6vectorImSaImEE
Mesh.so:_ZN8MeshCore13MeshCurvatureC2ERKNS_10MeshKernelE
Mesh.so:_ZN8MeshCore13MeshCurvatureC2ERKNS_10MeshKernelERKSt6vectorImSaImEE
Mesh.so:_ZN8MeshCore13MeshEvalSolid8EvaluateEv
Mesh.so:_ZN8MeshCore13MeshEvalSolidC1ERKNS_10MeshKernelE
Mesh.so:_ZN8MeshCore13MeshEvalSolidC2ERKNS_10MeshKernelE
Mesh.so:_ZN8MeshCore13MeshEvalSolidD0Ev
Mesh.so:_ZN8MeshCore13MeshEvalSolidD1Ev
Mesh.so:_ZN8MeshCore13MeshEvalSolidD2Ev
Mesh.so:_ZN8MeshCore13MeshFacetGrid11RebuildGridEv
Mesh.so:_ZN8MeshCore13MeshFacetGrid8ValidateERKNS_10MeshKernelE
Mesh.so:_ZN8MeshCore13MeshFacetGrid8ValidateEv
Mesh.so:_ZN8MeshCore13MeshFacetGridC1ERKNS_10MeshKernelE
Mesh.so:_ZN8MeshCore13MeshFacetGridC1ERKNS_10MeshKernelEf
Mesh.so:_ZN8MeshCore13MeshFacetGridC1ERKNS_10MeshKernelEi
Mesh.so:_ZN8MeshCore13MeshFacetGridC1ERKNS_10MeshKernelEmmm
Mesh.so:_ZN8MeshCore13MeshFacetGridC2ERKNS_10MeshKernelE
Mesh.so:_ZN8MeshCore13MeshFacetGridC2ERKNS_10MeshKernelEf
Mesh.so:_ZN8MeshCore13MeshFacetGridC2ERKNS_10MeshKernelEi
Mesh.so:_ZN8MeshCore13MeshFacetGridC2ERKNS_10MeshKernelEmmm
Mesh.so:_ZN8MeshCore13MeshGeomFacet7EnlargeEf
Mesh.so:_ZN8MeshCore13MeshGeomFacetC1ERKN4Base7Vector3IfEES5_S5_
Mesh.so:_ZN8MeshCore13MeshGeomFacetC1Ev
Mesh.so:_ZN8MeshCore13MeshGeomFacetC2ERKN4Base7Vector3IfEES5_S5_
Mesh.so:_ZN8MeshCore13MeshGeomFacetC2Ev
Mesh.so:_ZN8MeshCore13MeshPointGrid11RebuildGridEv
Mesh.so:_ZN8MeshCore13MeshPointGrid8AddPointERKNS_9MeshPointEmf
Mesh.so:_ZN8MeshCore13MeshPointGrid8ValidateERKNS_10MeshKernelE
Mesh.so:_ZN8MeshCore13MeshPointGrid8ValidateEv
Mesh.so:_ZN8MeshCore13MeshPointGridC1ERKNS_10MeshKernelE
Mesh.so:_ZN8MeshCore13MeshPointGridC1ERKNS_10MeshKernelEf
Mesh.so:_ZN8MeshCore13MeshPointGridC1ERKNS_10MeshKernelEi
Mesh.so:_ZN8MeshCore13MeshPointGridC1ERKNS_10MeshKernelEmmm
Mesh.so:_ZN8MeshCore13MeshPointGridC1Ev
Mesh.so:_ZN8MeshCore13MeshPointGridC2ERKNS_10MeshKernelE
Mesh.so:_ZN8MeshCore13MeshPointGridC2ERKNS_10MeshKernelEf
Mesh.so:_ZN8MeshCore13MeshPointGridC2ERKNS_10MeshKernelEi
Mesh.so:_ZN8MeshCore13MeshPointGridC2ERKNS_10MeshKernelEmmm
Mesh.so:_ZN8MeshCore13MeshPointGridC2Ev
Mesh.so:_ZN8MeshCore13PolynomialFit3FitEv
Mesh.so:_ZN8MeshCore13PolynomialFitC1Ev
Mesh.so:_ZN8MeshCore13PolynomialFitC2Ev
Mesh.so:_ZN8MeshCore13PolynomialFitD0Ev
Mesh.so:_ZN8MeshCore13PolynomialFitD1Ev
Mesh.so:_ZN8MeshCore13PolynomialFitD2Ev
Mesh.so:_ZN8MeshCore13SetOperations13CollectFacetsEif
Mesh.so:_ZN8MeshCore13SetOperations15TriangulateMeshERKNS_10MeshKernelEi
Mesh.so:_ZN8MeshCore13SetOperations19CollectFacetVisitor10AllowVisitERKNS_9MeshFacetES4_mmt
Mesh.so:_ZN8MeshCore13SetOperations19CollectFacetVisitor5VisitERKNS_9MeshFacetES4_mm
Mesh.so:_ZN8MeshCore13SetOperations19CollectFacetVisitorC1ERKNS_10MeshKernelERSt6vectorImSaImEERSt3mapINS0_4EdgeENS0_8EdgeInfoESt4lessISA_ESaISt4pairIKSA_SB_EEEifRN4Base9Builder3DE
Mesh.so:_ZN8MeshCore13SetOperations19CollectFacetVisitorC2ERKNS_10MeshKernelERSt6vectorImSaImEERSt3mapINS0_4EdgeENS0_8EdgeInfoESt4lessISA_ESaISt4pairIKSA_SB_EEEifRN4Base9Builder3DE
Mesh.so:_ZN8MeshCore13SetOperations2DoEv
Mesh.so:_ZN8MeshCore13SetOperations3CutERSt3setImSt4lessImESaImEES6_
Mesh.so:_ZN8MeshCore13SetOperationsC1ERKNS_10MeshKernelES3_RS1_NS0_13OperationTypeEf
Mesh.so:_ZN8MeshCore13SetOperationsC2ERKNS_10MeshKernelES3_RS1_NS0_13OperationTypeEf
Mesh.so:_ZN8MeshCore13SetOperationsD0Ev
Mesh.so:_ZN8MeshCore13SetOperationsD1Ev
Mesh.so:_ZN8MeshCore13SetOperationsD2Ev
Mesh.so:_ZN8MeshCore14FacetCurvatureC1ERKNS_10MeshKernelERKNS_20MeshRefPointToFacetsEfm
Mesh.so:_ZN8MeshCore14FacetCurvatureC2ERKNS_10MeshKernelERKNS_20MeshRefPointToFacetsEfm
Mesh.so:_ZN8MeshCore14MeshComponentsC1ERKNS_10MeshKernelE
Mesh.so:_ZN8MeshCore14MeshComponentsC2ERKNS_10MeshKernelE
Mesh.so:_ZN8MeshCore14MeshComponentsD1Ev
Mesh.so:_ZN8MeshCore14MeshComponentsD2Ev
Mesh.so:_ZN8MeshCore14MeshFacetArray16DecrementIndicesEm
Mesh.so:_ZN8MeshCore14MeshFacetArray16TransposeIndicesEmm
Mesh.so:_ZN8MeshCore14MeshFacetArray5EraseEN9__gnu_cxx17__normal_iteratorIPNS_9MeshFacetESt6vectorIS3_SaIS3_EEEE
Mesh.so:_ZN8MeshCore14MeshFacetArrayaSERKS0_
Mesh.so:_ZN8MeshCore14MeshPointArray13GetOrAddIndexERKNS_9MeshPointE
Mesh.so:_ZN8MeshCore14MeshPointArray3GetERKNS_9MeshPointE
Mesh.so:_ZN8MeshCore14MeshPointArray9TransformERKN4Base8Matrix4DE
Mesh.so:_ZN8MeshCore14MeshPointArrayaSERKS0_
Mesh.so:_ZN8MeshCore14MeshProjection17projectLineOnMeshERKNS_13MeshFacetGridERKN4Base7Vector3IfEEmS8_mS8_RSt6vectorIS6_SaIS6_EE
Mesh.so:_ZN8MeshCore14MeshProjectionC1ERKNS_10MeshKernelE
Mesh.so:_ZN8MeshCore14MeshProjectionC2ERKNS_10MeshKernelE
Mesh.so:_ZN8MeshCore14MeshProjectionD1Ev
Mesh.so:_ZN8MeshCore14MeshProjectionD2Ev
Mesh.so:_ZN8MeshCore15MeshDefinitions19SetMinPointDistanceEf
Mesh.so:_ZN8MeshCore15MeshDefinitionsC1Ev
Mesh.so:_ZN8MeshCore15MeshDefinitionsC2Ev
Mesh.so:_ZN8MeshCore15MeshEigensystem20CalculateLocalSystemEv
Mesh.so:_ZN8MeshCore15MeshEigensystem8EvaluateEv
Mesh.so:_ZN8MeshCore15MeshEigensystemC1ERKNS_10MeshKernelE
Mesh.so:_ZN8MeshCore15MeshEigensystemC2ERKNS_10MeshKernelE
Mesh.so:_ZN8MeshCore15MeshFastBuilder10InitializeEm
Mesh.so:_ZN8MeshCore15MeshFastBuilder6FinishEv
Mesh.so:_ZN8MeshCore15MeshFastBuilder8AddFacetEPKN4Base7Vector3IfEE
Mesh.so:_ZN8MeshCore15MeshFastBuilder8AddFacetERKNS_13MeshGeomFacetE
Mesh.so:_ZN8MeshCore15MeshFastBuilderC1ERNS_10MeshKernelE
Mesh.so:_ZN8MeshCore15MeshFastBuilderC2ERNS_10MeshKernelE
Mesh.so:_ZN8MeshCore15MeshFastBuilderD1Ev
Mesh.so:_ZN8MeshCore15MeshFastBuilderD2Ev
Mesh.so:_ZN8MeshCore15MeshFixInvalids5FixupEv
Mesh.so:_ZN8MeshCore15MeshFixTopology5FixupEv
Mesh.so:_ZN8MeshCore15PlaneSurfaceFit10InitializeERKNS_13MeshGeomFacetE
Mesh.so:_ZN8MeshCore15PlaneSurfaceFit11AddTriangleERKNS_13MeshGeomFacetE
Mesh.so:_ZN8MeshCore15PlaneSurfaceFit3FitEv
Mesh.so:_ZN8MeshCore15PlaneSurfaceFitC1ERKN4Base7Vector3IfEES5_
Mesh.so:_ZN8MeshCore15PlaneSurfaceFitC1Ev
Mesh.so:_ZN8MeshCore15PlaneSurfaceFitC2ERKN4Base7Vector3IfEES5_
Mesh.so:_ZN8MeshCore15PlaneSurfaceFitC2Ev
Mesh.so:_ZN8MeshCore15PlaneSurfaceFitD0Ev
Mesh.so:_ZN8MeshCore15PlaneSurfaceFitD1Ev
Mesh.so:_ZN8MeshCore15PlaneSurfaceFitD2Ev
Mesh.so:_ZN8MeshCore15TaubinSmoothing12SmoothPointsEjRKSt6vectorImSaImEE
Mesh.so:_ZN8MeshCore15TaubinSmoothing6SmoothEj
Mesh.so:_ZN8MeshCore15TaubinSmoothingC1ERNS_10MeshKernelE
Mesh.so:_ZN8MeshCore15TaubinSmoothingC2ERNS_10MeshKernelE
Mesh.so:_ZN8MeshCore15TaubinSmoothingD0Ev
Mesh.so:_ZN8MeshCore15TaubinSmoothingD1Ev
Mesh.so:_ZN8MeshCore15TaubinSmoothingD2Ev
Mesh.so:_ZN8MeshCore16FlatTriangulator11TriangulateEv
Mesh.so:_ZN8MeshCore16FlatTriangulator14PostProcessingERKSt6vectorIN4Base7Vector3IfEESaIS4_EE
Mesh.so:_ZN8MeshCore16FlatTriangulatorC1Ev
Mesh.so:_ZN8MeshCore16FlatTriangulatorC2Ev
Mesh.so:_ZN8MeshCore16FlatTriangulatorD0Ev
Mesh.so:_ZN8MeshCore16FlatTriangulatorD1Ev
Mesh.so:_ZN8MeshCore16FlatTriangulatorD2Ev
Mesh.so:_ZN8MeshCore16LaplaceSmoothing12SmoothPointsEjRKSt6vectorImSaImEE
Mesh.so:_ZN8MeshCore16LaplaceSmoothing6SmoothEj
Mesh.so:_ZN8MeshCore16LaplaceSmoothing8UmbrellaERKNS_20MeshRefPointToPointsERKNS_20MeshRefPointToFacetsEd
Mesh.so:_ZN8MeshCore16LaplaceSmoothing8UmbrellaERKNS_20MeshRefPointToPointsERKNS_20MeshRefPointToFacetsEdRKSt6vectorImSaImEE
Mesh.so:_ZN8MeshCore16LaplaceSmoothingC1ERNS_10MeshKernelE
Mesh.so:_ZN8MeshCore16LaplaceSmoothingC2ERNS_10MeshKernelE
Mesh.so:_ZN8MeshCore16LaplaceSmoothingD0Ev
Mesh.so:_ZN8MeshCore16LaplaceSmoothingD1Ev
Mesh.so:_ZN8MeshCore16LaplaceSmoothingD2Ev
Mesh.so:_ZN8MeshCore16MeshEvalInvalids8EvaluateEv
Mesh.so:_ZN8MeshCore16MeshEvalTopology8EvaluateEv
Mesh.so:_ZN8MeshCore16MeshFixNaNPoints5FixupEv
Mesh.so:_ZN8MeshCore16MeshGridIterator9InitOnRayERKN4Base7Vector3IfEES5_RSt6vectorImSaImEE
Mesh.so:_ZN8MeshCore16MeshGridIterator9InitOnRayERKN4Base7Vector3IfEES5_fRSt6vectorImSaImEE
Mesh.so:_ZN8MeshCore16MeshGridIterator9NextOnRayERSt6vectorImSaImEE
Mesh.so:_ZN8MeshCore16MeshGridIteratorC1ERKNS_8MeshGridE
Mesh.so:_ZN8MeshCore16MeshGridIteratorC2ERKNS_8MeshGridE
Mesh.so:_ZN8MeshCore16MeshPlaneVisitor10AllowVisitERKNS_9MeshFacetES3_mmt
Mesh.so:_ZN8MeshCore16MeshPlaneVisitor5VisitERKNS_9MeshFacetES3_mm
Mesh.so:_ZN8MeshCore16MeshPlaneVisitorC1ERKNS_10MeshKernelEmfRSt6vectorImSaImEE
Mesh.so:_ZN8MeshCore16MeshPlaneVisitorC2ERKNS_10MeshKernelEmfRSt6vectorImSaImEE
Mesh.so:_ZN8MeshCore16MeshPlaneVisitorD0Ev
Mesh.so:_ZN8MeshCore16MeshPlaneVisitorD1Ev
Mesh.so:_ZN8MeshCore16MeshPlaneVisitorD2Ev
Mesh.so:_ZN8MeshCore16SphereSurfaceFit10InitializeERKNS_13MeshGeomFacetE
Mesh.so:_ZN8MeshCore16SphereSurfaceFit11AddTriangleERKNS_13MeshGeomFacetE
Mesh.so:_ZN8MeshCore16SphereSurfaceFit3FitEv
Mesh.so:_ZN8MeshCore16SphereSurfaceFitC1ERKN4Base7Vector3IfEEf
Mesh.so:_ZN8MeshCore16SphereSurfaceFitC1Ev
Mesh.so:_ZN8MeshCore16SphereSurfaceFitC2ERKN4Base7Vector3IfEEf
Mesh.so:_ZN8MeshCore16SphereSurfaceFitC2Ev
Mesh.so:_ZN8MeshCore16SphereSurfaceFitD0Ev
Mesh.so:_ZN8MeshCore16SphereSurfaceFitD1Ev
Mesh.so:_ZN8MeshCore16SphereSurfaceFitD2Ev
Mesh.so:_ZN8MeshCore17AbstractSmoothing10initializeENS0_9ComponentENS0_10ContinuityE
Mesh.so:_ZN8MeshCore17AbstractSmoothingC1ERNS_10MeshKernelE
Mesh.so:_ZN8MeshCore17AbstractSmoothingC2ERNS_10MeshKernelE
Mesh.so:_ZN8MeshCore17AbstractSmoothingD0Ev
Mesh.so:_ZN8MeshCore17AbstractSmoothingD1Ev
Mesh.so:_ZN8MeshCore17AbstractSmoothingD2Ev
Mesh.so:_ZN8MeshCore17MeshEvalNaNPoints8EvaluateEv
Mesh.so:_ZN8MeshCore17MeshFixRangeFacet5FixupEv
Mesh.so:_ZN8MeshCore17MeshFixRangePoint5FixupEv
Mesh.so:_ZN8MeshCore17MeshTopoAlgorithm10BeginCacheEv
Mesh.so:_ZN8MeshCore17MeshTopoAlgorithm10SnapVertexEmRKN4Base7Vector3IfEE
Mesh.so:_ZN8MeshCore17MeshTopoAlgorithm10SplitFacetEmRKN4Base7Vector3IfEES5_
Mesh.so:_ZN8MeshCore17MeshTopoAlgorithm11FillupHolesEiRNS_27AbstractPolygonTriangulatorERKNSt7__cxx114listISt6vectorImSaImEESaIS7_EEERS9_
Mesh.so:_ZN8MeshCore17MeshTopoAlgorithm11FillupHolesEmiRNS_27AbstractPolygonTriangulatorERNSt7__cxx114listISt6vectorImSaImEESaIS7_EEE
Mesh.so:_ZN8MeshCore17MeshTopoAlgorithm11FlipNormalsEv
Mesh.so:_ZN8MeshCore17MeshTopoAlgorithm12CollapseEdgeERKNS_12EdgeCollapseE
Mesh.so:_ZN8MeshCore17MeshTopoAlgorithm12CollapseEdgeEmm
Mesh.so:_ZN8MeshCore17MeshTopoAlgorithm12DelaunayFlipEf
Mesh.so:_ZN8MeshCore17MeshTopoAlgorithm12DelaunayFlipEv
Mesh.so:_ZN8MeshCore17MeshTopoAlgorithm12InsertVertexEmRKN4Base7Vector3IfEE
Mesh.so:_ZN8MeshCore17MeshTopoAlgorithm13CollapseFacetEm
Mesh.so:_ZN8MeshCore17MeshTopoAlgorithm13GetOrAddIndexERKNS_9MeshPointE
Mesh.so:_ZN8MeshCore17MeshTopoAlgorithm13SplitOpenEdgeEmtRKN4Base7Vector3IfEE
Mesh.so:_ZN8MeshCore17MeshTopoAlgorithm14CollapseVertexERKNS_14VertexCollapseE
Mesh.so:_ZN8MeshCore17MeshTopoAlgorithm14FindComponentsEmRSt6vectorImSaImEE
Mesh.so:_ZN8MeshCore17MeshTopoAlgorithm16HarmonizeNormalsEv
Mesh.so:_ZN8MeshCore17MeshTopoAlgorithm16OptimizeTopologyEf
Mesh.so:_ZN8MeshCore17MeshTopoAlgorithm16OptimizeTopologyEv
Mesh.so:_ZN8MeshCore17MeshTopoAlgorithm16RemoveComponentsEm
Mesh.so:_ZN8MeshCore17MeshTopoAlgorithm19SplitNeighbourFacetEmtN4Base7Vector3IfEE
Mesh.so:_ZN8MeshCore17MeshTopoAlgorithm20RemoveCorruptedFacetEm
Mesh.so:_ZN8MeshCore17MeshTopoAlgorithm22RemoveDegeneratedFacetEm
Mesh.so:_ZN8MeshCore17MeshTopoAlgorithm23InsertVertexAndSwapEdgeEmRKN4Base7Vector3IfEEf
Mesh.so:_ZN8MeshCore17MeshTopoAlgorithm31AdjustEdgesToCurvatureDirectionEv
Mesh.so:_ZN8MeshCore17MeshTopoAlgorithm7CleanupEv
Mesh.so:_ZN8MeshCore17MeshTopoAlgorithm8EndCacheEv
Mesh.so:_ZN8MeshCore17MeshTopoAlgorithm8SwapEdgeEmm
Mesh.so:_ZN8MeshCore17MeshTopoAlgorithm9SplitEdgeEmmRKN4Base7Vector3IfEE
Mesh.so:_ZN8MeshCore17MeshTopoAlgorithmC1ERNS_10MeshKernelE
Mesh.so:_ZN8MeshCore17MeshTopoAlgorithmC2ERNS_10MeshKernelE
Mesh.so:_ZN8MeshCore17MeshTopoAlgorithmD0Ev
Mesh.so:_ZN8MeshCore17MeshTopoAlgorithmD1Ev
Mesh.so:_ZN8MeshCore17MeshTopoAlgorithmD2Ev
Mesh.so:_ZN8MeshCore17PlaneFitSmoothing12SmoothPointsEjRKSt6vectorImSaImEE
Mesh.so:_ZN8MeshCore17PlaneFitSmoothing6SmoothEj
Mesh.so:_ZN8MeshCore17PlaneFitSmoothingC1ERNS_10MeshKernelE
Mesh.so:_ZN8MeshCore17PlaneFitSmoothingC2ERNS_10MeshKernelE
Mesh.so:_ZN8MeshCore17PlaneFitSmoothingD0Ev
Mesh.so:_ZN8MeshCore17PlaneFitSmoothingD1Ev
Mesh.so:_ZN8MeshCore17PlaneFitSmoothingD2Ev
Mesh.so:_ZN8MeshCore18CylinderSurfaceFit10InitializeERKNS_13MeshGeomFacetE
Mesh.so:_ZN8MeshCore18CylinderSurfaceFit11AddTriangleERKNS_13MeshGeomFacetE
Mesh.so:_ZN8MeshCore18CylinderSurfaceFit3FitEv
Mesh.so:_ZN8MeshCore18CylinderSurfaceFitC1ERKN4Base7Vector3IfEES5_f
Mesh.so:_ZN8MeshCore18CylinderSurfaceFitC1Ev
Mesh.so:_ZN8MeshCore18CylinderSurfaceFitC2ERKN4Base7Vector3IfEES5_f
Mesh.so:_ZN8MeshCore18CylinderSurfaceFitC2Ev
Mesh.so:_ZN8MeshCore18CylinderSurfaceFitD0Ev
Mesh.so:_ZN8MeshCore18CylinderSurfaceFitD1Ev
Mesh.so:_ZN8MeshCore18CylinderSurfaceFitD2Ev
Mesh.so:_ZN8MeshCore18MeshEvalRangeFacet8EvaluateEv
Mesh.so:_ZN8MeshCore18MeshEvalRangePoint8EvaluateEv
Mesh.so:_ZN8MeshCore18MeshFixMergeFacets5FixupEv
Mesh.so:_ZN8MeshCore18MeshFixOrientation5FixupEv
Mesh.so:_ZN8MeshCore18MeshFixOrientationC1ERNS_10MeshKernelE
Mesh.so:_ZN8MeshCore18MeshFixOrientationC2ERNS_10MeshKernelE
Mesh.so:_ZN8MeshCore18MeshFixOrientationD0Ev
Mesh.so:_ZN8MeshCore18MeshFixOrientationD1Ev
Mesh.so:_ZN8MeshCore18MeshFixOrientationD2Ev
Mesh.so:_ZN8MeshCore18MeshFixSingleFacet5FixupEv
Mesh.so:_ZN8MeshCore18MeshSurfaceSegment10AddSegmentERKSt6vectorImSaImEE
Mesh.so:_ZN8MeshCore18MeshSurfaceSegment10InitializeEm
Mesh.so:_ZN8MeshCore18MeshSurfaceSegment8AddFacetERKNS_9MeshFacetE
Mesh.so:_ZN8MeshCore18MeshSurfaceVisitor10AllowVisitERKNS_9MeshFacetES3_mmt
Mesh.so:_ZN8MeshCore18MeshSurfaceVisitor5VisitERKNS_9MeshFacetES3_mm
Mesh.so:_ZN8MeshCore18MeshSurfaceVisitorC1ERNS_18MeshSurfaceSegmentERSt6vectorImSaImEE
Mesh.so:_ZN8MeshCore18MeshSurfaceVisitorC2ERNS_18MeshSurfaceSegmentERSt6vectorImSaImEE
Mesh.so:_ZN8MeshCore18MeshSurfaceVisitorD0Ev
Mesh.so:_ZN8MeshCore18MeshSurfaceVisitorD1Ev
Mesh.so:_ZN8MeshCore18MeshSurfaceVisitorD2Ev
Mesh.so:_ZN8MeshCore19MeshEvalBorderFacet8EvaluateEv
Mesh.so:_ZN8MeshCore19MeshEvalOrientation8EvaluateEv
Mesh.so:_ZN8MeshCore19MeshEvalOrientationC1ERKNS_10MeshKernelE
Mesh.so:_ZN8MeshCore19MeshEvalOrientationC2ERKNS_10MeshKernelE
Mesh.so:_ZN8MeshCore19MeshEvalOrientationD0Ev
Mesh.so:_ZN8MeshCore19MeshEvalOrientationD1Ev
Mesh.so:_ZN8MeshCore19MeshEvalOrientationD2Ev
Mesh.so:_ZN8MeshCore19MeshEvalSingleFacet8EvaluateEv
Mesh.so:_ZN8MeshCore19MeshRefEdgeToFacets7RebuildEv
Mesh.so:_ZN8MeshCore20DelaunayTriangulator11TriangulateEv
Mesh.so:_ZN8MeshCore20DelaunayTriangulatorC1Ev
Mesh.so:_ZN8MeshCore20DelaunayTriangulatorC2Ev
Mesh.so:_ZN8MeshCore20DelaunayTriangulatorD0Ev
Mesh.so:_ZN8MeshCore20DelaunayTriangulatorD1Ev
Mesh.so:_ZN8MeshCore20DelaunayTriangulatorD2Ev
Mesh.so:_ZN8MeshCore20MeshFixNeighbourhood5FixupEv
Mesh.so:_ZN8MeshCore20MeshRefFacetToFacets7RebuildEv
Mesh.so:_ZN8MeshCore20MeshRefPointToFacets12AddNeighbourEmm
Mesh.so:_ZN8MeshCore20MeshRefPointToFacets15RemoveNeighbourEmm
Mesh.so:_ZN8MeshCore20MeshRefPointToFacets7RebuildEv
Mesh.so:_ZN8MeshCore20MeshRefPointToPoints12AddNeighbourEmm
Mesh.so:_ZN8MeshCore20MeshRefPointToPoints15RemoveNeighbourEmm
Mesh.so:_ZN8MeshCore20MeshRefPointToPoints7RebuildEv
Mesh.so:_ZN8MeshCore20MeshSearchNeighbours12ExpandRadiusEm
Mesh.so:_ZN8MeshCore20MeshSearchNeighbours15SampleAllFacetsEv
Mesh.so:_ZN8MeshCore20MeshSearchNeighbours19NeighboursFromFacetEmfmRSt6vectorIN4Base7Vector3IfEESaIS4_EE
Mesh.so:_ZN8MeshCore20MeshSearchNeighbours20AccumulateNeighboursERKNS_9MeshFacetEm
Mesh.so:_ZN8MeshCore20MeshSearchNeighbours24NeighboursFacetFromFacetEmfRSt6vectorIN4Base7Vector3IfEESaIS4_EERS1_ImSaImEE
Mesh.so:_ZN8MeshCore20MeshSearchNeighbours27NeighboursFromSampledFacetsEmfRSt6vectorIN4Base7Vector3IfEESaIS4_EE
Mesh.so:_ZN8MeshCore20MeshSearchNeighbours6ReinitEf
Mesh.so:_ZN8MeshCore20MeshSearchNeighboursC1ERKNS_10MeshKernelEf
Mesh.so:_ZN8MeshCore20MeshSearchNeighboursC2ERKNS_10MeshKernelEf
Mesh.so:_ZN8MeshCore20MeshSegmentAlgorithm12FindSegmentsERSt6vectorIPNS_18MeshSurfaceSegmentESaIS3_EE
Mesh.so:_ZN8MeshCore21MeshEvalNeighbourhood8EvaluateEv
Mesh.so:_ZN8MeshCore21MeshFixDeformedFacets5FixupEv
Mesh.so:_ZN8MeshCore21MeshFixDentsOnSurface5FixupEv
Mesh.so:_ZN8MeshCore21MeshRefNormalToPoints7RebuildEv
Mesh.so:_ZN8MeshCore22MeshEvalDeformedFacets8EvaluateEv
Mesh.so:_ZN8MeshCore22MeshEvalDentsOnSurface8EvaluateEv
Mesh.so:_ZN8MeshCore22MeshEvalFoldsOnSurface8EvaluateEv
Mesh.so:_ZN8MeshCore22MeshEvalInternalFacets8EvaluateEv
Mesh.so:_ZN8MeshCore22MeshEvalPointManifolds8EvaluateEv
Mesh.so:_ZN8MeshCore22MeshFixCorruptedFacets5FixupEv
Mesh.so:_ZN8MeshCore22MeshFixDuplicateFacets5FixupEv
Mesh.so:_ZN8MeshCore22MeshFixDuplicatePoints5FixupEv
Mesh.so:_ZN8MeshCore22MeshFixFoldsOnBoundary5FixupEv
Mesh.so:_ZN8MeshCore22MeshOrientationVisitor5VisitERKNS_9MeshFacetES3_mm
Mesh.so:_ZN8MeshCore22MeshOrientationVisitorC1Ev
Mesh.so:_ZN8MeshCore22MeshOrientationVisitorC2Ev
Mesh.so:_ZN8MeshCore23EarClippingTriangulator11Triangulate14InsideTriangleEffffffff
Mesh.so:_ZN8MeshCore23EarClippingTriangulator11Triangulate4AreaERKSt6vectorIN4Base7Vector3IfEESaIS5_EE
Mesh.so:_ZN8MeshCore23EarClippingTriangulator11Triangulate4SnipERKSt6vectorIN4Base7Vector3IfEESaIS5_EEiiiiPi
Mesh.so:_ZN8MeshCore23EarClippingTriangulator11Triangulate7ProcessERKSt6vectorIN4Base7Vector3IfEESaIS5_EERS2_ImSaImEE
Mesh.so:_ZN8MeshCore23EarClippingTriangulator11TriangulateEv
Mesh.so:_ZN8MeshCore23EarClippingTriangulatorC1Ev
Mesh.so:_ZN8MeshCore23EarClippingTriangulatorC2Ev
Mesh.so:_ZN8MeshCore23EarClippingTriangulatorD0Ev
Mesh.so:_ZN8MeshCore23EarClippingTriangulatorD1Ev
Mesh.so:_ZN8MeshCore23EarClippingTriangulatorD2Ev
Mesh.so:_ZN8MeshCore23MeshEvalCorruptedFacets8EvaluateEv
Mesh.so:_ZN8MeshCore23MeshEvalDuplicateFacets8EvaluateEv
Mesh.so:_ZN8MeshCore23MeshEvalDuplicatePoints8EvaluateEv
Mesh.so:_ZN8MeshCore23MeshEvalFoldsOnBoundary8EvaluateEv
Mesh.so:_ZN8MeshCore23MeshFixSelfIntersection5FixupEv
Mesh.so:_ZN8MeshCore23MeshPointFacetAdjacency21SetFacetNeighbourhoodEv
Mesh.so:_ZN8MeshCore23MeshPointFacetAdjacency5BuildEv
Mesh.so:_ZN8MeshCore23MeshPointFacetAdjacencyC1EmRNS_14MeshFacetArrayE
Mesh.so:_ZN8MeshCore23MeshPointFacetAdjacencyC2EmRNS_14MeshFacetArrayE
Mesh.so:_ZN8MeshCore23MeshPointFacetAdjacencyD1Ev
Mesh.so:_ZN8MeshCore23MeshPointFacetAdjacencyD2Ev
Mesh.so:_ZN8MeshCore24MeshEvalSelfIntersection8EvaluateEv
Mesh.so:_ZN8MeshCore24MeshFixDegeneratedFacets18RemoveEdgeTooSmallEff
Mesh.so:_ZN8MeshCore24MeshFixDegeneratedFacets5FixupEv
Mesh.so:_ZN8MeshCore24MeshOrientationCollector5VisitERKNS_9MeshFacetES3_mm
Mesh.so:_ZN8MeshCore24MeshOrientationCollectorC1ERSt6vectorImSaImEES4_
Mesh.so:_ZN8MeshCore24MeshOrientationCollectorC2ERSt6vectorImSaImEES4_
Mesh.so:_ZN8MeshCore25MeshDistancePlanarSegment10InitializeEm
Mesh.so:_ZN8MeshCore25MeshDistancePlanarSegment8AddFacetERKNS_9MeshFacetE
Mesh.so:_ZN8MeshCore25MeshDistancePlanarSegmentC1ERKNS_10MeshKernelEmf
Mesh.so:_ZN8MeshCore25MeshDistancePlanarSegmentC2ERKNS_10MeshKernelEmf
Mesh.so:_ZN8MeshCore25MeshDistancePlanarSegmentD0Ev
Mesh.so:_ZN8MeshCore25MeshDistancePlanarSegmentD1Ev
Mesh.so:_ZN8MeshCore25MeshDistancePlanarSegmentD2Ev
Mesh.so:_ZN8MeshCore25MeshEvalDegeneratedFacets8EvaluateEv
Mesh.so:_ZN8MeshCore25QuasiDelaunayTriangulator11TriangulateEv
Mesh.so:_ZN8MeshCore25QuasiDelaunayTriangulatorC1Ev
Mesh.so:_ZN8MeshCore25QuasiDelaunayTriangulatorC2Ev
Mesh.so:_ZN8MeshCore25QuasiDelaunayTriangulatorD0Ev
Mesh.so:_ZN8MeshCore25QuasiDelaunayTriangulatorD1Ev
Mesh.so:_ZN8MeshCore25QuasiDelaunayTriangulatorD2Ev
Mesh.so:_ZN8MeshCore26MeshEvalFoldOversOnSurface8EvaluateEv
Mesh.so:_ZN8MeshCore27AbstractPolygonTriangulator10SetPolygonERKSt6vectorIN4Base7Vector3IfEESaIS4_EE
Mesh.so:_ZN8MeshCore27AbstractPolygonTriangulator11SetVerifierEPNS_21TriangulationVerifierE
Mesh.so:_ZN8MeshCore27AbstractPolygonTriangulator14PostProcessingERKSt6vectorIN4Base7Vector3IfEESaIS4_EE
Mesh.so:_ZN8MeshCore27AbstractPolygonTriangulator17ProjectToFitPlaneEv
Mesh.so:_ZN8MeshCore27AbstractPolygonTriangulator18TriangulatePolygonEv
Mesh.so:_ZN8MeshCore27AbstractPolygonTriangulator4DoneEv
Mesh.so:_ZN8MeshCore27AbstractPolygonTriangulator5ResetEv
Mesh.so:_ZN8MeshCore27AbstractPolygonTriangulator7DiscardEv
Mesh.so:_ZN8MeshCore27AbstractPolygonTriangulatorC1Ev
Mesh.so:_ZN8MeshCore27AbstractPolygonTriangulatorC2Ev
Mesh.so:_ZN8MeshCore27AbstractPolygonTriangulatorD0Ev
Mesh.so:_ZN8MeshCore27AbstractPolygonTriangulatorD1Ev
Mesh.so:_ZN8MeshCore27AbstractPolygonTriangulatorD2Ev
Mesh.so:_ZN8MeshCore28MeshSameOrientationCollector5VisitERKNS_9MeshFacetES3_mm
Mesh.so:_ZN8MeshCore28MeshSameOrientationCollectorC1ERSt6vectorImSaImEE
Mesh.so:_ZN8MeshCore28MeshSameOrientationCollectorC2ERSt6vectorImSaImEE
Mesh.so:_ZN8MeshCore30ConstraintDelaunayTriangulator11TriangulateEv
Mesh.so:_ZN8MeshCore30ConstraintDelaunayTriangulatorC1Ef
Mesh.so:_ZN8MeshCore30ConstraintDelaunayTriangulatorC2Ef
Mesh.so:_ZN8MeshCore30ConstraintDelaunayTriangulatorD0Ev
Mesh.so:_ZN8MeshCore30ConstraintDelaunayTriangulatorD1Ev
Mesh.so:_ZN8MeshCore30ConstraintDelaunayTriangulatorD2Ev
Mesh.so:_ZN8MeshCore32MeshSearchNeighbourFacetsVisitorC1ERKNS_10MeshKernelEfm
Mesh.so:_ZN8MeshCore32MeshSearchNeighbourFacetsVisitorC2ERKNS_10MeshKernelEfm
Mesh.so:_ZN8MeshCore36MeshDistanceGenericSurfaceFitSegment10InitializeEm
Mesh.so:_ZN8MeshCore36MeshDistanceGenericSurfaceFitSegment8AddFacetERKNS_9MeshFacetE
Mesh.so:_ZN8MeshCore36MeshDistanceGenericSurfaceFitSegmentC1EPNS_18AbstractSurfaceFitERKNS_10MeshKernelEmf
Mesh.so:_ZN8MeshCore36MeshDistanceGenericSurfaceFitSegmentC2EPNS_18AbstractSurfaceFitERKNS_10MeshKernelEmf
Mesh.so:_ZN8MeshCore36MeshDistanceGenericSurfaceFitSegmentD0Ev
Mesh.so:_ZN8MeshCore36MeshDistanceGenericSurfaceFitSegmentD1Ev
Mesh.so:_ZN8MeshCore36MeshDistanceGenericSurfaceFitSegmentD2Ev
Mesh.so:_ZN8MeshCore8MeshGrid19CalculateGridLengthEi
Mesh.so:_ZN8MeshCore8MeshGrid19CalculateGridLengthEmm
Mesh.so:_ZN8MeshCore8MeshGrid5ClearEv
Mesh.so:_ZN8MeshCore8MeshGrid6AttachERKNS_10MeshKernelE
Mesh.so:_ZN8MeshCore8MeshGrid7RebuildEi
Mesh.so:_ZN8MeshCore8MeshGrid7RebuildEmm
Mesh.so:_ZN8MeshCore8MeshGrid7RebuildEmmm
Mesh.so:_ZN8MeshCore8MeshGrid8InitGridEv
Mesh.so:_ZN8MeshCore8MeshGridC1ERKNS_10MeshKernelE
Mesh.so:_ZN8MeshCore8MeshGridC1Ev
Mesh.so:_ZN8MeshCore8MeshGridC2ERKNS_10MeshKernelE
Mesh.so:_ZN8MeshCore8MeshGridC2Ev
Mesh.so:_ZN8MeshCore8MeshInfoC1ERKNS_10MeshKernelE
Mesh.so:_ZN8MeshCore8MeshInfoC2ERKNS_10MeshKernelE
Mesh.so:_ZN8MeshCore8PlaneFit14ProjectToPlaneEv
Mesh.so:_ZN8MeshCore8PlaneFit3FitEv
Mesh.so:_ZN8MeshCore8PlaneFitC1Ev
Mesh.so:_ZN8MeshCore8PlaneFitC2Ev
Mesh.so:_ZN8MeshCore8PlaneFitD0Ev
Mesh.so:_ZN8MeshCore8PlaneFitD1Ev
Mesh.so:_ZN8MeshCore8PlaneFitD2Ev
Mesh.so:_ZN8MeshCore9MeshInput10LoadFormatERSiNS_6MeshIO6FormatE
Mesh.so:_ZN8MeshCore9MeshInput11LoadNastranERSi
Mesh.so:_ZN8MeshCore9MeshInput12LoadAsciiSTLERSi
Mesh.so:_ZN8MeshCore9MeshInput12LoadInventorERSi
Mesh.so:_ZN8MeshCore9MeshInput12LoadMeshNodeERSi
Mesh.so:_ZN8MeshCore9MeshInput13LoadBinarySTLERSi
Mesh.so:_ZN8MeshCore9MeshInput14LoadCadmouldFEERSt14basic_ifstreamIcSt11char_traitsIcEE
Mesh.so:_ZN8MeshCore9MeshInput7LoadAnyEPKc
Mesh.so:_ZN8MeshCore9MeshInput7LoadOBJERSi
Mesh.so:_ZN8MeshCore9MeshInput7LoadOFFERSi
Mesh.so:_ZN8MeshCore9MeshInput7LoadPLYERSi
Mesh.so:_ZN8MeshCore9MeshInput7LoadSMFERSi
Mesh.so:_ZN8MeshCore9MeshInput7LoadSTLERSi
Mesh.so:_ZN8MeshCore9MeshInput7LoadXMLERN4Base9XMLReaderE
Mesh.so:_ZN8MeshCore9SphereFit15ProjectToSphereEv
Mesh.so:_ZN8MeshCore9SphereFit3FitEv
Mesh.so:_ZN8MeshCore9SphereFitC1Ev
Mesh.so:_ZN8MeshCore9SphereFitC2Ev
Mesh.so:_ZN8MeshCore9SphereFitD0Ev
Mesh.so:_ZN8MeshCore9SphereFitD1Ev
Mesh.so:_ZN8MeshCore9SphereFitD2Ev
Mesh.so:_ZN8Simplify11update_meshEi
Mesh.so:_ZN8Simplify12compact_meshEv
Mesh.so:_ZN8Simplify12vertex_errorE15SymmetricMatrixddd
Mesh.so:_ZN8Simplify13simplify_meshEidd
Mesh.so:_ZN8Simplify15calculate_errorEiiRN4Base7Vector3IfEE
Mesh.so:_ZN8Simplify16update_trianglesEiRNS_6VertexERSt6vectorIiSaIiEERi
Mesh.so:_ZN8Simplify7flippedEN4Base7Vector3IfEEiiRNS_6VertexES4_RSt6vectorIiSaIiEE
Mesh.so:_ZNK3App14FeatureCustomTIN4Mesh7FeatureEE15getPropertyDataEv
Mesh.so:_ZNK3App14FeatureCustomTIN4Mesh7FeatureEE9getTypeIdEv
Mesh.so:_ZNK3App14FeaturePythonTIN4Mesh7FeatureEE15getPropertyDataEv
Mesh.so:_ZNK3App14FeaturePythonTIN4Mesh7FeatureEE19getViewProviderNameEv
Mesh.so:_ZNK3App14FeaturePythonTIN4Mesh7FeatureEE9getTypeIdEv
Mesh.so:_ZNK3Wm414ETManifoldMesh8IsClosedEv
Mesh.so:_ZNK3Wm414VEManifoldMesh8IsClosedEv
Mesh.so:_ZNK4Mesh10FixDefects11mustExecuteEv
Mesh.so:_ZNK4Mesh10FixDefects15getPropertyDataEv
Mesh.so:_ZNK4Mesh10FixDefects9getTypeIdEv
Mesh.so:_ZNK4Mesh10FixIndices15getPropertyDataEv
Mesh.so:_ZNK4Mesh10FixIndices9getTypeIdEv
Mesh.so:_ZNK4Mesh10MeshObject10countEdgesEv
Mesh.so:_ZNK4Mesh10MeshObject10getMemSizeEv
Mesh.so:_ZNK4Mesh10MeshObject10getSegmentEm
Mesh.so:_ZNK4Mesh10MeshObject10getSurfaceEv
Mesh.so:_ZNK4Mesh10MeshObject11SaveDocFileERN4Base6WriterE
Mesh.so:_ZNK4Mesh10MeshObject11countFacetsEv
Mesh.so:_ZNK4Mesh10MeshObject11countPointsEv
Mesh.so:_ZNK4Mesh10MeshObject11getBoundBoxEv
Mesh.so:_ZNK4Mesh10MeshObject12getTransformEv
Mesh.so:_ZNK4Mesh10MeshObject12topologyInfoB5cxx11Ev
Mesh.so:_ZNK4Mesh10MeshObject13countSegmentsEv
Mesh.so:_ZNK4Mesh10MeshObject13crossSectionsERKSt6vectorISt4pairIN4Base7Vector3IfEES5_ESaIS6_EERS1_INSt7__cxx114listIS1_IS5_SaIS5_EESaISE_EEESaISG_EEfb
Mesh.so:_ZNK4Mesh10MeshObject13getComponentsEv
Mesh.so:_ZNK4Mesh10MeshObject13getSubElementEPKcm
Mesh.so:_ZNK4Mesh10MeshObject14getEigenSystemERN4Base7Vector3IdEE
Mesh.so:_ZNK4Mesh10MeshObject14getPointDegreeERKSt6vectorImSaImEERS3_
Mesh.so:_ZNK4Mesh10MeshObject14getPointNormalEm
Mesh.so:_ZNK4Mesh10MeshObject14representationB5cxx11Ev
Mesh.so:_ZNK4Mesh10MeshObject15countComponentsEv
Mesh.so:_ZNK4Mesh10MeshObject15getElementTypesEv
Mesh.so:_ZNK4Mesh10MeshObject15getPointNormalsEv
Mesh.so:_ZNK4Mesh10MeshObject15hasNonManifoldsEv
Mesh.so:_ZNK4Mesh10MeshObject15meshFromSegmentERKSt6vectorImSaImEE
Mesh.so:_ZNK4Mesh10MeshObject16countSubElementsEPKc
Mesh.so:_ZNK4Mesh10MeshObject16hasInvalidPointsEv
Mesh.so:_ZNK4Mesh10MeshObject17getSegmentsOfTypeENS0_12GeometryTypeEfm
Mesh.so:_ZNK4Mesh10MeshObject17hasSelectedFacetsEv
Mesh.so:_ZNK4Mesh10MeshObject17hasSelectedPointsEv
Mesh.so:_ZNK4Mesh10MeshObject19clearFacetSelectionEv
Mesh.so:_ZNK4Mesh10MeshObject19clearPointSelectionEv
Mesh.so:_ZNK4Mesh10MeshObject19countSelectedFacetsEv
Mesh.so:_ZNK4Mesh10MeshObject19countSelectedPointsEv
Mesh.so:_ZNK4Mesh10MeshObject19getPointsFromFacetsERKSt6vectorImSaImEE
Mesh.so:_ZNK4Mesh10MeshObject20addFacetsToSelectionERKSt6vectorImSaImEE
Mesh.so:_ZNK4Mesh10MeshObject20addPointsToSelectionERKSt6vectorImSaImEE
Mesh.so:_ZNK4Mesh10MeshObject20const_facet_iteratoreqERKS1_
Mesh.so:_ZNK4Mesh10MeshObject20const_facet_iteratorneERKS1_
Mesh.so:_ZNK4Mesh10MeshObject20const_point_iteratoreqERKS1_
Mesh.so:_ZNK4Mesh10MeshObject20const_point_iteratorneERKS1_
Mesh.so:_ZNK4Mesh10MeshObject20hasSelfIntersectionsEv
Mesh.so:_ZNK4Mesh10MeshObject22getFacesFromSubelementEPKN4Data7SegmentERSt6vectorIN4Base7Vector3IdEESaIS8_EESB_RS5_INS1_14ComplexGeoData5FacetESaISD_EE
Mesh.so:_ZNK4Mesh10MeshObject22getFacetsFromSelectionERSt6vectorImSaImEE
Mesh.so:_ZNK4Mesh10MeshObject22getPointsFromSelectionERSt6vectorImSaImEE
Mesh.so:_ZNK4Mesh10MeshObject25removeFacetsFromSelectionERKSt6vectorImSaImEE
Mesh.so:_ZNK4Mesh10MeshObject25removePointsFromSelectionERKSt6vectorImSaImEE
Mesh.so:_ZNK4Mesh10MeshObject29countNonUniformOrientedFacetsEv
Mesh.so:_ZNK4Mesh10MeshObject4SaveERN4Base6WriterE
Mesh.so:_ZNK4Mesh10MeshObject4saveEPKcN8MeshCore6MeshIO6FormatEPKNS3_8MaterialES2_
Mesh.so:_ZNK4Mesh10MeshObject4saveERSo
Mesh.so:_ZNK4Mesh10MeshObject4saveERSoN8MeshCore6MeshIO6FormatEPKNS2_8MaterialEPKc
Mesh.so:_ZNK4Mesh10MeshObject5innerERKS0_
Mesh.so:_ZNK4Mesh10MeshObject5outerERKS0_
Mesh.so:_ZNK4Mesh10MeshObject5uniteERKS0_
Mesh.so:_ZNK4Mesh10MeshObject7isSolidEv
Mesh.so:_ZNK4Mesh10MeshObject8getFacesERSt6vectorIN4Base7Vector3IdEESaIS4_EERS1_IN4Data14ComplexGeoData5FacetESaISA_EEft
Mesh.so:_ZNK4Mesh10MeshObject8getFacetEm
Mesh.so:_ZNK4Mesh10MeshObject8getPointEm
Mesh.so:_ZNK4Mesh10MeshObject8subtractERKS0_
Mesh.so:_ZNK4Mesh10MeshObject9getPointsERSt6vectorIN4Base7Vector3IdEESaIS4_EES7_ft
Mesh.so:_ZNK4Mesh10MeshObject9getTypeIdEv
Mesh.so:_ZNK4Mesh10MeshObject9getVolumeEv
Mesh.so:_ZNK4Mesh10MeshObject9intersectERKS0_
Mesh.so:_ZNK4Mesh11FlipNormals15getPropertyDataEv
Mesh.so:_ZNK4Mesh11FlipNormals9getTypeIdEv
Mesh.so:_ZNK4Mesh11MeshPointPy14representationB5cxx11Ev
Mesh.so:_ZNK4Mesh11MeshPointPy15getMeshPointPtrEv
Mesh.so:_ZNK4Mesh11MeshPointPy19getCustomAttributesEPKc
Mesh.so:_ZNK4Mesh11MeshPointPy4getxEv
Mesh.so:_ZNK4Mesh11MeshPointPy4getyEv
Mesh.so:_ZNK4Mesh11MeshPointPy4getzEv
Mesh.so:_ZNK4Mesh11MeshPointPy8getBoundEv
Mesh.so:_ZNK4Mesh11MeshPointPy8getIndexEv
Mesh.so:_ZNK4Mesh11MeshPointPy9getNormalEv
Mesh.so:_ZNK4Mesh11MeshPointPy9getVectorEv
Mesh.so:_ZNK4Mesh13MeshFeaturePy13getFeaturePtrEv
Mesh.so:_ZNK4Mesh13MeshFeaturePy14representationB5cxx11Ev
Mesh.so:_ZNK4Mesh13MeshFeaturePy19getCustomAttributesEPKc
Mesh.so:_ZNK4Mesh13SegmentByMesh11mustExecuteEv
Mesh.so:_ZNK4Mesh13SegmentByMesh15getPropertyDataEv
Mesh.so:_ZNK4Mesh13SegmentByMesh9getTypeIdEv
Mesh.so:_ZNK4Mesh13SetOperations11mustExecuteEv
Mesh.so:_ZNK4Mesh13SetOperations15getPropertyDataEv
Mesh.so:_ZNK4Mesh13SetOperations9getTypeIdEv
Mesh.so:_ZNK4Mesh15FixDeformations15getPropertyDataEv
Mesh.so:_ZNK4Mesh15FixDeformations9getTypeIdEv
Mesh.so:_ZNK4Mesh15FixNonManifolds15getPropertyDataEv
Mesh.so:_ZNK4Mesh15FixNonManifolds9getTypeIdEv
Mesh.so:_ZNK4Mesh16FixDegenerations15getPropertyDataEv
Mesh.so:_ZNK4Mesh16FixDegenerations9getTypeIdEv
Mesh.so:_ZNK4Mesh16HarmonizeNormals15getPropertyDataEv
Mesh.so:_ZNK4Mesh16HarmonizeNormals9getTypeIdEv
Mesh.so:_ZNK4Mesh16RemoveComponents15getPropertyDataEv
Mesh.so:_ZNK4Mesh16RemoveComponents9getTypeIdEv
Mesh.so:_ZNK4Mesh18FixDuplicatedFaces15getPropertyDataEv
Mesh.so:_ZNK4Mesh18FixDuplicatedFaces9getTypeIdEv
Mesh.so:_ZNK4Mesh18PropertyMeshKernel10getMemSizeEv
Mesh.so:_ZNK4Mesh18PropertyMeshKernel11SaveDocFileERN4Base6WriterE
Mesh.so:_ZNK4Mesh18PropertyMeshKernel11getValuePtrEv
Mesh.so:_ZNK4Mesh18PropertyMeshKernel14getBoundingBoxEv
Mesh.so:_ZNK4Mesh18PropertyMeshKernel14getComplexDataEv
Mesh.so:_ZNK4Mesh18PropertyMeshKernel4CopyEv
Mesh.so:_ZNK4Mesh18PropertyMeshKernel4SaveERN4Base6WriterE
Mesh.so:_ZNK4Mesh18PropertyMeshKernel8getValueEv
Mesh.so:_ZNK4Mesh18PropertyMeshKernel9getTypeIdEv
Mesh.so:_ZNK4Mesh18PropertyNormalList10getMemSizeEv
Mesh.so:_ZNK4Mesh18PropertyNormalList11SaveDocFileERN4Base6WriterE
Mesh.so:_ZNK4Mesh18PropertyNormalList4CopyEv
Mesh.so:_ZNK4Mesh18PropertyNormalList4SaveERN4Base6WriterE
Mesh.so:_ZNK4Mesh18PropertyNormalList7getSizeEv
Mesh.so:_ZNK4Mesh18PropertyNormalList9getTypeIdEv
Mesh.so:_ZNK4Mesh18TransformDemolding15getPropertyDataEv
Mesh.so:_ZNK4Mesh18TransformDemolding9getTypeIdEv
Mesh.so:_ZNK4Mesh19FixDuplicatedPoints15getPropertyDataEv
Mesh.so:_ZNK4Mesh19FixDuplicatedPoints9getTypeIdEv
Mesh.so:_ZNK4Mesh21PropertyCurvatureList11SaveDocFileERN4Base6WriterE
Mesh.so:_ZNK4Mesh21PropertyCurvatureList12getCurvatureEi
Mesh.so:_ZNK4Mesh21PropertyCurvatureList4CopyEv
Mesh.so:_ZNK4Mesh21PropertyCurvatureList4SaveERN4Base6WriterE
Mesh.so:_ZNK4Mesh21PropertyCurvatureList9getTypeIdEv
Mesh.so:_ZNK4Mesh4Cone11mustExecuteEv
Mesh.so:_ZNK4Mesh4Cone15getPropertyDataEv
Mesh.so:_ZNK4Mesh4Cone9getTypeIdEv
Mesh.so:_ZNK4Mesh4Cube11mustExecuteEv
Mesh.so:_ZNK4Mesh4Cube15getPropertyDataEv
Mesh.so:_ZNK4Mesh4Cube9getTypeIdEv
Mesh.so:_ZNK4Mesh5Torus11mustExecuteEv
Mesh.so:_ZNK4Mesh5Torus15getPropertyDataEv
Mesh.so:_ZNK4Mesh5Torus9getTypeIdEv
Mesh.so:_ZNK4Mesh6Export11mustExecuteEv
Mesh.so:_ZNK4Mesh6Export15getPropertyDataEv
Mesh.so:_ZNK4Mesh6Export9getTypeIdEv
Mesh.so:_ZNK4Mesh6Import11mustExecuteEv
Mesh.so:_ZNK4Mesh6Import15getPropertyDataEv
Mesh.so:_ZNK4Mesh6Import9getTypeIdEv
Mesh.so:_ZNK4Mesh6MeshPy11getTopologyEv
Mesh.so:_ZNK4Mesh6MeshPy13getCountEdgesEv
Mesh.so:_ZNK4Mesh6MeshPy14getCountFacetsEv
Mesh.so:_ZNK4Mesh6MeshPy14getCountPointsEv
Mesh.so:_ZNK4Mesh6MeshPy14representationB5cxx11Ev
Mesh.so:_ZNK4Mesh6MeshPy16getMeshObjectPtrEv
Mesh.so:_ZNK4Mesh6MeshPy19getCustomAttributesEPKc
Mesh.so:_ZNK4Mesh6MeshPy7getAreaEv
Mesh.so:_ZNK4Mesh6MeshPy9getFacetsEv
Mesh.so:_ZNK4Mesh6MeshPy9getPointsEv
Mesh.so:_ZNK4Mesh6MeshPy9getVolumeEv
Mesh.so:_ZNK4Mesh6Sphere11mustExecuteEv
Mesh.so:_ZNK4Mesh6Sphere15getPropertyDataEv
Mesh.so:_ZNK4Mesh6Sphere9getTypeIdEv
Mesh.so:_ZNK4Mesh7FacetPy11getFacetPtrEv
Mesh.so:_ZNK4Mesh7FacetPy14representationB5cxx11Ev
Mesh.so:_ZNK4Mesh7FacetPy15getPointIndicesEv
Mesh.so:_ZNK4Mesh7FacetPy19getCustomAttributesEPKc
Mesh.so:_ZNK4Mesh7FacetPy19getNeighbourIndicesEv
Mesh.so:_ZNK4Mesh7FacetPy7getAreaEv
Mesh.so:_ZNK4Mesh7FacetPy8getBoundEv
Mesh.so:_ZNK4Mesh7FacetPy8getIndexEv
Mesh.so:_ZNK4Mesh7FacetPy9getNormalEv
Mesh.so:_ZNK4Mesh7FacetPy9getPointsEv
Mesh.so:_ZNK4Mesh7Feature15getPropertyDataEv
Mesh.so:_ZNK4Mesh7Feature9getTypeIdEv
Mesh.so:_ZNK4Mesh7Segment10getIndicesEv
Mesh.so:_ZNK4Mesh7Segment20const_facet_iteratordeEv
Mesh.so:_ZNK4Mesh7Segment20const_facet_iteratoreqERKS1_
Mesh.so:_ZNK4Mesh7Segment20const_facet_iteratorneERKS1_
Mesh.so:_ZNK4Mesh7Segment20const_facet_iteratorptEv
Mesh.so:_ZNK4Mesh7SegmenteqERKS0_
Mesh.so:_ZNK4Mesh8Cylinder11mustExecuteEv
Mesh.so:_ZNK4Mesh8Cylinder15getPropertyDataEv
Mesh.so:_ZNK4Mesh8Cylinder9getTypeIdEv
Mesh.so:_ZNK4Mesh9Curvature11mustExecuteEv
Mesh.so:_ZNK4Mesh9Curvature15getPropertyDataEv
Mesh.so:_ZNK4Mesh9Curvature9getTypeIdEv
Mesh.so:_ZNK4Mesh9Ellipsoid11mustExecuteEv
Mesh.so:_ZNK4Mesh9Ellipsoid15getPropertyDataEv
Mesh.so:_ZNK4Mesh9Ellipsoid9getTypeIdEv
Mesh.so:_ZNK4Mesh9FillHoles15getPropertyDataEv
Mesh.so:_ZNK4Mesh9FillHoles9getTypeIdEv
Mesh.so:_ZNK4Mesh9Transform15getPropertyDataEv
Mesh.so:_ZNK4Mesh9Transform9getTypeIdEv
Mesh.so:_ZNK8MeshCore10MeshKDTree11FindInRangeERKN4Base7Vector3IfEEfRSt6vectorImSaImEE
Mesh.so:_ZNK8MeshCore10MeshKDTree11FindNearestERKN4Base7Vector3IfEERS3_Rf
Mesh.so:_ZNK8MeshCore10MeshKDTree11FindNearestERKN4Base7Vector3IfEEfRS3_Rf
Mesh.so:_ZNK8MeshCore10MeshKDTree7IsEmptyEv
Mesh.so:_ZNK8MeshCore10MeshKDTree9FindExactERKN4Base7Vector3IfEE
Mesh.so:_ZNK8MeshCore10MeshKernel10CountEdgesEv
Mesh.so:_ZNK8MeshCore10MeshKernel10GetSurfaceERKSt6vectorImSaImEE
Mesh.so:_ZNK8MeshCore10MeshKernel10GetSurfaceEv
Mesh.so:_ZNK8MeshCore10MeshKernel12HasOpenEdgesEv
Mesh.so:_ZNK8MeshCore10MeshKernel13FacetIteratorEv
Mesh.so:_ZNK8MeshCore10MeshKernel13PointIteratorEv
Mesh.so:_ZNK8MeshCore10MeshKernel14GetFacetPointsERKSt6vectorImSaImEE
Mesh.so:_ZNK8MeshCore10MeshKernel15HasNonManifoldsEv
Mesh.so:_ZNK8MeshCore10MeshKernel17CalcVertexNormalsEv
Mesh.so:_ZNK8MeshCore10MeshKernel20HasSelfIntersectionsEv
Mesh.so:_ZNK8MeshCore10MeshKernel20VisitNeighbourFacetsERNS_16MeshFacetVisitorEm
Mesh.so:_ZNK8MeshCore10MeshKernel20VisitNeighbourPointsERNS_16MeshPointVisitorEm
Mesh.so:_ZNK8MeshCore10MeshKernel31VisitNeighbourFacetsOverCornersERNS_16MeshFacetVisitorEm
Mesh.so:_ZNK8MeshCore10MeshKernel5WriteERSo
Mesh.so:_ZNK8MeshCore10MeshKernel8GetEdgesERSt6vectorINS_12MeshGeomEdgeESaIS2_EE
Mesh.so:_ZNK8MeshCore10MeshKernel9GetFacetsERKSt6vectorImSaImEE
Mesh.so:_ZNK8MeshCore10MeshKernel9GetPointsERKSt6vectorImSaImEE
Mesh.so:_ZNK8MeshCore10MeshKernel9GetVolumeEv
Mesh.so:_ZNK8MeshCore10MeshKernel9HasFacetsERKNS_17MeshPointIteratorE
Mesh.so:_ZNK8MeshCore10MeshOutput10SaveFormatERSoNS_6MeshIO6FormatE
Mesh.so:_ZNK8MeshCore10MeshOutput10SavePythonERSo
Mesh.so:_ZNK8MeshCore10MeshOutput11SaveNastranERSo
Mesh.so:_ZNK8MeshCore10MeshOutput12SaveAsciiPLYERSo
Mesh.so:_ZNK8MeshCore10MeshOutput12SaveAsciiSTLERSo
Mesh.so:_ZNK8MeshCore10MeshOutput12SaveInventorERSo
Mesh.so:_ZNK8MeshCore10MeshOutput13SaveBinaryPLYERSo
Mesh.so:_ZNK8MeshCore10MeshOutput13SaveBinarySTLERSo
Mesh.so:_ZNK8MeshCore10MeshOutput14SaveCadmouldFEERSo
Mesh.so:_ZNK8MeshCore10MeshOutput7SaveAnyEPKcNS_6MeshIO6FormatE
Mesh.so:_ZNK8MeshCore10MeshOutput7SaveMGLERSo
Mesh.so:_ZNK8MeshCore10MeshOutput7SaveMTLERSo
Mesh.so:_ZNK8MeshCore10MeshOutput7SaveOBJERSo
Mesh.so:_ZNK8MeshCore10MeshOutput7SaveOFFERSo
Mesh.so:_ZNK8MeshCore10MeshOutput7SaveSMFERSo
Mesh.so:_ZNK8MeshCore10MeshOutput7SaveX3DERSo
Mesh.so:_ZNK8MeshCore10MeshOutput7SaveXMLERN4Base6WriterE
Mesh.so:_ZNK8MeshCore10MeshOutput8SaveIDTFERSo
Mesh.so:_ZNK8MeshCore10MeshOutput8SaveVRMLERSo
Mesh.so:_ZNK8MeshCore10SurfaceFit15GetCoefficientsERdS1_S1_S1_S1_S1_
Mesh.so:_ZNK8MeshCore10SurfaceFit5ValueEdd
Mesh.so:_ZNK8MeshCore11CylinderFit15GetStdDeviationEv
Mesh.so:_ZNK8MeshCore11CylinderFit21GetDistanceToCylinderERKN4Base7Vector3IfEE
Mesh.so:_ZNK8MeshCore11CylinderFit7GetAxisEv
Mesh.so:_ZNK8MeshCore11CylinderFit7GetBaseEv
Mesh.so:_ZNK8MeshCore11CylinderFit9GetRadiusEv
Mesh.so:_ZNK8MeshCore12MeshGeomEdge11GetBoundBoxEv
Mesh.so:_ZNK8MeshCore12MeshGeomEdge20IntersectBoundingBoxERKN4Base9BoundBox3IfEE
Mesh.so:_ZNK8MeshCore12MeshGeomEdge33ContainedByOrIntersectBoundingBoxERKN4Base9BoundBox3IfEE
Mesh.so:_ZNK8MeshCore12MeshTrimming11CheckFacetsERKNS_13MeshFacetGridERSt6vectorImSaImEE
Mesh.so:_ZNK8MeshCore12MeshTrimming15HasIntersectionERKNS_13MeshGeomFacetE
Mesh.so:_ZNK8MeshCore12MeshTrimming28PolygonContainsCompleteFacetEbm
Mesh.so:_ZNK8MeshCore12MeshTrimming38GetIntersectionPointsOfPolygonAndFacetEmRiRSt6vectorIN4Base7Vector3IfEESaIS5_EE
Mesh.so:_ZNK8MeshCore12QuadraticFit11CalcZValuesEddRdS1_
Mesh.so:_ZNK8MeshCore12QuadraticFit13GetCoeffArrayEv
Mesh.so:_ZNK8MeshCore12QuadraticFit15CalcEigenValuesERdS1_S1_RN4Base7Vector3IfEES5_S5_
Mesh.so:_ZNK8MeshCore12QuadraticFit8GetCoeffEm
Mesh.so:_ZNK8MeshCore13Approximation10GetGravityEv
Mesh.so:_ZNK8MeshCore13Approximation11CountPointsEv
Mesh.so:_ZNK8MeshCore13Approximation13GetLastResultEv
Mesh.so:_ZNK8MeshCore13Approximation17GetMgcVectorArrayERSt6vectorIN3Wm47Vector3IdEESaIS4_EE
Mesh.so:_ZNK8MeshCore13Approximation4DoneEv
Mesh.so:_ZNK8MeshCore13MeshAlgorithm10FillupHoleERKSt6vectorImSaImEERNS_27AbstractPolygonTriangulatorERNS_14MeshFacetArrayERNS_14MeshPointArrayEiPKNS_20MeshRefPointToFacetsE
Mesh.so:_ZNK8MeshCore13MeshAlgorithm11CheckFacetsEPKN4Base14ViewProjMethodERKNS1_9Polygon2dEbRSt6vectorImSaImEE
Mesh.so:_ZNK8MeshCore13MeshAlgorithm11CheckFacetsERKNS_13MeshFacetGridEPKN4Base14ViewProjMethodERKNS4_9Polygon2dEbRSt6vectorImSaImEE
Mesh.so:_ZNK8MeshCore13MeshAlgorithm12ConnectLinesERNSt7__cxx114listISt4pairIN4Base7Vector3IfEES6_ESaIS7_EEERNS2_ISt6vectorIS6_SaIS6_EESaISD_EEEf
Mesh.so:_ZNK8MeshCore13MeshAlgorithm12CutWithPlaneERKN4Base7Vector3IfEES5_RKNS_13MeshFacetGridERNSt7__cxx114listISt6vectorIS3_SaIS3_EESaISD_EEEfb
Mesh.so:_ZNK8MeshCore13MeshAlgorithm12SetFacetFlagENS_9MeshFacet9TFlagTypeE
Mesh.so:_ZNK8MeshCore13MeshAlgorithm12SetPointFlagENS_9MeshPoint9TFlagTypeE
Mesh.so:_ZNK8MeshCore13MeshAlgorithm13GetFacetsFlagERSt6vectorImSaImEENS_9MeshFacet9TFlagTypeE
Mesh.so:_ZNK8MeshCore13MeshAlgorithm13GetMeshBorderEmRNSt7__cxx114listImSaImEEE
Mesh.so:_ZNK8MeshCore13MeshAlgorithm13GetPointsFlagERSt6vectorImSaImEENS_9MeshPoint9TFlagTypeE
Mesh.so:_ZNK8MeshCore13MeshAlgorithm13SetFacetsFlagERKSt6vectorImSaImEENS_9MeshFacet9TFlagTypeE
Mesh.so:_ZNK8MeshCore13MeshAlgorithm13SetPointsFlagERKSt6vectorImSaImEENS_9MeshPoint9TFlagTypeE
Mesh.so:_ZNK8MeshCore13MeshAlgorithm14CountFacetFlagENS_9MeshFacet9TFlagTypeE
Mesh.so:_ZNK8MeshCore13MeshAlgorithm14CountPointFlagENS_9MeshPoint9TFlagTypeE
Mesh.so:_ZNK8MeshCore13MeshAlgorithm14GetMeshBordersERNSt7__cxx114listISt6vectorIN4Base7Vector3IfEESaIS6_EESaIS8_EEE
Mesh.so:_ZNK8MeshCore13MeshAlgorithm14GetMeshBordersERNSt7__cxx114listISt6vectorImSaImEESaIS5_EEE
Mesh.so:_ZNK8MeshCore13MeshAlgorithm14ResetFacetFlagENS_9MeshFacet9TFlagTypeE
Mesh.so:_ZNK8MeshCore13MeshAlgorithm14ResetPointFlagENS_9MeshPoint9TFlagTypeE
Mesh.so:_ZNK8MeshCore13MeshAlgorithm15ConnectPolygonsERNSt7__cxx114listISt6vectorIN4Base7Vector3IfEESaIS6_EESaIS8_EEERNS2_ISt4pairIS6_S6_ESaISD_EEE
Mesh.so:_ZNK8MeshCore13MeshAlgorithm15CutBorderFacetsERSt6vectorImSaImEEt
Mesh.so:_ZNK8MeshCore13MeshAlgorithm15GetBorderPointsERKSt6vectorImSaImEERSt3setImSt4lessImES2_E
Mesh.so:_ZNK8MeshCore13MeshAlgorithm15GetFacetBordersERKSt6vectorImSaImEERNSt7__cxx114listIS1_IN4Base7Vector3IfEESaISA_EESaISC_EEE
Mesh.so:_ZNK8MeshCore13MeshAlgorithm15GetFacetBordersERKSt6vectorImSaImEERNSt7__cxx114listIS3_SaIS3_EEEb
Mesh.so:_ZNK8MeshCore13MeshAlgorithm15GetGravityPointEv
Mesh.so:_ZNK8MeshCore13MeshAlgorithm15IsVertexVisibleERKN4Base7Vector3IfEES5_RKNS_13MeshFacetGridE
Mesh.so:_ZNK8MeshCore13MeshAlgorithm15RayNearestFieldERKN4Base7Vector3IfEES5_RKSt6vectorImSaImEERS3_Rmf
Mesh.so:_ZNK8MeshCore13MeshAlgorithm15ResetFacetsFlagERKSt6vectorImSaImEENS_9MeshFacet9TFlagTypeE
Mesh.so:_ZNK8MeshCore13MeshAlgorithm15ResetPointsFlagERKSt6vectorImSaImEENS_9MeshPoint9TFlagTypeE
Mesh.so:_ZNK8MeshCore13MeshAlgorithm15SubSampleByDistEfRSt6vectorIN4Base7Vector3IfEESaIS4_EE
Mesh.so:_ZNK8MeshCore13MeshAlgorithm16CountBorderEdgesEv
Mesh.so:_ZNK8MeshCore13MeshAlgorithm16SubSampleByCountEmRSt6vectorIN4Base7Vector3IfEESaIS4_EE
Mesh.so:_ZNK8MeshCore13MeshAlgorithm17CheckBorderFacetsERKSt6vectorImSaImEERS3_t
Mesh.so:_ZNK8MeshCore13MeshAlgorithm17NearestFacetOnRayERKN4Base7Vector3IfEES5_RKNS_13MeshFacetGridERS3_Rm
Mesh.so:_ZNK8MeshCore13MeshAlgorithm17NearestFacetOnRayERKN4Base7Vector3IfEES5_RKSt6vectorImSaImEERS3_Rm
Mesh.so:_ZNK8MeshCore13MeshAlgorithm17NearestFacetOnRayERKN4Base7Vector3IfEES5_RS3_Rm
Mesh.so:_ZNK8MeshCore13MeshAlgorithm17NearestFacetOnRayERKN4Base7Vector3IfEES5_fRKNS_13MeshFacetGridERS3_Rm
Mesh.so:_ZNK8MeshCore13MeshAlgorithm17SetFacetsPropertyERKSt6vectorImSaImEES5_
Mesh.so:_ZNK8MeshCore13MeshAlgorithm18FirstFacetToVertexERKN4Base7Vector3IfEEfRKNS_13MeshFacetGridERm
Mesh.so:_ZNK8MeshCore13MeshAlgorithm18GetFacetsFromPlaneERKNS_13MeshFacetGridERKN4Base7Vector3IfEEfS8_S8_RSt6vectorImSaImEE
Mesh.so:_ZNK8MeshCore13MeshAlgorithm18SubSampleAllPointsERSt6vectorIN4Base7Vector3IfEESaIS4_EE
Mesh.so:_ZNK8MeshCore13MeshAlgorithm20GetAverageEdgeLengthEv
Mesh.so:_ZNK8MeshCore13MeshAlgorithm21GetFacetsFromToolMeshERKNS_10MeshKernelERKN4Base7Vector3IfEERKNS_13MeshFacetGridERSt6vectorImSaImEE
Mesh.so:_ZNK8MeshCore13MeshAlgorithm21GetFacetsFromToolMeshERKNS_10MeshKernelERKN4Base7Vector3IfEERSt6vectorImSaImEE
Mesh.so:_ZNK8MeshCore13MeshAlgorithm21NearestPointFromPointERKN4Base7Vector3IfEERKNS_13MeshFacetGridERmRS3_
Mesh.so:_ZNK8MeshCore13MeshAlgorithm21NearestPointFromPointERKN4Base7Vector3IfEERKNS_13MeshFacetGridEfRmRS3_
Mesh.so:_ZNK8MeshCore13MeshAlgorithm21NearestPointFromPointERKN4Base7Vector3IfEERmRS3_
Mesh.so:_ZNK8MeshCore13MeshAlgorithm23PointsFromFacetsIndicesERKSt6vectorImSaImEERS1_IN4Base7Vector3IfEESaIS8_EE
Mesh.so:_ZNK8MeshCore13MeshAlgorithm24SearchFacetsFromPolylineERKSt6vectorIN4Base7Vector3IfEESaIS4_EEfRKNS_13MeshFacetGridERS1_ImSaImEE
Mesh.so:_ZNK8MeshCore13MeshAlgorithm26CalculateMinimumGridLengthEfRKN4Base9BoundBox3IfEEm
Mesh.so:_ZNK8MeshCore13MeshAlgorithm7SurfaceEv
Mesh.so:_ZNK8MeshCore13MeshAlgorithm8DistanceERKN4Base7Vector3IfEEmfRf
Mesh.so:_ZNK8MeshCore13MeshFacetGrid22SearchNearestFromPointERKN4Base7Vector3IfEE
Mesh.so:_ZNK8MeshCore13MeshFacetGrid22SearchNearestFromPointERKN4Base7Vector3IfEEf
Mesh.so:_ZNK8MeshCore13MeshFacetGrid24SearchNearestFacetInGridEmmmRKN4Base7Vector3IfEERfRm
Mesh.so:_ZNK8MeshCore13MeshFacetGrid24SearchNearestFacetInHullEmmmmRKN4Base7Vector3IfEERmRf
Mesh.so:_ZNK8MeshCore13MeshFacetGrid6VerifyEv
Mesh.so:_ZNK8MeshCore13MeshGeomFacet10ForaminateERKN4Base7Vector3IfEES5_RS3_f
Mesh.so:_ZNK8MeshCore13MeshGeomFacet10IsDeformedEff
Mesh.so:_ZNK8MeshCore13MeshGeomFacet12MaximumAngleEv
Mesh.so:_ZNK8MeshCore13MeshGeomFacet13IsDegeneratedEf
Mesh.so:_ZNK8MeshCore13MeshGeomFacet13IsPointOfFaceERKN4Base7Vector3IfEEf
Mesh.so:_ZNK8MeshCore13MeshGeomFacet13VolumeOfPrismERKS0_
Mesh.so:_ZNK8MeshCore13MeshGeomFacet15DistanceToPointERKN4Base7Vector3IfEERS3_
Mesh.so:_ZNK8MeshCore13MeshGeomFacet15IsPointOfSphereERKN4Base7Vector3IfEE
Mesh.so:_ZNK8MeshCore13MeshGeomFacet15IsPointOfSphereERKS0_
Mesh.so:_ZNK8MeshCore13MeshGeomFacet17IntersectWithLineERKN4Base7Vector3IfEES5_RS3_
Mesh.so:_ZNK8MeshCore13MeshGeomFacet18IntersectWithFacetERKS0_
Mesh.so:_ZNK8MeshCore13MeshGeomFacet18IntersectWithFacetERKS0_RN4Base7Vector3IfEES6_
Mesh.so:_ZNK8MeshCore13MeshGeomFacet18IntersectWithPlaneERKN4Base7Vector3IfEES5_RS3_S6_
Mesh.so:_ZNK8MeshCore13MeshGeomFacet18NearestEdgeToPointERKN4Base7Vector3IfEE
Mesh.so:_ZNK8MeshCore13MeshGeomFacet18NearestEdgeToPointERKN4Base7Vector3IfEERfRt
Mesh.so:_ZNK8MeshCore13MeshGeomFacet19ProjectFacetToPlaneERS0_
Mesh.so:_ZNK8MeshCore13MeshGeomFacet19ProjectPointToPlaneERKN4Base7Vector3IfEERS3_
Mesh.so:_ZNK8MeshCore13MeshGeomFacet20CenterOfCircumCircleERN4Base7Vector3IfEE
Mesh.so:_ZNK8MeshCore13MeshGeomFacet20IntersectBoundingBoxERKN4Base9BoundBox3IfEE
Mesh.so:_ZNK8MeshCore13MeshGeomFacet21DistanceToLineSegmentERKN4Base7Vector3IfEES5_
Mesh.so:_ZNK8MeshCore13MeshGeomFacet22IntersectPlaneWithLineERKN4Base7Vector3IfEES5_RS3_
Mesh.so:_ZNK8MeshCore13MeshGeomFacet23CenterOfInscribedCircleERN4Base7Vector3IfEE
Mesh.so:_ZNK8MeshCore13MeshGeomFacet7WeightsERKN4Base7Vector3IfEERfS6_S6_
Mesh.so:_ZNK8MeshCore13MeshGeomFacet9IsPointOfERKN4Base7Vector3IfEE
Mesh.so:_ZNK8MeshCore13MeshGeomFacet9IsPointOfERKN4Base7Vector3IfEEf
Mesh.so:_ZNK8MeshCore13MeshGeomFacet9SubSampleEfRSt6vectorIN4Base7Vector3IfEESaIS4_EE
Mesh.so:_ZNK8MeshCore13MeshPointGrid12FindElementsERKN4Base7Vector3IfEERSt3setImSt4lessImESaImEE
Mesh.so:_ZNK8MeshCore13MeshPointGrid3PosERKN4Base7Vector3IfEERmS6_S6_
Mesh.so:_ZNK8MeshCore13MeshPointGrid6VerifyEv
Mesh.so:_ZNK8MeshCore13PolynomialFit5ValueEff
Mesh.so:_ZNK8MeshCore14FacetCurvature7ComputeEm
Mesh.so:_ZNK8MeshCore14MeshComponents19SearchForComponentsENS0_5TModeERKSt6vectorImSaImEERS2_IS4_SaIS4_EE
Mesh.so:_ZNK8MeshCore14MeshComponents19SearchForComponentsENS0_5TModeERSt6vectorIS2_ImSaImEESaIS4_EE
Mesh.so:_ZNK8MeshCore14MeshFacetArray11SetPropertyEm
Mesh.so:_ZNK8MeshCore14MeshFacetArray12ResetInvalidEv
Mesh.so:_ZNK8MeshCore14MeshFacetArray7SetFlagENS_9MeshFacet9TFlagTypeE
Mesh.so:_ZNK8MeshCore14MeshFacetArray9ResetFlagENS_9MeshFacet9TFlagTypeE
Mesh.so:_ZNK8MeshCore14MeshPointArray11SetPropertyEm
Mesh.so:_ZNK8MeshCore14MeshPointArray12ResetInvalidEv
Mesh.so:_ZNK8MeshCore14MeshPointArray7SetFlagENS_9MeshPoint9TFlagTypeE
Mesh.so:_ZNK8MeshCore14MeshPointArray9ResetFlagENS_9MeshPoint9TFlagTypeE
Mesh.so:_ZNK8MeshCore14MeshProjection12connectLinesERNSt7__cxx114listISt4pairIN4Base7Vector3IfEES6_ESaIS7_EEERKS6_SC_RSt6vectorIS6_SaIS6_EE
Mesh.so:_ZNK8MeshCore14MeshProjection19bboxInsideRectangleERKN4Base9BoundBox3IfEERKNS1_7Vector3IfEES9_S9_
Mesh.so:_ZNK8MeshCore14MeshProjection21isPointInsideDistanceERKN4Base7Vector3IfEES5_S5_
Mesh.so:_ZNK8MeshCore15MeshEigensystem12GetBoundingsEv
Mesh.so:_ZNK8MeshCore15MeshEigensystem9TransformEv
Mesh.so:_ZNK8MeshCore15PlaneSurfaceFit12TestTriangleERKNS_13MeshGeomFacetE
Mesh.so:_ZNK8MeshCore15PlaneSurfaceFit20GetDistanceToSurfaceERKN4Base7Vector3IfEE
Mesh.so:_ZNK8MeshCore15PlaneSurfaceFit4DoneEv
Mesh.so:_ZNK8MeshCore16MeshEvalInvalids10GetIndicesEv
Mesh.so:_ZNK8MeshCore16MeshEvalTopology14CountManifoldsEv
Mesh.so:_ZNK8MeshCore16MeshEvalTopology17GetFacetManifoldsERSt6vectorImSaImEE
Mesh.so:_ZNK8MeshCore16SphereSurfaceFit12TestTriangleERKNS_13MeshGeomFacetE
Mesh.so:_ZNK8MeshCore16SphereSurfaceFit20GetDistanceToSurfaceERKN4Base7Vector3IfEE
Mesh.so:_ZNK8MeshCore16SphereSurfaceFit4DoneEv
Mesh.so:_ZNK8MeshCore17MeshEvalNaNPoints10GetIndicesEv
Mesh.so:_ZNK8MeshCore17MeshTopoAlgorithm11Vertex_LessclERKN4Base7Vector3IfEES6_
Mesh.so:_ZNK8MeshCore17MeshTopoAlgorithm14ShouldSwapEdgeEmmf
Mesh.so:_ZNK8MeshCore17MeshTopoAlgorithm15IsSwapEdgeLegalEmm
Mesh.so:_ZNK8MeshCore17MeshTopoAlgorithm15SwapEdgeBenefitEmi
Mesh.so:_ZNK8MeshCore17MeshTopoAlgorithm16GetFacetsToPointEmm
Mesh.so:_ZNK8MeshCore17MeshTopoAlgorithm9FindHolesEmRNSt7__cxx114listISt6vectorImSaImEESaIS5_EEE
Mesh.so:_ZNK8MeshCore18CylinderSurfaceFit12TestTriangleERKNS_13MeshGeomFacetE
Mesh.so:_ZNK8MeshCore18CylinderSurfaceFit20GetDistanceToSurfaceERKN4Base7Vector3IfEE
Mesh.so:_ZNK8MeshCore18CylinderSurfaceFit4DoneEv
Mesh.so:_ZNK8MeshCore18MeshEvalRangeFacet10GetIndicesEv
Mesh.so:_ZNK8MeshCore18MeshEvalRangePoint10GetIndicesEv
Mesh.so:_ZNK8MeshCore18MeshSurfaceSegment11FindSegmentEm
Mesh.so:_ZNK8MeshCore18MeshSurfaceSegment16TestInitialFacetEm
Mesh.so:_ZNK8MeshCore19MeshEvalOrientation10GetIndicesEv
Mesh.so:_ZNK8MeshCore19MeshEvalOrientation17HasFalsePositivesERKSt6vectorImSaImEE
Mesh.so:_ZNK8MeshCore19MeshRefEdgeToFacetsixERKSt4pairImmE
Mesh.so:_ZNK8MeshCore20MeshRefFacetToFacetsixEm
Mesh.so:_ZNK8MeshCore20MeshRefPointToFacets10NeighboursEmfRNS_13MeshCollectorE
Mesh.so:_ZNK8MeshCore20MeshRefPointToFacets15NeighbourPointsERKSt6vectorImSaImEEi
Mesh.so:_ZNK8MeshCore20MeshRefPointToFacets16SearchNeighboursERKNS_14MeshFacetArrayEmRKN4Base7Vector3IfEEfRSt3setImSt4lessImESaImEERNS_13MeshCollectorE
Mesh.so:_ZNK8MeshCore20MeshRefPointToFacets8GetFacetEm
Mesh.so:_ZNK8MeshCore20MeshRefPointToFacets9GetNormalEm
Mesh.so:_ZNK8MeshCore20MeshRefPointToFacetsixEm
Mesh.so:_ZNK8MeshCore20MeshRefPointToPoints20GetAverageEdgeLengthEm
Mesh.so:_ZNK8MeshCore20MeshRefPointToPoints9GetNormalEm
Mesh.so:_ZNK8MeshCore20MeshRefPointToPointsixEm
Mesh.so:_ZNK8MeshCore21MeshEvalNeighbourhood10GetIndicesEv
Mesh.so:_ZNK8MeshCore21MeshRefNormalToPointsixEm
Mesh.so:_ZNK8MeshCore21TriangulationVerifier6AcceptERKN4Base7Vector3IfEES5_S5_S5_
Mesh.so:_ZNK8MeshCore21TriangulationVerifier8MustFlipERKN4Base7Vector3IfEES5_
Mesh.so:_ZNK8MeshCore22MeshEvalDeformedFacets10GetIndicesEv
Mesh.so:_ZNK8MeshCore22MeshEvalDentsOnSurface10GetIndicesEv
Mesh.so:_ZNK8MeshCore22MeshEvalFoldsOnSurface10GetIndicesEv
Mesh.so:_ZNK8MeshCore22MeshEvalPointManifolds15GetFacetIndicesERSt6vectorImSaImEE
Mesh.so:_ZNK8MeshCore22MeshOrientationVisitor26HasNonUnifomOrientedFacetsEv
Mesh.so:_ZNK8MeshCore23MeshEvalCorruptedFacets10GetIndicesEv
Mesh.so:_ZNK8MeshCore23MeshEvalDuplicateFacets10GetIndicesEv
Mesh.so:_ZNK8MeshCore23MeshEvalDuplicatePoints10GetIndicesEv
Mesh.so:_ZNK8MeshCore23MeshEvalFoldsOnBoundary10GetIndicesEv
Mesh.so:_ZNK8MeshCore23MeshFixSelfIntersection9GetFacetsEv
Mesh.so:_ZNK8MeshCore23TriangulationVerifierV26AcceptERKN4Base7Vector3IfEES5_S5_S5_
Mesh.so:_ZNK8MeshCore23TriangulationVerifierV28MustFlipERKN4Base7Vector3IfEES5_
Mesh.so:_ZNK8MeshCore24MeshEvalSelfIntersection16GetIntersectionsERKSt6vectorISt4pairImmESaIS3_EERS1_IS2_IN4Base7Vector3IfEESA_ESaISB_EE
Mesh.so:_ZNK8MeshCore24MeshEvalSelfIntersection16GetIntersectionsERSt6vectorISt4pairImmESaIS3_EE
Mesh.so:_ZNK8MeshCore25MeshDistancePlanarSegment9TestFacetERKNS_9MeshFacetE
Mesh.so:_ZNK8MeshCore25MeshEvalDegeneratedFacets10GetIndicesEv
Mesh.so:_ZNK8MeshCore25MeshEvalDegeneratedFacets17CountEdgeTooSmallEf
Mesh.so:_ZNK8MeshCore26MeshCurvaturePlanarSegment9TestFacetERKNS_9MeshFacetE
Mesh.so:_ZNK8MeshCore27AbstractPolygonTriangulator10GetPolygonEv
Mesh.so:_ZNK8MeshCore27AbstractPolygonTriangulator11AddedPointsEv
Mesh.so:_ZNK8MeshCore27AbstractPolygonTriangulator11GetTriangleERKNS_14MeshPointArrayERKNS_9MeshFacetE
Mesh.so:_ZNK8MeshCore27AbstractPolygonTriangulator11GetVerifierEv
Mesh.so:_ZNK8MeshCore27AbstractPolygonTriangulator22GetTransformToFitPlaneEv
Mesh.so:_ZNK8MeshCore27AbstractPolygonTriangulator7GetInfoEv
Mesh.so:_ZNK8MeshCore27AbstractPolygonTriangulator9GetLengthEv
Mesh.so:_ZNK8MeshCore28MeshCurvatureFreeformSegment9TestFacetERKNS_9MeshFacetE
Mesh.so:_ZNK8MeshCore29MeshCurvatureSphericalSegment9TestFacetERKNS_9MeshFacetE
Mesh.so:_ZNK8MeshCore31MeshCurvatureCylindricalSegment9TestFacetERKNS_9MeshFacetE
Mesh.so:_ZNK8MeshCore36MeshDistanceGenericSurfaceFitSegment16TestInitialFacetEm
Mesh.so:_ZNK8MeshCore36MeshDistanceGenericSurfaceFitSegment9TestFacetERKNS_9MeshFacetE
Mesh.so:_ZNK8MeshCore8MeshGrid11GetElementsERKN4Base7Vector3IfEERSt6vectorImSaImEE
Mesh.so:_ZNK8MeshCore8MeshGrid11GetElementsEmmmRSt3setImSt4lessImESaImEE
Mesh.so:_ZNK8MeshCore8MeshGrid13CheckPositionERKN4Base7Vector3IfEERmS6_S6_
Mesh.so:_ZNK8MeshCore8MeshGrid18GetIndexToPositionEmmm
Mesh.so:_ZNK8MeshCore8MeshGrid18GetPositionToIndexEmRmS1_S1_
Mesh.so:_ZNK8MeshCore8MeshGrid22SearchNearestFromPointERKN4Base7Vector3IfEERSt3setImSt4lessImESaImEE
Mesh.so:_ZNK8MeshCore8MeshGrid6InsideERKN4Base9BoundBox3IfEERSt3setImSt4lessImESaImEE
Mesh.so:_ZNK8MeshCore8MeshGrid6InsideERKN4Base9BoundBox3IfEERSt6vectorImSaImEERKNS1_7Vector3IfEEfb
Mesh.so:_ZNK8MeshCore8MeshGrid6InsideERKN4Base9BoundBox3IfEERSt6vectorImSaImEEb
Mesh.so:_ZNK8MeshCore8MeshGrid7GetHullEmmmmRSt3setImSt4lessImESaImEE
Mesh.so:_ZNK8MeshCore8MeshGrid8PositionERKN4Base7Vector3IfEERmS6_S6_
Mesh.so:_ZNK8MeshCore8MeshInfo16DetailedEdgeInfoERSo
Mesh.so:_ZNK8MeshCore8MeshInfo17DetailedFacetInfoERSo
Mesh.so:_ZNK8MeshCore8MeshInfo17DetailedPointInfoERSo
Mesh.so:_ZNK8MeshCore8MeshInfo17InternalFacetInfoERSo
Mesh.so:_ZNK8MeshCore8MeshInfo17InternalPointInfoERSo
Mesh.so:_ZNK8MeshCore8MeshInfo18GeneralInformationERSo
Mesh.so:_ZNK8MeshCore8MeshInfo19DetailedInformationERSo
Mesh.so:_ZNK8MeshCore8MeshInfo19InternalInformationERSo
Mesh.so:_ZNK8MeshCore8MeshInfo19TopologyInformationERSo
Mesh.so:_ZNK8MeshCore8PlaneFit14GetLocalPointsEv
Mesh.so:_ZNK8MeshCore8PlaneFit15GetStdDeviationEv
Mesh.so:_ZNK8MeshCore8PlaneFit18GetDistanceToPlaneERKN4Base7Vector3IfEE
Mesh.so:_ZNK8MeshCore8PlaneFit21GetSignedStdDeviationEv
Mesh.so:_ZNK8MeshCore8PlaneFit7GetBaseEv
Mesh.so:_ZNK8MeshCore8PlaneFit7GetDirUEv
Mesh.so:_ZNK8MeshCore8PlaneFit7GetDirVEv
Mesh.so:_ZNK8MeshCore8PlaneFit9DimensionERfS1_
Mesh.so:_ZNK8MeshCore8PlaneFit9GetNormalEv
Mesh.so:_ZNK8MeshCore9SphereFit15GetStdDeviationEv
Mesh.so:_ZNK8MeshCore9SphereFit19GetDistanceToSphereERKN4Base7Vector3IfEE
Mesh.so:_ZNK8MeshCore9SphereFit9GetCenterEv
Mesh.so:_ZNK8MeshCore9SphereFit9GetRadiusEv
Mesh.so:_ZThn8_N4Mesh10MeshObjectD0Ev
Mesh.so:_ZThn8_N4Mesh10MeshObjectD1Ev
MeshGui.so:PyInit_MeshGui
MeshGui.so:_Z16loadMeshResourcev
MeshGui.so:_Z18CreateMeshCommandsv
MeshGui.so:_Z19qInitResources_Meshv
MeshGui.so:_Z22qCleanupResources_Meshv
MeshGui.so:_ZN12CmdMeshMerge8isActiveEv
MeshGui.so:_ZN12CmdMeshMerge9activatedEi
MeshGui.so:_ZN12CmdMeshMergeC1Ev
MeshGui.so:_ZN12CmdMeshMergeC2Ev
MeshGui.so:_ZN12CmdMeshScale8isActiveEv
MeshGui.so:_ZN12CmdMeshScale9activatedEi
MeshGui.so:_ZN12CmdMeshScaleC1Ev
MeshGui.so:_ZN12CmdMeshScaleC2Ev
MeshGui.so:_ZN12CmdMeshUnion8isActiveEv
MeshGui.so:_ZN12CmdMeshUnion9activatedEi
MeshGui.so:_ZN12CmdMeshUnionC1Ev
MeshGui.so:_ZN12CmdMeshUnionC2Ev
MeshGui.so:_ZN13CmdMeshExport8isActiveEv
MeshGui.so:_ZN13CmdMeshExport9activatedEi
MeshGui.so:_ZN13CmdMeshExportC1Ev
MeshGui.so:_ZN13CmdMeshExportC2Ev
MeshGui.so:_ZN13CmdMeshImport8isActiveEv
MeshGui.so:_ZN13CmdMeshImport9activatedEi
MeshGui.so:_ZN13CmdMeshImportC1Ev
MeshGui.so:_ZN13CmdMeshImportC2Ev
MeshGui.so:_ZN14CmdMeshPolyCut8isActiveEv
MeshGui.so:_ZN14CmdMeshPolyCut9activatedEi
MeshGui.so:_ZN14CmdMeshPolyCutC1Ev
MeshGui.so:_ZN14CmdMeshPolyCutC2Ev
MeshGui.so:_ZN15CmdMeshAddFacet8isActiveEv
MeshGui.so:_ZN15CmdMeshAddFacet9activatedEi
MeshGui.so:_ZN15CmdMeshAddFacetC1Ev
MeshGui.so:_ZN15CmdMeshAddFacetC2Ev
MeshGui.so:_ZN15CmdMeshPolySegm8isActiveEv
MeshGui.so:_ZN15CmdMeshPolySegm9activatedEi
MeshGui.so:_ZN15CmdMeshPolySegmC1Ev
MeshGui.so:_ZN15CmdMeshPolySegmC2Ev
MeshGui.so:_ZN15CmdMeshPolyTrim8isActiveEv
MeshGui.so:_ZN15CmdMeshPolyTrim9activatedEi
MeshGui.so:_ZN15CmdMeshPolyTrimC1Ev
MeshGui.so:_ZN15CmdMeshPolyTrimC2Ev
MeshGui.so:_ZN16CmdMeshPolySplit8isActiveEv
MeshGui.so:_ZN16CmdMeshPolySplit9activatedEi
MeshGui.so:_ZN16CmdMeshPolySplitC1Ev
MeshGui.so:_ZN16CmdMeshPolySplitC2Ev
MeshGui.so:_ZN16CmdMeshSmoothing8isActiveEv
MeshGui.so:_ZN16CmdMeshSmoothing9activatedEi
MeshGui.so:_ZN16CmdMeshSmoothingC1Ev
MeshGui.so:_ZN16CmdMeshSmoothingC2Ev
MeshGui.so:_ZN17CmdMeshDifference8isActiveEv
MeshGui.so:_ZN17CmdMeshDifference9activatedEi
MeshGui.so:_ZN17CmdMeshDifferenceC1Ev
MeshGui.so:_ZN17CmdMeshDifferenceC2Ev
MeshGui.so:_ZN17CmdMeshEvaluation8isActiveEv
MeshGui.so:_ZN17CmdMeshEvaluation9activatedEi
MeshGui.so:_ZN17CmdMeshEvaluationC1Ev
MeshGui.so:_ZN17CmdMeshEvaluationC2Ev
MeshGui.so:_ZN18CmdMeshBoundingBox8isActiveEv
MeshGui.so:_ZN18CmdMeshBoundingBox9activatedEi
MeshGui.so:_ZN18CmdMeshBoundingBoxC1Ev
MeshGui.so:_ZN18CmdMeshBoundingBoxC2Ev
MeshGui.so:_ZN18CmdMeshFillupHoles8isActiveEv
MeshGui.so:_ZN18CmdMeshFillupHoles9activatedEi
MeshGui.so:_ZN18CmdMeshFillupHolesC1Ev
MeshGui.so:_ZN18CmdMeshFillupHolesC2Ev
MeshGui.so:_ZN18CmdMeshFlipNormals8isActiveEv
MeshGui.so:_ZN18CmdMeshFlipNormals9activatedEi
MeshGui.so:_ZN18CmdMeshFlipNormalsC1Ev
MeshGui.so:_ZN18CmdMeshFlipNormalsC2Ev
MeshGui.so:_ZN18CmdMeshTrimByPlane8isActiveEv
MeshGui.so:_ZN18CmdMeshTrimByPlane9activatedEi
MeshGui.so:_ZN18CmdMeshTrimByPlaneC1Ev
MeshGui.so:_ZN18CmdMeshTrimByPlaneC2Ev
MeshGui.so:_ZN19CmdMeshFromGeometry8isActiveEv
MeshGui.so:_ZN19CmdMeshFromGeometry9activatedEi
MeshGui.so:_ZN19CmdMeshFromGeometryC1Ev
MeshGui.so:_ZN19CmdMeshFromGeometryC2Ev
MeshGui.so:_ZN19CmdMeshIntersection8isActiveEv
MeshGui.so:_ZN19CmdMeshIntersection9activatedEi
MeshGui.so:_ZN19CmdMeshIntersectionC1Ev
MeshGui.so:_ZN19CmdMeshIntersectionC2Ev
MeshGui.so:_ZN19CmdMeshSegmentation8isActiveEv
MeshGui.so:_ZN19CmdMeshSegmentation9activatedEi
MeshGui.so:_ZN19CmdMeshSegmentationC1Ev
MeshGui.so:_ZN19CmdMeshSegmentationC2Ev
MeshGui.so:_ZN20CmdMeshEvaluateFacet8isActiveEv
MeshGui.so:_ZN20CmdMeshEvaluateFacet9activatedEi
MeshGui.so:_ZN20CmdMeshEvaluateFacetC1Ev
MeshGui.so:_ZN20CmdMeshEvaluateFacetC2Ev
MeshGui.so:_ZN20CmdMeshEvaluateSolid8isActiveEv
MeshGui.so:_ZN20CmdMeshEvaluateSolid9activatedEi
MeshGui.so:_ZN20CmdMeshEvaluateSolidC1Ev
MeshGui.so:_ZN20CmdMeshEvaluateSolidC2Ev
MeshGui.so:_ZN20CmdMeshFromPartShape8isActiveEv
MeshGui.so:_ZN20CmdMeshFromPartShape9activatedEi
MeshGui.so:_ZN20CmdMeshFromPartShapeC1Ev
MeshGui.so:_ZN20CmdMeshFromPartShapeC2Ev
MeshGui.so:_ZN21CmdMeshSectionByPlane8isActiveEv
MeshGui.so:_ZN21CmdMeshSectionByPlane9activatedEi
MeshGui.so:_ZN21CmdMeshSectionByPlaneC1Ev
MeshGui.so:_ZN21CmdMeshSectionByPlaneC2Ev
MeshGui.so:_ZN22CmdMeshVertexCurvature8isActiveEv
MeshGui.so:_ZN22CmdMeshVertexCurvature9activatedEi
MeshGui.so:_ZN22CmdMeshVertexCurvatureC1Ev
MeshGui.so:_ZN22CmdMeshVertexCurvatureC2Ev
MeshGui.so:_ZN23CmdMeshHarmonizeNormals8isActiveEv
MeshGui.so:_ZN23CmdMeshHarmonizeNormals9activatedEi
MeshGui.so:_ZN23CmdMeshHarmonizeNormalsC1Ev
MeshGui.so:_ZN23CmdMeshHarmonizeNormalsC2Ev
MeshGui.so:_ZN23CmdMeshRemoveCompByHand8isActiveEv
MeshGui.so:_ZN23CmdMeshRemoveCompByHand9activatedEi
MeshGui.so:_ZN23CmdMeshRemoveCompByHandC1Ev
MeshGui.so:_ZN23CmdMeshRemoveCompByHandC2Ev
MeshGui.so:_ZN23CmdMeshRemoveComponents8isActiveEv
MeshGui.so:_ZN23CmdMeshRemoveComponents9activatedEi
MeshGui.so:_ZN23CmdMeshRemoveComponentsC1Ev
MeshGui.so:_ZN23CmdMeshRemoveComponentsC2Ev
MeshGui.so:_ZN24CmdMeshBuildRegularSolid8isActiveEv
MeshGui.so:_ZN24CmdMeshBuildRegularSolid9activatedEi
MeshGui.so:_ZN24CmdMeshBuildRegularSolidC1Ev
MeshGui.so:_ZN24CmdMeshBuildRegularSolidC2Ev
MeshGui.so:_ZN26CmdMeshFillInteractiveHole8isActiveEv
MeshGui.so:_ZN26CmdMeshFillInteractiveHole9activatedEi
MeshGui.so:_ZN26CmdMeshFillInteractiveHoleC1Ev
MeshGui.so:_ZN26CmdMeshFillInteractiveHoleC2Ev
MeshGui.so:_ZN26CmdMeshSegmentationBestFit8isActiveEv
MeshGui.so:_ZN26CmdMeshSegmentationBestFit9activatedEi
MeshGui.so:_ZN26CmdMeshSegmentationBestFitC1Ev
MeshGui.so:_ZN26CmdMeshSegmentationBestFitC2Ev
MeshGui.so:_ZN26CmdMeshVertexCurvatureInfo8isActiveEv
MeshGui.so:_ZN26CmdMeshVertexCurvatureInfo9activatedEi
MeshGui.so:_ZN26CmdMeshVertexCurvatureInfoC1Ev
MeshGui.so:_ZN26CmdMeshVertexCurvatureInfoC2Ev
MeshGui.so:_ZN3Gui26ViewProviderPythonFeatureTIN7MeshGui23ViewProviderMeshFaceSetEE14getClassTypeIdEv
MeshGui.so:_ZN3Gui26ViewProviderPythonFeatureTIN7MeshGui23ViewProviderMeshFaceSetEE18getPropertyDataPtrEv
MeshGui.so:_ZN3Gui26ViewProviderPythonFeatureTIN7MeshGui23ViewProviderMeshFaceSetEE4initEv
MeshGui.so:_ZN3Gui26ViewProviderPythonFeatureTIN7MeshGui23ViewProviderMeshFaceSetEE6createEv
MeshGui.so:_ZN7MeshGui10initModuleEv
MeshGui.so:_ZN7MeshGui12DlgSmoothing11qt_metacallEN11QMetaObject4CallEiPPv
MeshGui.so:_ZN7MeshGui12DlgSmoothing11qt_metacastEPKc
MeshGui.so:_ZN7MeshGui12DlgSmoothing14method_clickedEi
MeshGui.so:_ZN7MeshGui12DlgSmoothing16toggledSelectionEb
MeshGui.so:_ZN7MeshGui12DlgSmoothing28on_checkBoxSelection_toggledEb
MeshGui.so:_ZN7MeshGui12DlgSmoothingC1EP7QWidget
MeshGui.so:_ZN7MeshGui12DlgSmoothingC2EP7QWidget
MeshGui.so:_ZN7MeshGui12DlgSmoothingD0Ev
MeshGui.so:_ZN7MeshGui12DlgSmoothingD1Ev
MeshGui.so:_ZN7MeshGui12DlgSmoothingD2Ev
MeshGui.so:_ZN7MeshGui12MeshFillHole11closeBridgeEv
MeshGui.so:_ZN7MeshGui12MeshFillHole11qt_metacallEN11QMetaObject4CallEiPPv
MeshGui.so:_ZN7MeshGui12MeshFillHole11qt_metacastEPKc
MeshGui.so:_ZN7MeshGui12MeshFillHole12startEditingEPNS_16ViewProviderMeshE
MeshGui.so:_ZN7MeshGui12MeshFillHole13finishEditingEv
MeshGui.so:_ZN7MeshGui12MeshFillHole14createPolygonsEv
MeshGui.so:_ZN7MeshGui12MeshFillHole16fileHoleCallbackEPvP15SoEventCallback
MeshGui.so:_ZN7MeshGui12MeshFillHole17slotChangedObjectERKN3App14DocumentObjectERKNS1_8PropertyE
MeshGui.so:_ZN7MeshGui12MeshFillHoleC1ERNS_14MeshHoleFillerEPN3Gui14View3DInventorE
MeshGui.so:_ZN7MeshGui12MeshFillHoleC2ERNS_14MeshHoleFillerEPN3Gui14View3DInventorE
MeshGui.so:_ZN7MeshGui12MeshFillHoleD0Ev
MeshGui.so:_ZN7MeshGui12MeshFillHoleD1Ev
MeshGui.so:_ZN7MeshGui12MeshFillHoleD2Ev
MeshGui.so:_ZN7MeshGui12MeshRenderer16generateGLArraysEP16SoGLRenderActionN24SoMaterialBindingElement7BindingERSt6vectorIfSaIfEERS5_IiSaIiEE
MeshGui.so:_ZN7MeshGui12MeshRenderer18renderFacesGLArrayEP16SoGLRenderAction
MeshGui.so:_ZN7MeshGui12MeshRenderer19renderCoordsGLArrayEP16SoGLRenderAction
MeshGui.so:_ZN7MeshGui12MeshRenderer20shouldRenderDirectlyEb
MeshGui.so:_ZN7MeshGui12MeshRenderer7Private13renderGLArrayEP16SoGLRenderActionj
MeshGui.so:_ZN7MeshGui12MeshRenderer7Private16generateGLArraysEP16SoGLRenderActionN24SoMaterialBindingElement7BindingERSt6vectorIfSaIfEERS6_IiSaIiEE
MeshGui.so:_ZN7MeshGui12MeshRenderer7Private18renderFacesGLArrayEP16SoGLRenderAction
MeshGui.so:_ZN7MeshGui12MeshRenderer7Private19renderCoordsGLArrayEP16SoGLRenderAction
MeshGui.so:_ZN7MeshGui12MeshRenderer7PrivateC1Ev
MeshGui.so:_ZN7MeshGui12MeshRenderer7PrivateC2Ev
MeshGui.so:_ZN7MeshGui12MeshRenderer7PrivateD1Ev
MeshGui.so:_ZN7MeshGui12MeshRenderer7PrivateD2Ev
MeshGui.so:_ZN7MeshGui12MeshRendererC1Ev
MeshGui.so:_ZN7MeshGui12MeshRendererC2Ev
MeshGui.so:_ZN7MeshGui12MeshRendererD1Ev
MeshGui.so:_ZN7MeshGui12MeshRendererD2Ev
MeshGui.so:_ZN7MeshGui12Segmentation11changeEventEP6QEvent
MeshGui.so:_ZN7MeshGui12Segmentation6acceptEv
MeshGui.so:_ZN7MeshGui12SegmentationC1EPN4Mesh7FeatureEP7QWidget6QFlagsIN2Qt10WindowTypeEE
MeshGui.so:_ZN7MeshGui12SegmentationC2EPN4Mesh7FeatureEP7QWidget6QFlagsIN2Qt10WindowTypeEE
MeshGui.so:_ZN7MeshGui12SegmentationD0Ev
MeshGui.so:_ZN7MeshGui12SegmentationD1Ev
MeshGui.so:_ZN7MeshGui12SegmentationD2Ev
MeshGui.so:_ZN7MeshGui13MeshSelection10setObjectsERKSt6vectorIN3Gui15SelectionObjectESaIS3_EE
MeshGui.so:_ZN7MeshGui13MeshSelection11setCallbackEPFvPvP15SoEventCallbackE
MeshGui.so:_ZN7MeshGui13MeshSelection13fullSelectionEv
MeshGui.so:_ZN7MeshGui13MeshSelection13stopSelectionEv
MeshGui.so:_ZN7MeshGui13MeshSelection14clearSelectionEv
MeshGui.so:_ZN7MeshGui13MeshSelection14selectTriangleEv
MeshGui.so:_ZN7MeshGui13MeshSelection14startSelectionEv
MeshGui.so:_ZN7MeshGui13MeshSelection15deleteSelectionEv
MeshGui.so:_ZN7MeshGui13MeshSelection15invertSelectionEv
MeshGui.so:_ZN7MeshGui13MeshSelection15selectComponentEi
MeshGui.so:_ZN7MeshGui13MeshSelection16deselectTriangleEv
MeshGui.so:_ZN7MeshGui13MeshSelection16pickFaceCallbackEPvP15SoEventCallback
MeshGui.so:_ZN7MeshGui13MeshSelection16selectGLCallbackEPvP15SoEventCallback
MeshGui.so:_ZN7MeshGui13MeshSelection16startDeselectionEv
MeshGui.so:_ZN7MeshGui13MeshSelection17deselectComponentEi
MeshGui.so:_ZN7MeshGui13MeshSelection21deleteSelectionBorderEv
MeshGui.so:_ZN7MeshGui13MeshSelection22setAddComponentOnClickEb
MeshGui.so:_ZN7MeshGui13MeshSelection23stopInteractiveCallbackEPN3Gui20View3DInventorViewerE
MeshGui.so:_ZN7MeshGui13MeshSelection24prepareFreehandSelectionEbPFvPvP15SoEventCallbackE
MeshGui.so:_ZN7MeshGui13MeshSelection24startInteractiveCallbackEPN3Gui20View3DInventorViewerEPFvPvP15SoEventCallbackE
MeshGui.so:_ZN7MeshGui13MeshSelection25setRemoveComponentOnClickEb
MeshGui.so:_ZN7MeshGui13MeshSelection28setCheckOnlyVisibleTrianglesEb
MeshGui.so:_ZN7MeshGui13MeshSelection32setCheckOnlyPointToUserTrianglesEb
MeshGui.so:_ZN7MeshGui13MeshSelection9setViewerEPN3Gui20View3DInventorViewerE
MeshGui.so:_ZN7MeshGui13MeshSelectionC1Ev
MeshGui.so:_ZN7MeshGui13MeshSelectionC2Ev
MeshGui.so:_ZN7MeshGui13MeshSelectionD1Ev
MeshGui.so:_ZN7MeshGui13MeshSelectionD2Ev
MeshGui.so:_ZN7MeshGui13TaskSmoothing11qt_metacallEN11QMetaObject4CallEiPPv
MeshGui.so:_ZN7MeshGui13TaskSmoothing11qt_metacastEPKc
MeshGui.so:_ZN7MeshGui13TaskSmoothing6acceptEv
MeshGui.so:_ZN7MeshGui13TaskSmoothingC1Ev
MeshGui.so:_ZN7MeshGui13TaskSmoothingC2Ev
MeshGui.so:_ZN7MeshGui13TaskSmoothingD0Ev
MeshGui.so:_ZN7MeshGui13TaskSmoothingD1Ev
MeshGui.so:_ZN7MeshGui13TaskSmoothingD2Ev
MeshGui.so:_ZN7MeshGui14CleanupHandler11qt_metacallEN11QMetaObject4CallEiPPv
MeshGui.so:_ZN7MeshGui14CleanupHandler11qt_metacastEPKc
MeshGui.so:_ZN7MeshGui14CleanupHandler7cleanupEv
MeshGui.so:_ZN7MeshGui14CleanupHandlerC1Ev
MeshGui.so:_ZN7MeshGui14CleanupHandlerC2Ev
MeshGui.so:_ZN7MeshGui14SoSFMeshObject14createInstanceEv
MeshGui.so:_ZN7MeshGui14SoSFMeshObject14getClassTypeIdEv
MeshGui.so:_ZN7MeshGui14SoSFMeshObject8copyFromERK7SoField
MeshGui.so:_ZN7MeshGui14SoSFMeshObject8setValueEPKN4Mesh10MeshObjectE
MeshGui.so:_ZN7MeshGui14SoSFMeshObject9initClassEv
MeshGui.so:_ZN7MeshGui14SoSFMeshObject9readValueEP7SoInput
MeshGui.so:_ZN7MeshGui14SoSFMeshObjectC1Ev
MeshGui.so:_ZN7MeshGui14SoSFMeshObjectC2Ev
MeshGui.so:_ZN7MeshGui14SoSFMeshObjectD0Ev
MeshGui.so:_ZN7MeshGui14SoSFMeshObjectD1Ev
MeshGui.so:_ZN7MeshGui14SoSFMeshObjectD2Ev
MeshGui.so:_ZN7MeshGui14SoSFMeshObjectaSERKS0_
MeshGui.so:_ZN7MeshGui15SmoothingDialog11qt_metacallEN11QMetaObject4CallEiPPv
MeshGui.so:_ZN7MeshGui15SmoothingDialog11qt_metacastEPKc
MeshGui.so:_ZN7MeshGui15SmoothingDialogC1EP7QWidget6QFlagsIN2Qt10WindowTypeEE
MeshGui.so:_ZN7MeshGui15SmoothingDialogC2EP7QWidget6QFlagsIN2Qt10WindowTypeEE
MeshGui.so:_ZN7MeshGui15SmoothingDialogD0Ev
MeshGui.so:_ZN7MeshGui15SmoothingDialogD1Ev
MeshGui.so:_ZN7MeshGui15SmoothingDialogD2Ev
MeshGui.so:_ZN7MeshGui16MeshFaceAddition10flipNormalEv
MeshGui.so:_ZN7MeshGui16MeshFaceAddition10showMarkerEP13SoPickedPoint
MeshGui.so:_ZN7MeshGui16MeshFaceAddition11clearPointsEv
MeshGui.so:_ZN7MeshGui16MeshFaceAddition11qt_metacallEN11QMetaObject4CallEiPPv
MeshGui.so:_ZN7MeshGui16MeshFaceAddition11qt_metacastEPKc
MeshGui.so:_ZN7MeshGui16MeshFaceAddition12startEditingEPNS_16ViewProviderMeshE
MeshGui.so:_ZN7MeshGui16MeshFaceAddition13finishEditingEv
MeshGui.so:_ZN7MeshGui16MeshFaceAddition14addMarkerPointEv
MeshGui.so:_ZN7MeshGui16MeshFaceAddition16addFacetCallbackEPvP15SoEventCallback
MeshGui.so:_ZN7MeshGui16MeshFaceAddition7addFaceEv
MeshGui.so:_ZN7MeshGui16MeshFaceAdditionC1EPN3Gui14View3DInventorE
MeshGui.so:_ZN7MeshGui16MeshFaceAdditionC2EPN3Gui14View3DInventorE
MeshGui.so:_ZN7MeshGui16MeshFaceAdditionD0Ev
MeshGui.so:_ZN7MeshGui16MeshFaceAdditionD1Ev
MeshGui.so:_ZN7MeshGui16MeshFaceAdditionD2Ev
MeshGui.so:_ZN7MeshGui16ParametersDialog11qt_metacallEN11QMetaObject4CallEiPPv
MeshGui.so:_ZN7MeshGui16ParametersDialog11qt_metacastEPKc
MeshGui.so:_ZN7MeshGui16ParametersDialog16on_clear_clickedEv
MeshGui.so:_ZN7MeshGui16ParametersDialog17on_region_clickedEv
MeshGui.so:_ZN7MeshGui16ParametersDialog17on_single_clickedEv
MeshGui.so:_ZN7MeshGui16ParametersDialog18on_compute_clickedEv
MeshGui.so:_ZN7MeshGui16ParametersDialog6acceptEv
MeshGui.so:_ZN7MeshGui16ParametersDialog6rejectEv
MeshGui.so:_ZN7MeshGui16ParametersDialogC1ERSt6vectorIfSaIfEEPNS_12FitParameterENSt7__cxx114listISt4pairI7QStringfESaISB_EEEPN4Mesh7FeatureEP7QWidget
MeshGui.so:_ZN7MeshGui16ParametersDialogC2ERSt6vectorIfSaIfEEPNS_12FitParameterENSt7__cxx114listISt4pairI7QStringfESaISB_EEEPN4Mesh7FeatureEP7QWidget
MeshGui.so:_ZN7MeshGui16ParametersDialogD0Ev
MeshGui.so:_ZN7MeshGui16ParametersDialogD1Ev
MeshGui.so:_ZN7MeshGui16ParametersDialogD2Ev
MeshGui.so:_ZN7MeshGui16RemoveComponents11changeEventEP6QEvent
MeshGui.so:_ZN7MeshGui16RemoveComponents11qt_metacallEN11QMetaObject4CallEiPPv
MeshGui.so:_ZN7MeshGui16RemoveComponents11qt_metacastEPKc
MeshGui.so:_ZN7MeshGui16RemoveComponents15deleteSelectionEv
MeshGui.so:_ZN7MeshGui16RemoveComponents15invertSelectionEv
MeshGui.so:_ZN7MeshGui16RemoveComponents20on_selectAll_clickedEv
MeshGui.so:_ZN7MeshGui16RemoveComponents22on_deselectAll_clickedEv
MeshGui.so:_ZN7MeshGui16RemoveComponents23on_cbSelectComp_toggledEb
MeshGui.so:_ZN7MeshGui16RemoveComponents23on_selectRegion_clickedEv
MeshGui.so:_ZN7MeshGui16RemoveComponents25on_cbDeselectComp_toggledEb
MeshGui.so:_ZN7MeshGui16RemoveComponents25on_deselectRegion_clickedEv
MeshGui.so:_ZN7MeshGui16RemoveComponents25on_selectTriangle_clickedEv
MeshGui.so:_ZN7MeshGui16RemoveComponents26on_screenTriangles_toggledEb
MeshGui.so:_ZN7MeshGui16RemoveComponents27on_deselectTriangle_clickedEv
MeshGui.so:_ZN7MeshGui16RemoveComponents27on_selectComponents_clickedEv
MeshGui.so:_ZN7MeshGui16RemoveComponents27on_visibleTriangles_toggledEb
MeshGui.so:_ZN7MeshGui16RemoveComponents29on_deselectComponents_clickedEv
MeshGui.so:_ZN7MeshGui16RemoveComponents6rejectEv
MeshGui.so:_ZN7MeshGui16RemoveComponentsC1EP7QWidget6QFlagsIN2Qt10WindowTypeEE
MeshGui.so:_ZN7MeshGui16RemoveComponentsC2EP7QWidget6QFlagsIN2Qt10WindowTypeEE
MeshGui.so:_ZN7MeshGui16RemoveComponentsD0Ev
MeshGui.so:_ZN7MeshGui16RemoveComponentsD1Ev
MeshGui.so:_ZN7MeshGui16RemoveComponentsD2Ev
MeshGui.so:_ZN7MeshGui16SoFCMeshGridNode14atexit_cleanupEv
MeshGui.so:_ZN7MeshGui16SoFCMeshGridNode14createInstanceEv
MeshGui.so:_ZN7MeshGui16SoFCMeshGridNode14getClassTypeIdEv
MeshGui.so:_ZN7MeshGui16SoFCMeshGridNode15getFieldDataPtrEv
MeshGui.so:_ZN7MeshGui16SoFCMeshGridNode8GLRenderEP16SoGLRenderAction
MeshGui.so:_ZN7MeshGui16SoFCMeshGridNode9initClassEv
MeshGui.so:_ZN7MeshGui16SoFCMeshGridNodeC1Ev
MeshGui.so:_ZN7MeshGui16SoFCMeshGridNodeC2Ev
MeshGui.so:_ZN7MeshGui16SoFCMeshGridNodeD0Ev
MeshGui.so:_ZN7MeshGui16SoFCMeshGridNodeD1Ev
MeshGui.so:_ZN7MeshGui16SoFCMeshGridNodeD2Ev
MeshGui.so:_ZN7MeshGui16SoFCMeshPickNode14atexit_cleanupEv
MeshGui.so:_ZN7MeshGui16SoFCMeshPickNode14createInstanceEv
MeshGui.so:_ZN7MeshGui16SoFCMeshPickNode14getClassTypeIdEv
MeshGui.so:_ZN7MeshGui16SoFCMeshPickNode15getFieldDataPtrEv
MeshGui.so:_ZN7MeshGui16SoFCMeshPickNode4pickEP12SoPickAction
MeshGui.so:_ZN7MeshGui16SoFCMeshPickNode6notifyEP9SoNotList
MeshGui.so:_ZN7MeshGui16SoFCMeshPickNode7rayPickEP15SoRayPickAction
MeshGui.so:_ZN7MeshGui16SoFCMeshPickNode9initClassEv
MeshGui.so:_ZN7MeshGui16SoFCMeshPickNodeC1Ev
MeshGui.so:_ZN7MeshGui16SoFCMeshPickNodeC2Ev
MeshGui.so:_ZN7MeshGui16SoFCMeshPickNodeD0Ev
MeshGui.so:_ZN7MeshGui16SoFCMeshPickNodeD1Ev
MeshGui.so:_ZN7MeshGui16SoFCMeshPickNodeD2Ev
MeshGui.so:_ZN7MeshGui16TaskSegmentation6acceptEv
MeshGui.so:_ZN7MeshGui16TaskSegmentationC1EPN4Mesh7FeatureE
MeshGui.so:_ZN7MeshGui16TaskSegmentationC2EPN4Mesh7FeatureE
MeshGui.so:_ZN7MeshGui16TaskSegmentationD0Ev
MeshGui.so:_ZN7MeshGui16TaskSegmentationD1Ev
MeshGui.so:_ZN7MeshGui16TaskSegmentationD2Ev
MeshGui.so:_ZN7MeshGui16ViewProviderFace14getClassTypeIdEv
MeshGui.so:_ZN7MeshGui16ViewProviderFace14setDisplayModeEPKc
MeshGui.so:_ZN7MeshGui16ViewProviderFace18getPropertyDataPtrEv
MeshGui.so:_ZN7MeshGui16ViewProviderFace4initEv
MeshGui.so:_ZN7MeshGui16ViewProviderFace6attachEPN3App14DocumentObjectE
MeshGui.so:_ZN7MeshGui16ViewProviderFace6createEv
MeshGui.so:_ZN7MeshGui16ViewProviderFaceC1Ev
MeshGui.so:_ZN7MeshGui16ViewProviderFaceC2Ev
MeshGui.so:_ZN7MeshGui16ViewProviderFaceD0Ev
MeshGui.so:_ZN7MeshGui16ViewProviderFaceD1Ev
MeshGui.so:_ZN7MeshGui16ViewProviderFaceD2Ev
MeshGui.so:_ZN7MeshGui16ViewProviderMesh10selectAreaEssssRK16SbViewportRegionP8SoCamera
MeshGui.so:_ZN7MeshGui16ViewProviderMesh10updateDataEPKN3App8PropertyE
MeshGui.so:_ZN7MeshGui16ViewProviderMesh11getPyObjectEv
MeshGui.so:_ZN7MeshGui16ViewProviderMesh11segmentMeshERKN8MeshCore10MeshKernelERKN4Base7Vector3IfEEi
MeshGui.so:_ZN7MeshGui16ViewProviderMesh11selectFacetEm
MeshGui.so:_ZN7MeshGui16ViewProviderMesh12addSelectionERKSt6vectorImSaImEE
MeshGui.so:_ZN7MeshGui16ViewProviderMesh12removeFacetsERKSt6vectorImSaImEE
MeshGui.so:_ZN7MeshGui16ViewProviderMesh12setSelectionERKSt6vectorImSaImEE
MeshGui.so:_ZN7MeshGui16ViewProviderMesh13deselectFacetEm
MeshGui.so:_ZN7MeshGui16ViewProviderMesh13showOpenEdgesEb
MeshGui.so:_ZN7MeshGui16ViewProviderMesh14clearSelectionEv
MeshGui.so:_ZN7MeshGui16ViewProviderMesh14createToolMeshERKSt6vectorI7SbVec2fSaIS2_EERK12SbViewVolumeRKN4Base7Vector3IfEERS1_IN8MeshCore13MeshGeomFacetESaISG_EE
MeshGui.so:_ZN7MeshGui16ViewProviderMesh14getClassTypeIdEv
MeshGui.so:_ZN7MeshGui16ViewProviderMesh14setDisplayModeEPKc
MeshGui.so:_ZN7MeshGui16ViewProviderMesh15deleteSelectionEv
MeshGui.so:_ZN7MeshGui16ViewProviderMesh15invertSelectionEv
MeshGui.so:_ZN7MeshGui16ViewProviderMesh15isFacetSelectedEm
MeshGui.so:_ZN7MeshGui16ViewProviderMesh15removeSelectionERKSt6vectorImSaImEE
MeshGui.so:_ZN7MeshGui16ViewProviderMesh15selectComponentEm
MeshGui.so:_ZN7MeshGui16ViewProviderMesh16clipMeshCallbackEPvP15SoEventCallback
MeshGui.so:_ZN7MeshGui16ViewProviderMesh16faceInfoCallbackEPvP15SoEventCallback
MeshGui.so:_ZN7MeshGui16ViewProviderMesh16fillHoleCallbackEPvP15SoEventCallback
MeshGui.so:_ZN7MeshGui16ViewProviderMesh16markPartCallbackEPvP15SoEventCallback
MeshGui.so:_ZN7MeshGui16ViewProviderMesh16partMeshCallbackEPvP15SoEventCallback
MeshGui.so:_ZN7MeshGui16ViewProviderMesh16renderGLCallbackEPvP8SoAction
MeshGui.so:_ZN7MeshGui16ViewProviderMesh16segmMeshCallbackEPvP15SoEventCallback
MeshGui.so:_ZN7MeshGui16ViewProviderMesh16selectGLCallbackEPvP15SoEventCallback
MeshGui.so:_ZN7MeshGui16ViewProviderMesh16setupContextMenuEP5QMenuP7QObjectPKc
MeshGui.so:_ZN7MeshGui16ViewProviderMesh16trimMeshCallbackEPvP15SoEventCallback
MeshGui.so:_ZN7MeshGui16ViewProviderMesh17deselectComponentEm
MeshGui.so:_ZN7MeshGui16ViewProviderMesh17highlightSegmentsERKSt6vectorIN3App5ColorESaIS3_EE
MeshGui.so:_ZN7MeshGui16ViewProviderMesh17setColorPerVertexEPKN3App17PropertyColorListE
MeshGui.so:_ZN7MeshGui16ViewProviderMesh17tryColorPerVertexEb
MeshGui.so:_ZN7MeshGui16ViewProviderMesh18getPropertyDataPtrEv
MeshGui.so:_ZN7MeshGui16ViewProviderMesh18highlightSelectionEv
MeshGui.so:_ZN7MeshGui16ViewProviderMesh19highlightComponentsEv
MeshGui.so:_ZN7MeshGui16ViewProviderMesh20setFacetTransparencyERKSt6vectorIfSaIfEE
MeshGui.so:_ZN7MeshGui16ViewProviderMesh20setOpenEdgeColorFromERKN3App5ColorE
MeshGui.so:_ZN7MeshGui16ViewProviderMesh20unhighlightSelectionEv
MeshGui.so:_ZN7MeshGui16ViewProviderMesh22resetFacetTransparencyEv
MeshGui.so:_ZN7MeshGui16ViewProviderMesh24setHighlightedComponentsEb
MeshGui.so:_ZN7MeshGui16ViewProviderMesh4initEv
MeshGui.so:_ZN7MeshGui16ViewProviderMesh6attachEPN3App14DocumentObjectE
MeshGui.so:_ZN7MeshGui16ViewProviderMesh6createEv
MeshGui.so:_ZN7MeshGui16ViewProviderMesh7boxZoomERK7SbBox2sRK16SbViewportRegionP8SoCamera
MeshGui.so:_ZN7MeshGui16ViewProviderMesh7cutMeshERKSt6vectorI7SbVec2fSaIS2_EERKN4Base14ViewProjMethodEi
MeshGui.so:_ZN7MeshGui16ViewProviderMesh7setEditEi
MeshGui.so:_ZN7MeshGui16ViewProviderMesh8faceInfoEm
MeshGui.so:_ZN7MeshGui16ViewProviderMesh8fillHoleEm
MeshGui.so:_ZN7MeshGui16ViewProviderMesh8trimMeshERKSt6vectorI7SbVec2fSaIS2_EERKN4Base14ViewProjMethodEi
MeshGui.so:_ZN7MeshGui16ViewProviderMesh9onChangedEPKN3App8PropertyE
MeshGui.so:_ZN7MeshGui16ViewProviderMesh9panCameraEP8SoCamerafRK7SbPlaneRK7SbVec2fS8_
MeshGui.so:_ZN7MeshGui16ViewProviderMesh9splitMeshERKN8MeshCore10MeshKernelERKN4Base7Vector3IfEEi
MeshGui.so:_ZN7MeshGui16ViewProviderMesh9unsetEditEi
MeshGui.so:_ZN7MeshGui16ViewProviderMeshC1Ev
MeshGui.so:_ZN7MeshGui16ViewProviderMeshC2Ev
MeshGui.so:_ZN7MeshGui16ViewProviderMeshD0Ev
MeshGui.so:_ZN7MeshGui16ViewProviderMeshD1Ev
MeshGui.so:_ZN7MeshGui16ViewProviderMeshD2Ev
MeshGui.so:_ZN7MeshGui18DlgEvaluateMeshImp11changeEventEP6QEvent
MeshGui.so:_ZN7MeshGui18DlgEvaluateMeshImp11qt_metacallEN11QMetaObject4CallEiPPv
MeshGui.so:_ZN7MeshGui18DlgEvaluateMeshImp11qt_metacastEPKc
MeshGui.so:_ZN7MeshGui18DlgEvaluateMeshImp11refreshListEv
MeshGui.so:_ZN7MeshGui18DlgEvaluateMeshImp15addViewProviderEPKcRKSt6vectorImSaImEE
MeshGui.so:_ZN7MeshGui18DlgEvaluateMeshImp15showInformationEv
MeshGui.so:_ZN7MeshGui18DlgEvaluateMeshImp16cleanInformationEv
MeshGui.so:_ZN7MeshGui18DlgEvaluateMeshImp17slotChangedObjectERKN3App14DocumentObjectERKNS1_8PropertyE
MeshGui.so:_ZN7MeshGui18DlgEvaluateMeshImp17slotCreatedObjectERKN3App14DocumentObjectE
MeshGui.so:_ZN7MeshGui18DlgEvaluateMeshImp17slotDeletedObjectERKN3App14DocumentObjectE
MeshGui.so:_ZN7MeshGui18DlgEvaluateMeshImp18removeViewProviderEPKc
MeshGui.so:_ZN7MeshGui18DlgEvaluateMeshImp19removeViewProvidersEv
MeshGui.so:_ZN7MeshGui18DlgEvaluateMeshImp19slotDeletedDocumentERKN3App8DocumentE
MeshGui.so:_ZN7MeshGui18DlgEvaluateMeshImp20on_buttonBox_clickedEP15QAbstractButton
MeshGui.so:_ZN7MeshGui18DlgEvaluateMeshImp24on_refreshButton_clickedEv
MeshGui.so:_ZN7MeshGui18DlgEvaluateMeshImp27on_checkFoldsButton_clickedEv
MeshGui.so:_ZN7MeshGui18DlgEvaluateMeshImp27on_meshNameButton_activatedEi
MeshGui.so:_ZN7MeshGui18DlgEvaluateMeshImp28on_repairAllTogether_clickedEv
MeshGui.so:_ZN7MeshGui18DlgEvaluateMeshImp28on_repairFoldsButton_clickedEv
MeshGui.so:_ZN7MeshGui18DlgEvaluateMeshImp29on_analyzeAllTogether_clickedEv
MeshGui.so:_ZN7MeshGui18DlgEvaluateMeshImp29on_analyzeFoldsButton_clickedEv
MeshGui.so:_ZN7MeshGui18DlgEvaluateMeshImp29on_checkIndicesButton_clickedEv
MeshGui.so:_ZN7MeshGui18DlgEvaluateMeshImp30on_repairIndicesButton_clickedEv
MeshGui.so:_ZN7MeshGui18DlgEvaluateMeshImp31on_analyzeIndicesButton_clickedEv
MeshGui.so:_ZN7MeshGui18DlgEvaluateMeshImp33on_checkOrientationButton_clickedEv
MeshGui.so:_ZN7MeshGui18DlgEvaluateMeshImp34on_checkDegenerationButton_clickedEv
MeshGui.so:_ZN7MeshGui18DlgEvaluateMeshImp34on_checkNonmanifoldsButton_clickedEv
MeshGui.so:_ZN7MeshGui18DlgEvaluateMeshImp34on_repairDegeneratedButton_clickedEv
MeshGui.so:_ZN7MeshGui18DlgEvaluateMeshImp34on_repairOrientationButton_clickedEv
MeshGui.so:_ZN7MeshGui18DlgEvaluateMeshImp35on_analyzeDegeneratedButton_clickedEv
MeshGui.so:_ZN7MeshGui18DlgEvaluateMeshImp35on_analyzeOrientationButton_clickedEv
MeshGui.so:_ZN7MeshGui18DlgEvaluateMeshImp35on_repairNonmanifoldsButton_clickedEv
MeshGui.so:_ZN7MeshGui18DlgEvaluateMeshImp36on_analyzeNonmanifoldsButton_clickedEv
MeshGui.so:_ZN7MeshGui18DlgEvaluateMeshImp37on_checkDuplicatedFacesButton_clickedEv
MeshGui.so:_ZN7MeshGui18DlgEvaluateMeshImp38on_checkDuplicatedPointsButton_clickedEv
MeshGui.so:_ZN7MeshGui18DlgEvaluateMeshImp38on_checkSelfIntersectionButton_clickedEv
MeshGui.so:_ZN7MeshGui18DlgEvaluateMeshImp38on_repairDuplicatedFacesButton_clickedEv
MeshGui.so:_ZN7MeshGui18DlgEvaluateMeshImp39on_analyzeDuplicatedFacesButton_clickedEv
MeshGui.so:_ZN7MeshGui18DlgEvaluateMeshImp39on_repairDuplicatedPointsButton_clickedEv
MeshGui.so:_ZN7MeshGui18DlgEvaluateMeshImp39on_repairSelfIntersectionButton_clickedEv
MeshGui.so:_ZN7MeshGui18DlgEvaluateMeshImp40on_analyzeDuplicatedPointsButton_clickedEv
MeshGui.so:_ZN7MeshGui18DlgEvaluateMeshImp40on_analyzeSelfIntersectionButton_clickedEv
MeshGui.so:_ZN7MeshGui18DlgEvaluateMeshImp7setMeshEPN4Mesh7FeatureE
MeshGui.so:_ZN7MeshGui18DlgEvaluateMeshImpC1EP7QWidget6QFlagsIN2Qt10WindowTypeEE
MeshGui.so:_ZN7MeshGui18DlgEvaluateMeshImpC2EP7QWidget6QFlagsIN2Qt10WindowTypeEE
MeshGui.so:_ZN7MeshGui18DlgEvaluateMeshImpD0Ev
MeshGui.so:_ZN7MeshGui18DlgEvaluateMeshImpD1Ev
MeshGui.so:_ZN7MeshGui18DlgEvaluateMeshImpD2Ev
MeshGui.so:_ZN7MeshGui18DlgRegularSolidImp11changeEventEP6QEvent
MeshGui.so:_ZN7MeshGui18DlgRegularSolidImp11qt_metacallEN11QMetaObject4CallEiPPv
MeshGui.so:_ZN7MeshGui18DlgRegularSolidImp11qt_metacastEPKc
MeshGui.so:_ZN7MeshGui18DlgRegularSolidImp28on_createSolidButton_clickedEv
MeshGui.so:_ZN7MeshGui18DlgRegularSolidImpC1EP7QWidget6QFlagsIN2Qt10WindowTypeEE
MeshGui.so:_ZN7MeshGui18DlgRegularSolidImpC2EP7QWidget6QFlagsIN2Qt10WindowTypeEE
MeshGui.so:_ZN7MeshGui18DlgRegularSolidImpD0Ev
MeshGui.so:_ZN7MeshGui18DlgRegularSolidImpD1Ev
MeshGui.so:_ZN7MeshGui18DlgRegularSolidImpD2Ev
MeshGui.so:_ZN7MeshGui18SoFCIndexedFaceSet10drawCoordsEPK21SoGLCoordinateElementPKiiPK7SbVec3fS5_P16SoMaterialBundleS5_iPK25SoTextureCoordinateBundleS5_
MeshGui.so:_ZN7MeshGui18SoFCIndexedFaceSet10invalidateEv
MeshGui.so:_ZN7MeshGui18SoFCIndexedFaceSet13stopSelectionEP8SoAction
MeshGui.so:_ZN7MeshGui18SoFCIndexedFaceSet14atexit_cleanupEv
MeshGui.so:_ZN7MeshGui18SoFCIndexedFaceSet14createInstanceEv
MeshGui.so:_ZN7MeshGui18SoFCIndexedFaceSet14getClassTypeIdEv
MeshGui.so:_ZN7MeshGui18SoFCIndexedFaceSet14startSelectionEP8SoAction
MeshGui.so:_ZN7MeshGui18SoFCIndexedFaceSet14stopVisibilityEP8SoAction
MeshGui.so:_ZN7MeshGui18SoFCIndexedFaceSet15getFieldDataPtrEv
MeshGui.so:_ZN7MeshGui18SoFCIndexedFaceSet15startVisibilityEP8SoAction
MeshGui.so:_ZN7MeshGui18SoFCIndexedFaceSet16generateGLArraysEP16SoGLRenderAction
MeshGui.so:_ZN7MeshGui18SoFCIndexedFaceSet18renderVisibleFacesEPK7SbVec3f
MeshGui.so:_ZN7MeshGui18SoFCIndexedFaceSet23renderSelectionGeometryEPK7SbVec3f
MeshGui.so:_ZN7MeshGui18SoFCIndexedFaceSet8GLRenderEP16SoGLRenderAction
MeshGui.so:_ZN7MeshGui18SoFCIndexedFaceSet8doActionEP8SoAction
MeshGui.so:_ZN7MeshGui18SoFCIndexedFaceSet9drawFacesEP16SoGLRenderAction
MeshGui.so:_ZN7MeshGui18SoFCIndexedFaceSet9initClassEv
MeshGui.so:_ZN7MeshGui18SoFCIndexedFaceSetC1Ev
MeshGui.so:_ZN7MeshGui18SoFCIndexedFaceSetC2Ev
MeshGui.so:_ZN7MeshGui18SoFCMaterialEngine12inputChangedEP7SoField
MeshGui.so:_ZN7MeshGui18SoFCMaterialEngine14atexit_cleanupEv
MeshGui.so:_ZN7MeshGui18SoFCMaterialEngine14createInstanceEv
MeshGui.so:_ZN7MeshGui18SoFCMaterialEngine14getClassTypeIdEv
MeshGui.so:_ZN7MeshGui18SoFCMaterialEngine15getInputDataPtrEv
MeshGui.so:_ZN7MeshGui18SoFCMaterialEngine16getOutputDataPtrEv
MeshGui.so:_ZN7MeshGui18SoFCMaterialEngine8evaluateEv
MeshGui.so:_ZN7MeshGui18SoFCMaterialEngine9initClassEv
MeshGui.so:_ZN7MeshGui18SoFCMaterialEngineC1Ev
MeshGui.so:_ZN7MeshGui18SoFCMaterialEngineC2Ev
MeshGui.so:_ZN7MeshGui18SoFCMaterialEngineD0Ev
MeshGui.so:_ZN7MeshGui18SoFCMaterialEngineD1Ev
MeshGui.so:_ZN7MeshGui18SoFCMaterialEngineD2Ev
MeshGui.so:_ZN7MeshGui18SoFCMeshObjectNode14atexit_cleanupEv
MeshGui.so:_ZN7MeshGui18SoFCMeshObjectNode14createInstanceEv
MeshGui.so:_ZN7MeshGui18SoFCMeshObjectNode14getBoundingBoxEP22SoGetBoundingBoxAction
MeshGui.so:_ZN7MeshGui18SoFCMeshObjectNode14getClassTypeIdEv
MeshGui.so:_ZN7MeshGui18SoFCMeshObjectNode15getFieldDataPtrEv
MeshGui.so:_ZN7MeshGui18SoFCMeshObjectNode17getPrimitiveCountEP25SoGetPrimitiveCountAction
MeshGui.so:_ZN7MeshGui18SoFCMeshObjectNode4pickEP12SoPickAction
MeshGui.so:_ZN7MeshGui18SoFCMeshObjectNode8GLRenderEP16SoGLRenderAction
MeshGui.so:_ZN7MeshGui18SoFCMeshObjectNode8callbackEP16SoCallbackAction
MeshGui.so:_ZN7MeshGui18SoFCMeshObjectNode8doActionEP8SoAction
MeshGui.so:_ZN7MeshGui18SoFCMeshObjectNode9initClassEv
MeshGui.so:_ZN7MeshGui18SoFCMeshObjectNodeC1Ev
MeshGui.so:_ZN7MeshGui18SoFCMeshObjectNodeC2Ev
MeshGui.so:_ZN7MeshGui18SoFCMeshObjectNodeD0Ev
MeshGui.so:_ZN7MeshGui18SoFCMeshObjectNodeD1Ev
MeshGui.so:_ZN7MeshGui18SoFCMeshObjectNodeD2Ev
MeshGui.so:_ZN7MeshGui18ViewProviderExport14getClassTypeIdEv
MeshGui.so:_ZN7MeshGui18ViewProviderExport18getPropertyDataPtrEv
MeshGui.so:_ZN7MeshGui18ViewProviderExport4initEv
MeshGui.so:_ZN7MeshGui18ViewProviderExport6createEv
MeshGui.so:_ZN7MeshGui18ViewProviderExportC1Ev
MeshGui.so:_ZN7MeshGui18ViewProviderExportC2Ev
MeshGui.so:_ZN7MeshGui18ViewProviderExportD0Ev
MeshGui.so:_ZN7MeshGui18ViewProviderExportD1Ev
MeshGui.so:_ZN7MeshGui18ViewProviderExportD2Ev
MeshGui.so:_ZN7MeshGui18ViewProviderMeshPy12addSelectionEP7_object
MeshGui.so:_ZN7MeshGui18ViewProviderMeshPy12setSelectionEP7_object
MeshGui.so:_ZN7MeshGui18ViewProviderMeshPy14clearSelectionEP7_object
MeshGui.so:_ZN7MeshGui18ViewProviderMeshPy15invertSelectionEP7_object
MeshGui.so:_ZN7MeshGui18ViewProviderMeshPy15removeSelectionEP7_object
MeshGui.so:_ZN7MeshGui18ViewProviderMeshPy19setCustomAttributesEPKcP7_object
MeshGui.so:_ZN7MeshGui18ViewProviderMeshPy27staticCallback_addSelectionEP7_objectS2_
MeshGui.so:_ZN7MeshGui18ViewProviderMeshPy27staticCallback_setSelectionEP7_objectS2_
MeshGui.so:_ZN7MeshGui18ViewProviderMeshPy29staticCallback_clearSelectionEP7_objectS2_
MeshGui.so:_ZN7MeshGui18ViewProviderMeshPy30staticCallback_invertSelectionEP7_objectS2_
MeshGui.so:_ZN7MeshGui18ViewProviderMeshPy30staticCallback_removeSelectionEP7_objectS2_
MeshGui.so:_ZN7MeshGui18ViewProviderMeshPy5_reprEv
MeshGui.so:_ZN7MeshGui18ViewProviderMeshPy6PyInitEP7_objectS2_
MeshGui.so:_ZN7MeshGui18ViewProviderMeshPy6PyMakeEP11_typeobjectP7_objectS4_
MeshGui.so:_ZN7MeshGui18ViewProviderMeshPy8_getattrEPKc
MeshGui.so:_ZN7MeshGui18ViewProviderMeshPy8_setattrEPKcP7_object
MeshGui.so:_ZN7MeshGui18ViewProviderMeshPyC1EPNS_16ViewProviderMeshEP11_typeobject
MeshGui.so:_ZN7MeshGui18ViewProviderMeshPyC2EPNS_16ViewProviderMeshEP11_typeobject
MeshGui.so:_ZN7MeshGui18ViewProviderMeshPyD0Ev
MeshGui.so:_ZN7MeshGui18ViewProviderMeshPyD1Ev
MeshGui.so:_ZN7MeshGui18ViewProviderMeshPyD2Ev
MeshGui.so:_ZN7MeshGui19DlgEvaluateSettings11qt_metacallEN11QMetaObject4CallEiPPv
MeshGui.so:_ZN7MeshGui19DlgEvaluateSettings11qt_metacastEPKc
MeshGui.so:_ZN7MeshGui19DlgEvaluateSettings15setFoldsCheckedEb
MeshGui.so:_ZN7MeshGui19DlgEvaluateSettings27setDegeneratedFacetsCheckedEb
MeshGui.so:_ZN7MeshGui19DlgEvaluateSettings27setNonmanifoldPointsCheckedEb
MeshGui.so:_ZN7MeshGui19DlgEvaluateSettingsC1EP7QWidget6QFlagsIN2Qt10WindowTypeEE
MeshGui.so:_ZN7MeshGui19DlgEvaluateSettingsC2EP7QWidget6QFlagsIN2Qt10WindowTypeEE
MeshGui.so:_ZN7MeshGui19DlgEvaluateSettingsD0Ev
MeshGui.so:_ZN7MeshGui19DlgEvaluateSettingsD1Ev
MeshGui.so:_ZN7MeshGui19DlgEvaluateSettingsD2Ev
MeshGui.so:_ZN7MeshGui19DlgSettingsMeshView11changeEventEP6QEvent
MeshGui.so:_ZN7MeshGui19DlgSettingsMeshView11qt_metacallEN11QMetaObject4CallEiPPv
MeshGui.so:_ZN7MeshGui19DlgSettingsMeshView11qt_metacastEPKc
MeshGui.so:_ZN7MeshGui19DlgSettingsMeshView12loadSettingsEv
MeshGui.so:_ZN7MeshGui19DlgSettingsMeshView12saveSettingsEv
MeshGui.so:_ZN7MeshGui19DlgSettingsMeshViewC1EP7QWidget
MeshGui.so:_ZN7MeshGui19DlgSettingsMeshViewC2EP7QWidget
MeshGui.so:_ZN7MeshGui19DlgSettingsMeshViewD0Ev
MeshGui.so:_ZN7MeshGui19DlgSettingsMeshViewD1Ev
MeshGui.so:_ZN7MeshGui19DlgSettingsMeshViewD2Ev
MeshGui.so:_ZN7MeshGui19DockEvaluateMeshImp10closeEventEP11QCloseEvent
MeshGui.so:_ZN7MeshGui19DockEvaluateMeshImp11hasInstanceEv
MeshGui.so:_ZN7MeshGui19DockEvaluateMeshImp11qt_metacallEN11QMetaObject4CallEiPPv
MeshGui.so:_ZN7MeshGui19DockEvaluateMeshImp11qt_metacastEPKc
MeshGui.so:_ZN7MeshGui19DockEvaluateMeshImp8destructEv
MeshGui.so:_ZN7MeshGui19DockEvaluateMeshImp8instanceEv
MeshGui.so:_ZN7MeshGui19DockEvaluateMeshImpC1EP7QWidget6QFlagsIN2Qt10WindowTypeEE
MeshGui.so:_ZN7MeshGui19DockEvaluateMeshImpC2EP7QWidget6QFlagsIN2Qt10WindowTypeEE
MeshGui.so:_ZN7MeshGui19DockEvaluateMeshImpD0Ev
MeshGui.so:_ZN7MeshGui19DockEvaluateMeshImpD1Ev
MeshGui.so:_ZN7MeshGui19DockEvaluateMeshImpD2Ev
MeshGui.so:_ZN7MeshGui19SegmentationBestFit11changeEventEP6QEvent
MeshGui.so:_ZN7MeshGui19SegmentationBestFit11qt_metacallEN11QMetaObject4CallEiPPv
MeshGui.so:_ZN7MeshGui19SegmentationBestFit11qt_metacastEPKc
MeshGui.so:_ZN7MeshGui19SegmentationBestFit26on_planeParameters_clickedEv
MeshGui.so:_ZN7MeshGui19SegmentationBestFit27on_sphereParameters_clickedEv
MeshGui.so:_ZN7MeshGui19SegmentationBestFit29on_cylinderParameters_clickedEv
MeshGui.so:_ZN7MeshGui19SegmentationBestFit6acceptEv
MeshGui.so:_ZN7MeshGui19SegmentationBestFitC1EPN4Mesh7FeatureEP7QWidget6QFlagsIN2Qt10WindowTypeEE
MeshGui.so:_ZN7MeshGui19SegmentationBestFitC2EPN4Mesh7FeatureEP7QWidget6QFlagsIN2Qt10WindowTypeEE
MeshGui.so:_ZN7MeshGui19SegmentationBestFitD0Ev
MeshGui.so:_ZN7MeshGui19SegmentationBestFitD1Ev
MeshGui.so:_ZN7MeshGui19SegmentationBestFitD2Ev
MeshGui.so:_ZN7MeshGui19SoFCMeshObjectShape11computeBBoxEP8SoActionR7SbBox3fR7SbVec3f
MeshGui.so:_ZN7MeshGui19SoFCMeshObjectShape13stopSelectionEP8SoActionPKN4Mesh10MeshObjectE
MeshGui.so:_ZN7MeshGui19SoFCMeshObjectShape14atexit_cleanupEv
MeshGui.so:_ZN7MeshGui19SoFCMeshObjectShape14createInstanceEv
MeshGui.so:_ZN7MeshGui19SoFCMeshObjectShape14getClassTypeIdEv
MeshGui.so:_ZN7MeshGui19SoFCMeshObjectShape14startSelectionEP8SoActionPKN4Mesh10MeshObjectE
MeshGui.so:_ZN7MeshGui19SoFCMeshObjectShape15getFieldDataPtrEv
MeshGui.so:_ZN7MeshGui19SoFCMeshObjectShape16generateGLArraysEP7SoState
MeshGui.so:_ZN7MeshGui19SoFCMeshObjectShape17getPrimitiveCountEP25SoGetPrimitiveCountAction
MeshGui.so:_ZN7MeshGui19SoFCMeshObjectShape18generatePrimitivesEP8SoAction
MeshGui.so:_ZN7MeshGui19SoFCMeshObjectShape18renderFacesGLArrayEP16SoGLRenderAction
MeshGui.so:_ZN7MeshGui19SoFCMeshObjectShape19renderCoordsGLArrayEP16SoGLRenderAction
MeshGui.so:_ZN7MeshGui19SoFCMeshObjectShape20createTriangleDetailEP15SoRayPickActionPK17SoPrimitiveVertexS5_S5_P13SoPickedPoint
MeshGui.so:_ZN7MeshGui19SoFCMeshObjectShape23renderSelectionGeometryEPKN4Mesh10MeshObjectE
MeshGui.so:_ZN7MeshGui19SoFCMeshObjectShape6notifyEP9SoNotList
MeshGui.so:_ZN7MeshGui19SoFCMeshObjectShape7rayPickEP15SoRayPickAction
MeshGui.so:_ZN7MeshGui19SoFCMeshObjectShape8GLRenderEP16SoGLRenderAction
MeshGui.so:_ZN7MeshGui19SoFCMeshObjectShape8doActionEP8SoAction
MeshGui.so:_ZN7MeshGui19SoFCMeshObjectShape9initClassEv
MeshGui.so:_ZN7MeshGui19SoFCMeshObjectShapeC1Ev
MeshGui.so:_ZN7MeshGui19SoFCMeshObjectShapeC2Ev
MeshGui.so:_ZN7MeshGui19SoFCMeshObjectShapeD0Ev
MeshGui.so:_ZN7MeshGui19SoFCMeshObjectShapeD1Ev
MeshGui.so:_ZN7MeshGui19SoFCMeshObjectShapeD2Ev
MeshGui.so:_ZN7MeshGui20SoFCMeshSegmentShape11computeBBoxEP8SoActionR7SbBox3fR7SbVec3f
MeshGui.so:_ZN7MeshGui20SoFCMeshSegmentShape14atexit_cleanupEv
MeshGui.so:_ZN7MeshGui20SoFCMeshSegmentShape14createInstanceEv
MeshGui.so:_ZN7MeshGui20SoFCMeshSegmentShape14getClassTypeIdEv
MeshGui.so:_ZN7MeshGui20SoFCMeshSegmentShape15getFieldDataPtrEv
MeshGui.so:_ZN7MeshGui20SoFCMeshSegmentShape17getPrimitiveCountEP25SoGetPrimitiveCountAction
MeshGui.so:_ZN7MeshGui20SoFCMeshSegmentShape18generatePrimitivesEP8SoAction
MeshGui.so:_ZN7MeshGui20SoFCMeshSegmentShape8GLRenderEP16SoGLRenderAction
MeshGui.so:_ZN7MeshGui20SoFCMeshSegmentShape9initClassEv
MeshGui.so:_ZN7MeshGui20SoFCMeshSegmentShapeC1Ev
MeshGui.so:_ZN7MeshGui20SoFCMeshSegmentShapeC2Ev
MeshGui.so:_ZN7MeshGui20TaskRemoveComponents11qt_metacallEN11QMetaObject4CallEiPPv
MeshGui.so:_ZN7MeshGui20TaskRemoveComponents11qt_metacastEPKc
MeshGui.so:_ZN7MeshGui20TaskRemoveComponents21modifyStandardButtonsEP16QDialogButtonBox
MeshGui.so:_ZN7MeshGui20TaskRemoveComponents6acceptEv
MeshGui.so:_ZN7MeshGui20TaskRemoveComponents7clickedEi
MeshGui.so:_ZN7MeshGui20TaskRemoveComponentsC1Ev
MeshGui.so:_ZN7MeshGui20TaskRemoveComponentsC2Ev
MeshGui.so:_ZN7MeshGui20TaskRemoveComponentsD0Ev
MeshGui.so:_ZN7MeshGui20TaskRemoveComponentsD1Ev
MeshGui.so:_ZN7MeshGui20TaskRemoveComponentsD2Ev
MeshGui.so:_ZN7MeshGui21SoFCMeshObjectElement11getInstanceEP7SoState
MeshGui.so:_ZN7MeshGui21SoFCMeshObjectElement14createInstanceEv
MeshGui.so:_ZN7MeshGui21SoFCMeshObjectElement14getClassTypeIdEv
MeshGui.so:_ZN7MeshGui21SoFCMeshObjectElement18getClassStackIndexEv
MeshGui.so:_ZN7MeshGui21SoFCMeshObjectElement3getEP7SoState
MeshGui.so:_ZN7MeshGui21SoFCMeshObjectElement3setEP7SoStateP6SoNodePKN4Mesh10MeshObjectE
MeshGui.so:_ZN7MeshGui21SoFCMeshObjectElement4initEP7SoState
MeshGui.so:_ZN7MeshGui21SoFCMeshObjectElement9initClassEv
MeshGui.so:_ZN7MeshGui21SoFCMeshObjectElementC1Ev
MeshGui.so:_ZN7MeshGui21SoFCMeshObjectElementC2Ev
MeshGui.so:_ZN7MeshGui21SoFCMeshObjectElementD0Ev
MeshGui.so:_ZN7MeshGui21SoFCMeshObjectElementD1Ev
MeshGui.so:_ZN7MeshGui21SoFCMeshObjectElementD2Ev
MeshGui.so:_ZN7MeshGui21ViewProviderMeshFolds11showDefectsERKSt6vectorImSaImEE
MeshGui.so:_ZN7MeshGui21ViewProviderMeshFolds14getClassTypeIdEv
MeshGui.so:_ZN7MeshGui21ViewProviderMeshFolds18getPropertyDataPtrEv
MeshGui.so:_ZN7MeshGui21ViewProviderMeshFolds4initEv
MeshGui.so:_ZN7MeshGui21ViewProviderMeshFolds6attachEPN3App14DocumentObjectE
MeshGui.so:_ZN7MeshGui21ViewProviderMeshFolds6createEv
MeshGui.so:_ZN7MeshGui21ViewProviderMeshFoldsC1Ev
MeshGui.so:_ZN7MeshGui21ViewProviderMeshFoldsC2Ev
MeshGui.so:_ZN7MeshGui21ViewProviderMeshFoldsD0Ev
MeshGui.so:_ZN7MeshGui21ViewProviderMeshFoldsD1Ev
MeshGui.so:_ZN7MeshGui21ViewProviderMeshFoldsD2Ev
MeshGui.so:_ZN7MeshGui22PropertyMeshKernelItem10initializeEv
MeshGui.so:_ZN7MeshGui22PropertyMeshKernelItem11qt_metacallEN11QMetaObject4CallEiPPv
MeshGui.so:_ZN7MeshGui22PropertyMeshKernelItem11qt_metacastEPKc
MeshGui.so:_ZN7MeshGui22PropertyMeshKernelItem4initEv
MeshGui.so:_ZN7MeshGui22PropertyMeshKernelItem6createEv
MeshGui.so:_ZN7MeshGui22PropertyMeshKernelItem8setValueERK8QVariant
MeshGui.so:_ZN7MeshGui22PropertyMeshKernelItemC1Ev
MeshGui.so:_ZN7MeshGui22PropertyMeshKernelItemC2Ev
MeshGui.so:_ZN7MeshGui22RemoveComponentsDialog11qt_metacallEN11QMetaObject4CallEiPPv
MeshGui.so:_ZN7MeshGui22RemoveComponentsDialog11qt_metacastEPKc
MeshGui.so:_ZN7MeshGui22RemoveComponentsDialog6rejectEv
MeshGui.so:_ZN7MeshGui22RemoveComponentsDialog7clickedEP15QAbstractButton
MeshGui.so:_ZN7MeshGui22RemoveComponentsDialogC1EP7QWidget6QFlagsIN2Qt10WindowTypeEE
MeshGui.so:_ZN7MeshGui22RemoveComponentsDialogC2EP7QWidget6QFlagsIN2Qt10WindowTypeEE
MeshGui.so:_ZN7MeshGui22RemoveComponentsDialogD0Ev
MeshGui.so:_ZN7MeshGui22RemoveComponentsDialogD1Ev
MeshGui.so:_ZN7MeshGui22RemoveComponentsDialogD2Ev
MeshGui.so:_ZN7MeshGui22SoFCMeshObjectBoundary11computeBBoxEP8SoActionR7SbBox3fR7SbVec3f
MeshGui.so:_ZN7MeshGui22SoFCMeshObjectBoundary14atexit_cleanupEv
MeshGui.so:_ZN7MeshGui22SoFCMeshObjectBoundary14createInstanceEv
MeshGui.so:_ZN7MeshGui22SoFCMeshObjectBoundary14getClassTypeIdEv
MeshGui.so:_ZN7MeshGui22SoFCMeshObjectBoundary15getFieldDataPtrEv
MeshGui.so:_ZN7MeshGui22SoFCMeshObjectBoundary17getPrimitiveCountEP25SoGetPrimitiveCountAction
MeshGui.so:_ZN7MeshGui22SoFCMeshObjectBoundary18generatePrimitivesEP8SoAction
MeshGui.so:_ZN7MeshGui22SoFCMeshObjectBoundary8GLRenderEP16SoGLRenderAction
MeshGui.so:_ZN7MeshGui22SoFCMeshObjectBoundary9initClassEv
MeshGui.so:_ZN7MeshGui22SoFCMeshObjectBoundaryC1Ev
MeshGui.so:_ZN7MeshGui22SoFCMeshObjectBoundaryC2Ev
MeshGui.so:_ZN7MeshGui22ViewProviderMeshObject10updateDataEPKN3App8PropertyE
MeshGui.so:_ZN7MeshGui22ViewProviderMeshObject13showOpenEdgesEb
MeshGui.so:_ZN7MeshGui22ViewProviderMeshObject14getClassTypeIdEv
MeshGui.so:_ZN7MeshGui22ViewProviderMeshObject18getPropertyDataPtrEv
MeshGui.so:_ZN7MeshGui22ViewProviderMeshObject4initEv
MeshGui.so:_ZN7MeshGui22ViewProviderMeshObject6attachEPN3App14DocumentObjectE
MeshGui.so:_ZN7MeshGui22ViewProviderMeshObject6createEv
MeshGui.so:_ZN7MeshGui22ViewProviderMeshObjectC1Ev
MeshGui.so:_ZN7MeshGui22ViewProviderMeshObjectC2Ev
MeshGui.so:_ZN7MeshGui22ViewProviderMeshObjectD0Ev
MeshGui.so:_ZN7MeshGui22ViewProviderMeshObjectD1Ev
MeshGui.so:_ZN7MeshGui22ViewProviderMeshObjectD2Ev
MeshGui.so:_ZN7MeshGui23DlgSettingsImportExport11changeEventEP6QEvent
MeshGui.so:_ZN7MeshGui23DlgSettingsImportExport11qt_metacallEN11QMetaObject4CallEiPPv
MeshGui.so:_ZN7MeshGui23DlgSettingsImportExport11qt_metacastEPKc
MeshGui.so:_ZN7MeshGui23DlgSettingsImportExport12loadSettingsEv
MeshGui.so:_ZN7MeshGui23DlgSettingsImportExport12saveSettingsEv
MeshGui.so:_ZN7MeshGui23DlgSettingsImportExportC1EP7QWidget
MeshGui.so:_ZN7MeshGui23DlgSettingsImportExportC2EP7QWidget
MeshGui.so:_ZN7MeshGui23DlgSettingsImportExportD0Ev
MeshGui.so:_ZN7MeshGui23DlgSettingsImportExportD1Ev
MeshGui.so:_ZN7MeshGui23DlgSettingsImportExportD2Ev
MeshGui.so:_ZN7MeshGui23TaskSegmentationBestFit6acceptEv
MeshGui.so:_ZN7MeshGui23TaskSegmentationBestFitC1EPN4Mesh7FeatureE
MeshGui.so:_ZN7MeshGui23TaskSegmentationBestFitC2EPN4Mesh7FeatureE
MeshGui.so:_ZN7MeshGui23TaskSegmentationBestFitD0Ev
MeshGui.so:_ZN7MeshGui23TaskSegmentationBestFitD1Ev
MeshGui.so:_ZN7MeshGui23TaskSegmentationBestFitD2Ev
MeshGui.so:_ZN7MeshGui23ViewProviderMeshDefects14getClassTypeIdEv
MeshGui.so:_ZN7MeshGui23ViewProviderMeshDefects18getPropertyDataPtrEv
MeshGui.so:_ZN7MeshGui23ViewProviderMeshDefects4initEv
MeshGui.so:_ZN7MeshGui23ViewProviderMeshDefects6createEv
MeshGui.so:_ZN7MeshGui23ViewProviderMeshDefects9onChangedEPKN3App8PropertyE
MeshGui.so:_ZN7MeshGui23ViewProviderMeshDefectsC1Ev
MeshGui.so:_ZN7MeshGui23ViewProviderMeshDefectsC2Ev
MeshGui.so:_ZN7MeshGui23ViewProviderMeshDefectsD0Ev
MeshGui.so:_ZN7MeshGui23ViewProviderMeshDefectsD1Ev
MeshGui.so:_ZN7MeshGui23ViewProviderMeshDefectsD2Ev
MeshGui.so:_ZN7MeshGui23ViewProviderMeshFaceSet10updateDataEPKN3App8PropertyE
MeshGui.so:_ZN7MeshGui23ViewProviderMeshFaceSet13showOpenEdgesEb
MeshGui.so:_ZN7MeshGui23ViewProviderMeshFaceSet14getClassTypeIdEv
MeshGui.so:_ZN7MeshGui23ViewProviderMeshFaceSet18getPropertyDataPtrEv
MeshGui.so:_ZN7MeshGui23ViewProviderMeshFaceSet4initEv
MeshGui.so:_ZN7MeshGui23ViewProviderMeshFaceSet6attachEPN3App14DocumentObjectE
MeshGui.so:_ZN7MeshGui23ViewProviderMeshFaceSet6createEv
MeshGui.so:_ZN7MeshGui23ViewProviderMeshFaceSetC1Ev
MeshGui.so:_ZN7MeshGui23ViewProviderMeshFaceSetC2Ev
MeshGui.so:_ZN7MeshGui23ViewProviderMeshFaceSetD0Ev
MeshGui.so:_ZN7MeshGui23ViewProviderMeshFaceSetD1Ev
MeshGui.so:_ZN7MeshGui23ViewProviderMeshFaceSetD2Ev
MeshGui.so:_ZN7MeshGui23ViewProviderMeshIndices11showDefectsERKSt6vectorImSaImEE
MeshGui.so:_ZN7MeshGui23ViewProviderMeshIndices14getClassTypeIdEv
MeshGui.so:_ZN7MeshGui23ViewProviderMeshIndices18getPropertyDataPtrEv
MeshGui.so:_ZN7MeshGui23ViewProviderMeshIndices4initEv
MeshGui.so:_ZN7MeshGui23ViewProviderMeshIndices6attachEPN3App14DocumentObjectE
MeshGui.so:_ZN7MeshGui23ViewProviderMeshIndices6createEv
MeshGui.so:_ZN7MeshGui23ViewProviderMeshIndicesC1Ev
MeshGui.so:_ZN7MeshGui23ViewProviderMeshIndicesC2Ev
MeshGui.so:_ZN7MeshGui23ViewProviderMeshIndicesD0Ev
MeshGui.so:_ZN7MeshGui23ViewProviderMeshIndicesD1Ev
MeshGui.so:_ZN7MeshGui23ViewProviderMeshIndicesD2Ev
MeshGui.so:_ZN7MeshGui24SingleDlgRegularSolidImp11hasInstanceEv
MeshGui.so:_ZN7MeshGui24SingleDlgRegularSolidImp8destructEv
MeshGui.so:_ZN7MeshGui24SingleDlgRegularSolidImp8instanceEv
MeshGui.so:_ZN7MeshGui24SingleDlgRegularSolidImpC1EP7QWidget6QFlagsIN2Qt10WindowTypeEE
MeshGui.so:_ZN7MeshGui24SingleDlgRegularSolidImpC2EP7QWidget6QFlagsIN2Qt10WindowTypeEE
MeshGui.so:_ZN7MeshGui24SingleDlgRegularSolidImpD0Ev
MeshGui.so:_ZN7MeshGui24SingleDlgRegularSolidImpD1Ev
MeshGui.so:_ZN7MeshGui24SingleDlgRegularSolidImpD2Ev
MeshGui.so:_ZN7MeshGui25ViewProviderMeshCurvature10updateDataEPKN3App8PropertyE
MeshGui.so:_ZN7MeshGui25ViewProviderMeshCurvature14getClassTypeIdEv
MeshGui.so:_ZN7MeshGui25ViewProviderMeshCurvature14setDisplayModeEPKc
MeshGui.so:_ZN7MeshGui25ViewProviderMeshCurvature17slotChangedObjectERKN3App14DocumentObjectERKNS1_8PropertyE
MeshGui.so:_ZN7MeshGui25ViewProviderMeshCurvature18getPropertyDataPtrEv
MeshGui.so:_ZN7MeshGui25ViewProviderMeshCurvature21curvatureInfoCallbackEPvP15SoEventCallback
MeshGui.so:_ZN7MeshGui25ViewProviderMeshCurvature22setVertexCurvatureModeEi
MeshGui.so:_ZN7MeshGui25ViewProviderMeshCurvature4hideEv
MeshGui.so:_ZN7MeshGui25ViewProviderMeshCurvature4initEPKN4Mesh21PropertyCurvatureListE
MeshGui.so:_ZN7MeshGui25ViewProviderMeshCurvature4initEv
MeshGui.so:_ZN7MeshGui25ViewProviderMeshCurvature4showEv
MeshGui.so:_ZN7MeshGui25ViewProviderMeshCurvature6attachEPN3App14DocumentObjectE
MeshGui.so:_ZN7MeshGui25ViewProviderMeshCurvature6createEv
MeshGui.so:_ZN7MeshGui25ViewProviderMeshCurvature8OnChangeERN4Base7SubjectIiEEi
MeshGui.so:_ZN7MeshGui25ViewProviderMeshCurvature9onChangedEPKN3App8PropertyE
MeshGui.so:_ZN7MeshGui25ViewProviderMeshCurvatureC1Ev
MeshGui.so:_ZN7MeshGui25ViewProviderMeshCurvatureC2Ev
MeshGui.so:_ZN7MeshGui25ViewProviderMeshCurvatureD0Ev
MeshGui.so:_ZN7MeshGui25ViewProviderMeshCurvatureD1Ev
MeshGui.so:_ZN7MeshGui25ViewProviderMeshCurvatureD2Ev
MeshGui.so:_ZN7MeshGui25ViewProviderMeshTransform10updateDataEPKN3App8PropertyE
MeshGui.so:_ZN7MeshGui25ViewProviderMeshTransform14getClassTypeIdEv
MeshGui.so:_ZN7MeshGui25ViewProviderMeshTransform14setDisplayModeEPKc
MeshGui.so:_ZN7MeshGui25ViewProviderMeshTransform18getPropertyDataPtrEv
MeshGui.so:_ZN7MeshGui25ViewProviderMeshTransform4initEv
MeshGui.so:_ZN7MeshGui25ViewProviderMeshTransform6attachEPN3App14DocumentObjectE
MeshGui.so:_ZN7MeshGui25ViewProviderMeshTransform6createEv
MeshGui.so:_ZN7MeshGui25ViewProviderMeshTransformC1Ev
MeshGui.so:_ZN7MeshGui25ViewProviderMeshTransformC2Ev
MeshGui.so:_ZN7MeshGui25ViewProviderMeshTransformD0Ev
MeshGui.so:_ZN7MeshGui25ViewProviderMeshTransformD1Ev
MeshGui.so:_ZN7MeshGui25ViewProviderMeshTransformD2Ev
MeshGui.so:_ZN7MeshGui26ViewProviderIndexedFaceSet10updateDataEPKN3App8PropertyE
MeshGui.so:_ZN7MeshGui26ViewProviderIndexedFaceSet13showOpenEdgesEb
MeshGui.so:_ZN7MeshGui26ViewProviderIndexedFaceSet14getClassTypeIdEv
MeshGui.so:_ZN7MeshGui26ViewProviderIndexedFaceSet18getPropertyDataPtrEv
MeshGui.so:_ZN7MeshGui26ViewProviderIndexedFaceSet4initEv
MeshGui.so:_ZN7MeshGui26ViewProviderIndexedFaceSet6attachEPN3App14DocumentObjectE
MeshGui.so:_ZN7MeshGui26ViewProviderIndexedFaceSet6createEv
MeshGui.so:_ZN7MeshGui26ViewProviderIndexedFaceSetC1Ev
MeshGui.so:_ZN7MeshGui26ViewProviderIndexedFaceSetC2Ev
MeshGui.so:_ZN7MeshGui26ViewProviderIndexedFaceSetD0Ev
MeshGui.so:_ZN7MeshGui26ViewProviderIndexedFaceSetD1Ev
MeshGui.so:_ZN7MeshGui26ViewProviderIndexedFaceSetD2Ev
MeshGui.so:_ZN7MeshGui27ViewProviderMeshOrientation11showDefectsERKSt6vectorImSaImEE
MeshGui.so:_ZN7MeshGui27ViewProviderMeshOrientation14getClassTypeIdEv
MeshGui.so:_ZN7MeshGui27ViewProviderMeshOrientation18getPropertyDataPtrEv
MeshGui.so:_ZN7MeshGui27ViewProviderMeshOrientation4initEv
MeshGui.so:_ZN7MeshGui27ViewProviderMeshOrientation6attachEPN3App14DocumentObjectE
MeshGui.so:_ZN7MeshGui27ViewProviderMeshOrientation6createEv
MeshGui.so:_ZN7MeshGui27ViewProviderMeshOrientationC1Ev
MeshGui.so:_ZN7MeshGui27ViewProviderMeshOrientationC2Ev
MeshGui.so:_ZN7MeshGui27ViewProviderMeshOrientationD0Ev
MeshGui.so:_ZN7MeshGui27ViewProviderMeshOrientationD1Ev
MeshGui.so:_ZN7MeshGui27ViewProviderMeshOrientationD2Ev
MeshGui.so:_ZN7MeshGui28ViewProviderMeshNonManifolds11showDefectsERKSt6vectorImSaImEE
MeshGui.so:_ZN7MeshGui28ViewProviderMeshNonManifolds14getClassTypeIdEv
MeshGui.so:_ZN7MeshGui28ViewProviderMeshNonManifolds18getPropertyDataPtrEv
MeshGui.so:_ZN7MeshGui28ViewProviderMeshNonManifolds4initEv
MeshGui.so:_ZN7MeshGui28ViewProviderMeshNonManifolds6attachEPN3App14DocumentObjectE
MeshGui.so:_ZN7MeshGui28ViewProviderMeshNonManifolds6createEv
MeshGui.so:_ZN7MeshGui28ViewProviderMeshNonManifoldsC1Ev
MeshGui.so:_ZN7MeshGui28ViewProviderMeshNonManifoldsC2Ev
MeshGui.so:_ZN7MeshGui28ViewProviderMeshNonManifoldsD0Ev
MeshGui.so:_ZN7MeshGui28ViewProviderMeshNonManifoldsD1Ev
MeshGui.so:_ZN7MeshGui28ViewProviderMeshNonManifoldsD2Ev
MeshGui.so:_ZN7MeshGui29ViewProviderMeshDegenerations11showDefectsERKSt6vectorImSaImEE
MeshGui.so:_ZN7MeshGui29ViewProviderMeshDegenerations14getClassTypeIdEv
MeshGui.so:_ZN7MeshGui29ViewProviderMeshDegenerations18getPropertyDataPtrEv
MeshGui.so:_ZN7MeshGui29ViewProviderMeshDegenerations4initEv
MeshGui.so:_ZN7MeshGui29ViewProviderMeshDegenerations6attachEPN3App14DocumentObjectE
MeshGui.so:_ZN7MeshGui29ViewProviderMeshDegenerations6createEv
MeshGui.so:_ZN7MeshGui29ViewProviderMeshDegenerationsC1Ev
MeshGui.so:_ZN7MeshGui29ViewProviderMeshDegenerationsC2Ev
MeshGui.so:_ZN7MeshGui29ViewProviderMeshDegenerationsD0Ev
MeshGui.so:_ZN7MeshGui29ViewProviderMeshDegenerationsD1Ev
MeshGui.so:_ZN7MeshGui29ViewProviderMeshDegenerationsD2Ev
MeshGui.so:_ZN7MeshGui31ViewProviderMeshDuplicatedFaces11showDefectsERKSt6vectorImSaImEE
MeshGui.so:_ZN7MeshGui31ViewProviderMeshDuplicatedFaces14getClassTypeIdEv
MeshGui.so:_ZN7MeshGui31ViewProviderMeshDuplicatedFaces18getPropertyDataPtrEv
MeshGui.so:_ZN7MeshGui31ViewProviderMeshDuplicatedFaces4initEv
MeshGui.so:_ZN7MeshGui31ViewProviderMeshDuplicatedFaces6attachEPN3App14DocumentObjectE
MeshGui.so:_ZN7MeshGui31ViewProviderMeshDuplicatedFaces6createEv
MeshGui.so:_ZN7MeshGui31ViewProviderMeshDuplicatedFacesC1Ev
MeshGui.so:_ZN7MeshGui31ViewProviderMeshDuplicatedFacesC2Ev
MeshGui.so:_ZN7MeshGui31ViewProviderMeshDuplicatedFacesD0Ev
MeshGui.so:_ZN7MeshGui31ViewProviderMeshDuplicatedFacesD1Ev
MeshGui.so:_ZN7MeshGui31ViewProviderMeshDuplicatedFacesD2Ev
MeshGui.so:_ZN7MeshGui32ViewProviderMeshDuplicatedPoints11showDefectsERKSt6vectorImSaImEE
MeshGui.so:_ZN7MeshGui32ViewProviderMeshDuplicatedPoints14getClassTypeIdEv
MeshGui.so:_ZN7MeshGui32ViewProviderMeshDuplicatedPoints18getPropertyDataPtrEv
MeshGui.so:_ZN7MeshGui32ViewProviderMeshDuplicatedPoints4initEv
MeshGui.so:_ZN7MeshGui32ViewProviderMeshDuplicatedPoints6attachEPN3App14DocumentObjectE
MeshGui.so:_ZN7MeshGui32ViewProviderMeshDuplicatedPoints6createEv
MeshGui.so:_ZN7MeshGui32ViewProviderMeshDuplicatedPointsC1Ev
MeshGui.so:_ZN7MeshGui32ViewProviderMeshDuplicatedPointsC2Ev
MeshGui.so:_ZN7MeshGui32ViewProviderMeshDuplicatedPointsD0Ev
MeshGui.so:_ZN7MeshGui32ViewProviderMeshDuplicatedPointsD1Ev
MeshGui.so:_ZN7MeshGui32ViewProviderMeshDuplicatedPointsD2Ev
MeshGui.so:_ZN7MeshGui33ViewProviderMeshNonManifoldPoints11showDefectsERKSt6vectorImSaImEE
MeshGui.so:_ZN7MeshGui33ViewProviderMeshNonManifoldPoints14getClassTypeIdEv
MeshGui.so:_ZN7MeshGui33ViewProviderMeshNonManifoldPoints18getPropertyDataPtrEv
MeshGui.so:_ZN7MeshGui33ViewProviderMeshNonManifoldPoints4initEv
MeshGui.so:_ZN7MeshGui33ViewProviderMeshNonManifoldPoints6attachEPN3App14DocumentObjectE
MeshGui.so:_ZN7MeshGui33ViewProviderMeshNonManifoldPoints6createEv
MeshGui.so:_ZN7MeshGui33ViewProviderMeshNonManifoldPointsC1Ev
MeshGui.so:_ZN7MeshGui33ViewProviderMeshNonManifoldPointsC2Ev
MeshGui.so:_ZN7MeshGui33ViewProviderMeshNonManifoldPointsD0Ev
MeshGui.so:_ZN7MeshGui33ViewProviderMeshNonManifoldPointsD1Ev
MeshGui.so:_ZN7MeshGui33ViewProviderMeshNonManifoldPointsD2Ev
MeshGui.so:_ZN7MeshGui33ViewProviderMeshSelfIntersections11showDefectsERKSt6vectorImSaImEE
MeshGui.so:_ZN7MeshGui33ViewProviderMeshSelfIntersections14getClassTypeIdEv
MeshGui.so:_ZN7MeshGui33ViewProviderMeshSelfIntersections18getPropertyDataPtrEv
MeshGui.so:_ZN7MeshGui33ViewProviderMeshSelfIntersections4initEv
MeshGui.so:_ZN7MeshGui33ViewProviderMeshSelfIntersections6attachEPN3App14DocumentObjectE
MeshGui.so:_ZN7MeshGui33ViewProviderMeshSelfIntersections6createEv
MeshGui.so:_ZN7MeshGui33ViewProviderMeshSelfIntersectionsC1Ev
MeshGui.so:_ZN7MeshGui33ViewProviderMeshSelfIntersectionsC2Ev
MeshGui.so:_ZN7MeshGui33ViewProviderMeshSelfIntersectionsD0Ev
MeshGui.so:_ZN7MeshGui33ViewProviderMeshSelfIntersectionsD1Ev
MeshGui.so:_ZN7MeshGui33ViewProviderMeshSelfIntersectionsD2Ev
MeshGui.so:_ZN7MeshGui34ViewProviderMeshTransformDemolding14getClassTypeIdEv
MeshGui.so:_ZN7MeshGui34ViewProviderMeshTransformDemolding14setDisplayModeEPKc
MeshGui.so:_ZN7MeshGui34ViewProviderMeshTransformDemolding15DragEndCallbackEv
MeshGui.so:_ZN7MeshGui34ViewProviderMeshTransformDemolding16calcNormalVectorEv
MeshGui.so:_ZN7MeshGui34ViewProviderMeshTransformDemolding16sDragEndCallbackEPvP9SoDragger
MeshGui.so:_ZN7MeshGui34ViewProviderMeshTransformDemolding17calcMaterialIndexERK10SbRotation
MeshGui.so:_ZN7MeshGui34ViewProviderMeshTransformDemolding18getPropertyDataPtrEv
MeshGui.so:_ZN7MeshGui34ViewProviderMeshTransformDemolding20valueChangedCallbackEv
MeshGui.so:_ZN7MeshGui34ViewProviderMeshTransformDemolding21sValueChangedCallbackEPvP9SoDragger
MeshGui.so:_ZN7MeshGui34ViewProviderMeshTransformDemolding4initEv
MeshGui.so:_ZN7MeshGui34ViewProviderMeshTransformDemolding6attachEPN3App14DocumentObjectE
MeshGui.so:_ZN7MeshGui34ViewProviderMeshTransformDemolding6createEv
MeshGui.so:_ZN7MeshGui34ViewProviderMeshTransformDemoldingC1Ev
MeshGui.so:_ZN7MeshGui34ViewProviderMeshTransformDemoldingC2Ev
MeshGui.so:_ZN7MeshGui34ViewProviderMeshTransformDemoldingD0Ev
MeshGui.so:_ZN7MeshGui34ViewProviderMeshTransformDemoldingD1Ev
MeshGui.so:_ZN7MeshGui34ViewProviderMeshTransformDemoldingD2Ev
MeshGui.so:_ZN7MeshGui9Selection10setObjectsERKSt6vectorIN3Gui15SelectionObjectESaIS3_EE
MeshGui.so:_ZN7MeshGui9Selection11eventFilterEP7QObjectP6QEvent
MeshGui.so:_ZN7MeshGui9Selection11qt_metacallEN11QMetaObject4CallEiPPv
MeshGui.so:_ZN7MeshGui9Selection11qt_metacastEPKc
MeshGui.so:_ZN7MeshGui9Selection23on_addSelection_clickedEv
MeshGui.so:_ZN7MeshGui9Selection25on_clearSelection_clickedEv
MeshGui.so:_ZN7MeshGui9Selection26on_screenTriangles_toggledEb
MeshGui.so:_ZN7MeshGui9Selection27on_visibleTriangles_toggledEb
MeshGui.so:_ZN7MeshGui9SelectionC1EP7QWidget
MeshGui.so:_ZN7MeshGui9SelectionC2EP7QWidget
MeshGui.so:_ZN7MeshGui9SelectionD0Ev
MeshGui.so:_ZN7MeshGui9SelectionD1Ev
MeshGui.so:_ZN7MeshGui9SelectionD2Ev
MeshGui.so:_ZN7MeshGui9SoPolygon11computeBBoxEP8SoActionR7SbBox3fR7SbVec3f
MeshGui.so:_ZN7MeshGui9SoPolygon14atexit_cleanupEv
MeshGui.so:_ZN7MeshGui9SoPolygon14createInstanceEv
MeshGui.so:_ZN7MeshGui9SoPolygon14getClassTypeIdEv
MeshGui.so:_ZN7MeshGui9SoPolygon15getFieldDataPtrEv
MeshGui.so:_ZN7MeshGui9SoPolygon18generatePrimitivesEP8SoAction
MeshGui.so:_ZN7MeshGui9SoPolygon7rayPickEP15SoRayPickAction
MeshGui.so:_ZN7MeshGui9SoPolygon8GLRenderEP16SoGLRenderAction
MeshGui.so:_ZN7MeshGui9SoPolygon9initClassEv
MeshGui.so:_ZN7MeshGui9SoPolygonC1Ev
MeshGui.so:_ZN7MeshGui9SoPolygonC2Ev
MeshGui.so:_ZN7MeshGui9Workbench11deactivatedEv
MeshGui.so:_ZN7MeshGui9Workbench14getClassTypeIdEv
MeshGui.so:_ZN7MeshGui9Workbench4initEv
MeshGui.so:_ZN7MeshGui9Workbench6createEv
MeshGui.so:_ZN7MeshGui9Workbench9activatedEv
MeshGui.so:_ZN7MeshGui9WorkbenchC1Ev
MeshGui.so:_ZN7MeshGui9WorkbenchC2Ev
MeshGui.so:_ZN7MeshGui9WorkbenchD0Ev
MeshGui.so:_ZN7MeshGui9WorkbenchD1Ev
MeshGui.so:_ZN7MeshGui9WorkbenchD2Ev
MeshGui.so:_ZNK3Gui26ViewProviderPythonFeatureTIN7MeshGui23ViewProviderMeshFaceSetEE15getPropertyDataEv
MeshGui.so:_ZNK3Gui26ViewProviderPythonFeatureTIN7MeshGui23ViewProviderMeshFaceSetEE9getTypeIdEv
MeshGui.so:_ZNK7MeshGui12DlgSmoothing10iterationsEv
MeshGui.so:_ZNK7MeshGui12DlgSmoothing10lambdaStepEv
MeshGui.so:_ZNK7MeshGui12DlgSmoothing10metaObjectEv
MeshGui.so:_ZNK7MeshGui12DlgSmoothing15smoothSelectionEv
MeshGui.so:_ZNK7MeshGui12DlgSmoothing6methodEv
MeshGui.so:_ZNK7MeshGui12DlgSmoothing9microStepEv
MeshGui.so:_ZNK7MeshGui12MeshFillHole10metaObjectEv
MeshGui.so:_ZNK7MeshGui12MeshFillHole16findClosestPointERK6SbLineRKSt6vectorImSaImEERmR7SbVec3f
MeshGui.so:_ZNK7MeshGui12MeshFillHole16getPickedPolygonERK15SoRayPickAction
MeshGui.so:_ZNK7MeshGui12MeshRenderer13matchMaterialEP7SoState
MeshGui.so:_ZNK7MeshGui12MeshRenderer16canRenderGLArrayEP16SoGLRenderAction
MeshGui.so:_ZNK7MeshGui12MeshRenderer7Private16canRenderGLArrayEP16SoGLRenderAction
MeshGui.so:_ZNK7MeshGui13MeshSelection10getObjectsEv
MeshGui.so:_ZNK7MeshGui13MeshSelection16getViewProvidersB5cxx11Ev
MeshGui.so:_ZNK7MeshGui13MeshSelection29isCheckedOnlyVisibleTrianglesEv
MeshGui.so:_ZNK7MeshGui13MeshSelection33isCheckedOnlyPointToUserTrianglesEv
MeshGui.so:_ZNK7MeshGui13MeshSelection9getViewerEv
MeshGui.so:_ZNK7MeshGui13TaskSmoothing10metaObjectEv
MeshGui.so:_ZNK7MeshGui14CleanupHandler10metaObjectEv
MeshGui.so:_ZNK7MeshGui14SoSFMeshObject10writeValueEP8SoOutput
MeshGui.so:_ZNK7MeshGui14SoSFMeshObject6isSameERK7SoField
MeshGui.so:_ZNK7MeshGui14SoSFMeshObject9getTypeIdEv
MeshGui.so:_ZNK7MeshGui14SoSFMeshObjecteqERKS0_
MeshGui.so:_ZNK7MeshGui15SmoothingDialog10metaObjectEv
MeshGui.so:_ZNK7MeshGui16MeshFaceAddition10metaObjectEv
MeshGui.so:_ZNK7MeshGui16ParametersDialog10metaObjectEv
MeshGui.so:_ZNK7MeshGui16RemoveComponents10metaObjectEv
MeshGui.so:_ZNK7MeshGui16SoFCMeshGridNode12getFieldDataEv
MeshGui.so:_ZNK7MeshGui16SoFCMeshGridNode9getTypeIdEv
MeshGui.so:_ZNK7MeshGui16SoFCMeshPickNode12getFieldDataEv
MeshGui.so:_ZNK7MeshGui16SoFCMeshPickNode9getTypeIdEv
MeshGui.so:_ZNK7MeshGui16ViewProviderFace14getPickedPointERK7SbVec2sPKN3Gui20View3DInventorViewerE
MeshGui.so:_ZNK7MeshGui16ViewProviderFace15getDisplayModesB5cxx11Ev
MeshGui.so:_ZNK7MeshGui16ViewProviderFace15getPropertyDataEv
MeshGui.so:_ZNK7MeshGui16ViewProviderFace21getDefaultDisplayModeEv
MeshGui.so:_ZNK7MeshGui16ViewProviderFace9getTypeIdEv
MeshGui.so:_ZNK7MeshGui16ViewProviderMesh10exportMeshEPKcS2_
MeshGui.so:_ZNK7MeshGui16ViewProviderMesh12exportToVrmlEPKcRKN8MeshCore8MaterialEb
MeshGui.so:_ZNK7MeshGui16ViewProviderMesh12getCoordNodeEv
MeshGui.so:_ZNK7MeshGui16ViewProviderMesh12getShapeNodeEv
MeshGui.so:_ZNK7MeshGui16ViewProviderMesh12hasSelectionEv
MeshGui.so:_ZNK7MeshGui16ViewProviderMesh15getDisplayModesB5cxx11Ev
MeshGui.so:_ZNK7MeshGui16ViewProviderMesh15getPropertyDataEv
MeshGui.so:_ZNK7MeshGui16ViewProviderMesh16getColorPropertyEv
MeshGui.so:_ZNK7MeshGui16ViewProviderMesh16getVisibleFacetsERK16SbViewportRegionP8SoCamera
MeshGui.so:_ZNK7MeshGui16ViewProviderMesh17getFacetsOfRegionERK16SbViewportRegionS3_P8SoCamera
MeshGui.so:_ZNK7MeshGui16ViewProviderMesh20getFacetsFromPolygonERKSt6vectorI7SbVec2fSaIS2_EERKN4Base14ViewProjMethodEiRS1_ImSaImEE
MeshGui.so:_ZNK7MeshGui16ViewProviderMesh25getVisibleFacetsAfterZoomERK7SbBox2sRK16SbViewportRegionP8SoCamera
MeshGui.so:_ZNK7MeshGui16ViewProviderMesh7getIconEv
MeshGui.so:_ZNK7MeshGui16ViewProviderMesh9getTypeIdEv
MeshGui.so:_ZNK7MeshGui18DlgEvaluateMeshImp10metaObjectEv
MeshGui.so:_ZNK7MeshGui18DlgRegularSolidImp10metaObjectEv
MeshGui.so:_ZNK7MeshGui18SoFCIndexedFaceSet12getFieldDataEv
MeshGui.so:_ZNK7MeshGui18SoFCIndexedFaceSet9getTypeIdEv
MeshGui.so:_ZNK7MeshGui18SoFCMaterialEngine12getFieldDataEv
MeshGui.so:_ZNK7MeshGui18SoFCMaterialEngine13getOutputDataEv
MeshGui.so:_ZNK7MeshGui18SoFCMaterialEngine9getTypeIdEv
MeshGui.so:_ZNK7MeshGui18SoFCMeshObjectNode12getFieldDataEv
MeshGui.so:_ZNK7MeshGui18SoFCMeshObjectNode9getTypeIdEv
MeshGui.so:_ZNK7MeshGui18ViewProviderExport15getDisplayModesB5cxx11Ev
MeshGui.so:_ZNK7MeshGui18ViewProviderExport15getPropertyDataEv
MeshGui.so:_ZNK7MeshGui18ViewProviderExport21getDefaultDisplayModeEv
MeshGui.so:_ZNK7MeshGui18ViewProviderExport7getIconEv
MeshGui.so:_ZNK7MeshGui18ViewProviderExport9getTypeIdEv
MeshGui.so:_ZNK7MeshGui18ViewProviderMeshPy14representationB5cxx11Ev
MeshGui.so:_ZNK7MeshGui18ViewProviderMeshPy19getCustomAttributesEPKc
MeshGui.so:_ZNK7MeshGui18ViewProviderMeshPy22getViewProviderMeshPtrEv
MeshGui.so:_ZNK7MeshGui19DlgEvaluateSettings10metaObjectEv
MeshGui.so:_ZNK7MeshGui19DlgEvaluateSettings14isFoldsCheckedEv
MeshGui.so:_ZNK7MeshGui19DlgEvaluateSettings26isDegeneratedFacetsCheckedEv
MeshGui.so:_ZNK7MeshGui19DlgEvaluateSettings26isNonmanifoldPointsCheckedEv
MeshGui.so:_ZNK7MeshGui19DlgSettingsMeshView10metaObjectEv
MeshGui.so:_ZNK7MeshGui19DockEvaluateMeshImp10metaObjectEv
MeshGui.so:_ZNK7MeshGui19DockEvaluateMeshImp8sizeHintEv
MeshGui.so:_ZNK7MeshGui19SegmentationBestFit10metaObjectEv
MeshGui.so:_ZNK7MeshGui19SoFCMeshObjectShape10drawPointsEPKN4Mesh10MeshObjectEii
MeshGui.so:_ZNK7MeshGui19SoFCMeshObjectShape12getFieldDataEv
MeshGui.so:_ZNK7MeshGui19SoFCMeshObjectShape14countTrianglesEP8SoAction
MeshGui.so:_ZNK7MeshGui19SoFCMeshObjectShape19findMaterialBindingEP7SoState
MeshGui.so:_ZNK7MeshGui19SoFCMeshObjectShape9drawFacesEPKN4Mesh10MeshObjectEP16SoMaterialBundleNS0_7BindingEii
MeshGui.so:_ZNK7MeshGui19SoFCMeshObjectShape9getTypeIdEv
MeshGui.so:_ZNK7MeshGui20SoFCMeshSegmentShape10drawPointsEPKN4Mesh10MeshObjectEii
MeshGui.so:_ZNK7MeshGui20SoFCMeshSegmentShape12getFieldDataEv
MeshGui.so:_ZNK7MeshGui20SoFCMeshSegmentShape19findMaterialBindingEP7SoState
MeshGui.so:_ZNK7MeshGui20SoFCMeshSegmentShape9drawFacesEPKN4Mesh10MeshObjectEP16SoMaterialBundleNS0_7BindingEii
MeshGui.so:_ZNK7MeshGui20SoFCMeshSegmentShape9getTypeIdEv
MeshGui.so:_ZNK7MeshGui20TaskRemoveComponents10metaObjectEv
MeshGui.so:_ZNK7MeshGui21SoFCMeshObjectElement5printEP8_IO_FILE
MeshGui.so:_ZNK7MeshGui21ViewProviderMeshFolds15getPropertyDataEv
MeshGui.so:_ZNK7MeshGui21ViewProviderMeshFolds9getTypeIdEv
MeshGui.so:_ZNK7MeshGui22PropertyMeshKernelItem10countEdgesEv
MeshGui.so:_ZNK7MeshGui22PropertyMeshKernelItem10countFacesEv
MeshGui.so:_ZNK7MeshGui22PropertyMeshKernelItem10editorDataEP7QWidget
MeshGui.so:_ZNK7MeshGui22PropertyMeshKernelItem10metaObjectEv
MeshGui.so:_ZNK7MeshGui22PropertyMeshKernelItem11countPointsEv
MeshGui.so:_ZNK7MeshGui22PropertyMeshKernelItem12createEditorEP7QWidgetPK7QObjectPKc
MeshGui.so:_ZNK7MeshGui22PropertyMeshKernelItem13setEditorDataEP7QWidgetRK8QVariant
MeshGui.so:_ZNK7MeshGui22PropertyMeshKernelItem5valueEPKN3App8PropertyE
MeshGui.so:_ZNK7MeshGui22PropertyMeshKernelItem7toolTipEPKN3App8PropertyE
MeshGui.so:_ZNK7MeshGui22RemoveComponentsDialog10metaObjectEv
MeshGui.so:_ZNK7MeshGui22SoFCMeshObjectBoundary12getFieldDataEv
MeshGui.so:_ZNK7MeshGui22SoFCMeshObjectBoundary9drawLinesEPKN4Mesh10MeshObjectE
MeshGui.so:_ZNK7MeshGui22SoFCMeshObjectBoundary9getTypeIdEv
MeshGui.so:_ZNK7MeshGui22ViewProviderMeshObject12getCoordNodeEv
MeshGui.so:_ZNK7MeshGui22ViewProviderMeshObject12getShapeNodeEv
MeshGui.so:_ZNK7MeshGui22ViewProviderMeshObject15getPropertyDataEv
MeshGui.so:_ZNK7MeshGui22ViewProviderMeshObject9getTypeIdEv
MeshGui.so:_ZNK7MeshGui23DlgSettingsImportExport10metaObjectEv
MeshGui.so:_ZNK7MeshGui23ViewProviderMeshBuilder10buildNodesEPKN3App8PropertyERSt6vectorIP6SoNodeSaIS7_EE
MeshGui.so:_ZNK7MeshGui23ViewProviderMeshBuilder10createMeshEPKN3App8PropertyEP13SoCoordinate3P16SoIndexedFaceSet
MeshGui.so:_ZNK7MeshGui23ViewProviderMeshDefects15getPropertyDataEv
MeshGui.so:_ZNK7MeshGui23ViewProviderMeshDefects9getTypeIdEv
MeshGui.so:_ZNK7MeshGui23ViewProviderMeshFaceSet12getCoordNodeEv
MeshGui.so:_ZNK7MeshGui23ViewProviderMeshFaceSet12getShapeNodeEv
MeshGui.so:_ZNK7MeshGui23ViewProviderMeshFaceSet15getPropertyDataEv
MeshGui.so:_ZNK7MeshGui23ViewProviderMeshFaceSet9getTypeIdEv
MeshGui.so:_ZNK7MeshGui23ViewProviderMeshIndices15getPropertyDataEv
MeshGui.so:_ZNK7MeshGui23ViewProviderMeshIndices9getTypeIdEv
MeshGui.so:_ZNK7MeshGui25ViewProviderMeshCurvature12getFrontRootEv
MeshGui.so:_ZNK7MeshGui25ViewProviderMeshCurvature13curvatureInfoB5cxx11Ebiii
MeshGui.so:_ZNK7MeshGui25ViewProviderMeshCurvature15getDisplayModesB5cxx11Ev
MeshGui.so:_ZNK7MeshGui25ViewProviderMeshCurvature15getPropertyDataEv
MeshGui.so:_ZNK7MeshGui25ViewProviderMeshCurvature21getDefaultDisplayModeEv
MeshGui.so:_ZNK7MeshGui25ViewProviderMeshCurvature7getIconEv
MeshGui.so:_ZNK7MeshGui25ViewProviderMeshCurvature9getTypeIdEv
MeshGui.so:_ZNK7MeshGui25ViewProviderMeshTransform15getDisplayModesB5cxx11Ev
MeshGui.so:_ZNK7MeshGui25ViewProviderMeshTransform15getPropertyDataEv
MeshGui.so:_ZNK7MeshGui25ViewProviderMeshTransform21getDefaultDisplayModeEv
MeshGui.so:_ZNK7MeshGui25ViewProviderMeshTransform9getTypeIdEv
MeshGui.so:_ZNK7MeshGui26ViewProviderIndexedFaceSet12getCoordNodeEv
MeshGui.so:_ZNK7MeshGui26ViewProviderIndexedFaceSet12getShapeNodeEv
MeshGui.so:_ZNK7MeshGui26ViewProviderIndexedFaceSet15getPropertyDataEv
MeshGui.so:_ZNK7MeshGui26ViewProviderIndexedFaceSet9getTypeIdEv
MeshGui.so:_ZNK7MeshGui27ViewProviderMeshOrientation15getPropertyDataEv
MeshGui.so:_ZNK7MeshGui27ViewProviderMeshOrientation9getTypeIdEv
MeshGui.so:_ZNK7MeshGui28ViewProviderMeshNonManifolds15getPropertyDataEv
MeshGui.so:_ZNK7MeshGui28ViewProviderMeshNonManifolds9getTypeIdEv
MeshGui.so:_ZNK7MeshGui29ViewProviderMeshDegenerations15getPropertyDataEv
MeshGui.so:_ZNK7MeshGui29ViewProviderMeshDegenerations9getTypeIdEv
MeshGui.so:_ZNK7MeshGui31ViewProviderMeshDuplicatedFaces15getPropertyDataEv
MeshGui.so:_ZNK7MeshGui31ViewProviderMeshDuplicatedFaces9getTypeIdEv
MeshGui.so:_ZNK7MeshGui32ViewProviderMeshDuplicatedPoints15getPropertyDataEv
MeshGui.so:_ZNK7MeshGui32ViewProviderMeshDuplicatedPoints9getTypeIdEv
MeshGui.so:_ZNK7MeshGui33ViewProviderMeshNonManifoldPoints15getPropertyDataEv
MeshGui.so:_ZNK7MeshGui33ViewProviderMeshNonManifoldPoints9getTypeIdEv
MeshGui.so:_ZNK7MeshGui33ViewProviderMeshSelfIntersections15getPropertyDataEv
MeshGui.so:_ZNK7MeshGui33ViewProviderMeshSelfIntersections9getTypeIdEv
MeshGui.so:_ZNK7MeshGui34ViewProviderMeshTransformDemolding15getDisplayModesB5cxx11Ev
MeshGui.so:_ZNK7MeshGui34ViewProviderMeshTransformDemolding15getPropertyDataEv
MeshGui.so:_ZNK7MeshGui34ViewProviderMeshTransformDemolding21getDefaultDisplayModeEv
MeshGui.so:_ZNK7MeshGui34ViewProviderMeshTransformDemolding9getTypeIdEv
MeshGui.so:_ZNK7MeshGui9Selection10getObjectsEv
MeshGui.so:_ZNK7MeshGui9Selection10metaObjectEv
MeshGui.so:_ZNK7MeshGui9SoPolygon11drawPolygonEPK7SbVec3fi
MeshGui.so:_ZNK7MeshGui9SoPolygon12getFieldDataEv
MeshGui.so:_ZNK7MeshGui9SoPolygon9getTypeIdEv
MeshGui.so:_ZNK7MeshGui9Workbench12setupMenuBarEv
MeshGui.so:_ZNK7MeshGui9Workbench13setupToolBarsEv
MeshGui.so:_ZNK7MeshGui9Workbench16setupCommandBarsEv
MeshGui.so:_ZNK7MeshGui9Workbench16setupContextMenuEPKcPN3Gui8MenuItemE
MeshGui.so:_ZNK7MeshGui9Workbench9getTypeIdEv
MeshGui.so:_ZThn16_N7MeshGui12DlgSmoothingD0Ev
MeshGui.so:_ZThn16_N7MeshGui12DlgSmoothingD1Ev
MeshGui.so:_ZThn16_N7MeshGui12SegmentationD0Ev
MeshGui.so:_ZThn16_N7MeshGui12SegmentationD1Ev
MeshGui.so:_ZThn16_N7MeshGui15SmoothingDialogD0Ev
MeshGui.so:_ZThn16_N7MeshGui15SmoothingDialogD1Ev
MeshGui.so:_ZThn16_N7MeshGui16ParametersDialogD0Ev
MeshGui.so:_ZThn16_N7MeshGui16ParametersDialogD1Ev
MeshGui.so:_ZThn16_N7MeshGui16RemoveComponentsD0Ev
MeshGui.so:_ZThn16_N7MeshGui16RemoveComponentsD1Ev
MeshGui.so:_ZThn16_N7MeshGui18DlgEvaluateMeshImpD0Ev
MeshGui.so:_ZThn16_N7MeshGui18DlgEvaluateMeshImpD1Ev
MeshGui.so:_ZThn16_N7MeshGui18DlgRegularSolidImpD0Ev
MeshGui.so:_ZThn16_N7MeshGui18DlgRegularSolidImpD1Ev
MeshGui.so:_ZThn16_N7MeshGui19DlgEvaluateSettingsD0Ev
MeshGui.so:_ZThn16_N7MeshGui19DlgEvaluateSettingsD1Ev
MeshGui.so:_ZThn16_N7MeshGui19DlgSettingsMeshViewD0Ev
MeshGui.so:_ZThn16_N7MeshGui19DlgSettingsMeshViewD1Ev
MeshGui.so:_ZThn16_N7MeshGui19DockEvaluateMeshImpD0Ev
MeshGui.so:_ZThn16_N7MeshGui19DockEvaluateMeshImpD1Ev
MeshGui.so:_ZThn16_N7MeshGui19SegmentationBestFitD0Ev
MeshGui.so:_ZThn16_N7MeshGui19SegmentationBestFitD1Ev
MeshGui.so:_ZThn16_N7MeshGui22RemoveComponentsDialogD0Ev
MeshGui.so:_ZThn16_N7MeshGui22RemoveComponentsDialogD1Ev
MeshGui.so:_ZThn16_N7MeshGui23DlgSettingsImportExportD0Ev
MeshGui.so:_ZThn16_N7MeshGui23DlgSettingsImportExportD1Ev
MeshGui.so:_ZThn16_N7MeshGui24SingleDlgRegularSolidImpD0Ev
MeshGui.so:_ZThn16_N7MeshGui24SingleDlgRegularSolidImpD1Ev
MeshGui.so:_ZThn16_N7MeshGui9SelectionD0Ev
MeshGui.so:_ZThn16_N7MeshGui9SelectionD1Ev
MeshGui.so:_ZThn480_N7MeshGui25ViewProviderMeshCurvature17slotChangedObjectERKN3App14DocumentObjectERKNS1_8PropertyE
MeshGui.so:_ZThn480_N7MeshGui25ViewProviderMeshCurvatureD0Ev
MeshGui.so:_ZThn480_N7MeshGui25ViewProviderMeshCurvatureD1Ev
MeshGui.so:_ZThn48_N7MeshGui18DlgEvaluateMeshImp17slotChangedObjectERKN3App14DocumentObjectERKNS1_8PropertyE
MeshGui.so:_ZThn48_N7MeshGui18DlgEvaluateMeshImp17slotCreatedObjectERKN3App14DocumentObjectE
MeshGui.so:_ZThn48_N7MeshGui18DlgEvaluateMeshImp17slotDeletedObjectERKN3App14DocumentObjectE
MeshGui.so:_ZThn48_N7MeshGui18DlgEvaluateMeshImp19slotDeletedDocumentERKN3App8DocumentE
MeshGui.so:_ZThn48_N7MeshGui18DlgEvaluateMeshImpD0Ev
MeshGui.so:_ZThn48_N7MeshGui18DlgEvaluateMeshImpD1Ev
MeshGui.so:_ZThn48_N7MeshGui19DockEvaluateMeshImpD0Ev
MeshGui.so:_ZThn48_N7MeshGui19DockEvaluateMeshImpD1Ev
MeshGui.so:_ZThn608_N7MeshGui25ViewProviderMeshCurvature8OnChangeERN4Base7SubjectIiEEi
MeshGui.so:_ZThn608_N7MeshGui25ViewProviderMeshCurvatureD0Ev
MeshGui.so:_ZThn608_N7MeshGui25ViewProviderMeshCurvatureD1Ev
MeshPart.so:PyInit_MeshPart
MeshPart.so:_ZN8MeshPart10initModuleEv
MeshPart.so:_ZN8MeshPart13MeshingOutput4syncEv
MeshPart.so:_ZN8MeshPart13MeshingOutput8overflowEi
MeshPart.so:_ZN8MeshPart13MeshingOutputC1Ev
MeshPart.so:_ZN8MeshPart13MeshingOutputC2Ev
MeshPart.so:_ZN8MeshPart14CurveProjector29writeIntersectionPointsToFileEPKc
MeshPart.so:_ZN8MeshPart14CurveProjectorC1ERK12TopoDS_ShapeRKN8MeshCore10MeshKernelE
MeshPart.so:_ZN8MeshPart14CurveProjectorC2ERK12TopoDS_ShapeRKN8MeshCore10MeshKernelE
MeshPart.so:_ZN8MeshPart19CurveProjectorShape12projectCurveERK11TopoDS_EdgeRSt6vectorINS_14CurveProjector13FaceSplitEdgeESaIS6_EE
MeshPart.so:_ZN8MeshPart19CurveProjectorShape14findStartPointERKN8MeshCore10MeshKernelERKN4Base7Vector3IfEERS7_Rm
MeshPart.so:_ZN8MeshPart19CurveProjectorShape2DoEv
MeshPart.so:_ZN8MeshPart19CurveProjectorShapeC1ERK12TopoDS_ShapeRKN8MeshCore10MeshKernelE
MeshPart.so:_ZN8MeshPart19CurveProjectorShapeC2ERK12TopoDS_ShapeRKN8MeshCore10MeshKernelE
MeshPart.so:_ZN8MeshPart20CurveProjectorSimple12projectCurveERK11TopoDS_EdgeRKSt6vectorIN4Base7Vector3IfEESaIS7_EERS4_INS_14CurveProjector13FaceSplitEdgeESaISD_EE
MeshPart.so:_ZN8MeshPart20CurveProjectorSimple14findStartPointERKN8MeshCore10MeshKernelERKN4Base7Vector3IfEERS7_Rm
MeshPart.so:_ZN8MeshPart20CurveProjectorSimple16GetSampledCurvesERK11TopoDS_EdgeRSt6vectorIN4Base7Vector3IfEESaIS7_EEm
MeshPart.so:_ZN8MeshPart20CurveProjectorSimple2DoEv
MeshPart.so:_ZN8MeshPart20CurveProjectorSimpleC1ERK12TopoDS_ShapeRKN8MeshCore10MeshKernelE
MeshPart.so:_ZN8MeshPart20CurveProjectorSimpleC2ERK12TopoDS_ShapeRKN8MeshCore10MeshKernelE
MeshPart.so:_ZN8MeshPart26CurveProjectorWithToolMesh12makeToolMeshERK11TopoDS_EdgeRSt6vectorIN8MeshCore13MeshGeomFacetESaIS6_EE
MeshPart.so:_ZN8MeshPart26CurveProjectorWithToolMesh2DoEv
MeshPart.so:_ZN8MeshPart26CurveProjectorWithToolMeshC1ERK12TopoDS_ShapeRKN8MeshCore10MeshKernelERS5_
MeshPart.so:_ZN8MeshPart26CurveProjectorWithToolMeshC2ERK12TopoDS_ShapeRKN8MeshCore10MeshKernelERS5_
MeshPart.so:_ZN8MeshPart6MesherC1ERK12TopoDS_Shape
MeshPart.so:_ZN8MeshPart6MesherC2ERK12TopoDS_Shape
MeshPart.so:_ZN8MeshPart6MesherD1Ev
MeshPart.so:_ZN8MeshPart6MesherD2Ev
MeshPart.so:_ZN8MeshPart9MeshAlgos10cutByCurveEPN8MeshCore10MeshKernelERKSt6vectorINS_14CurveProjector13FaceSplitEdgeESaIS6_EE
MeshPart.so:_ZN8MeshPart9MeshAlgos10cutByShapeERK12TopoDS_ShapePKN8MeshCore10MeshKernelEPS5_
MeshPart.so:_ZN8MeshPart9MeshAlgos11LoftOnCurveERN8MeshCore10MeshKernelERK12TopoDS_ShapeRKSt6vectorIN4Base7Vector3IfEESaISA_EERKSA_f
MeshPart.so:_ZN8MeshPart9MeshAlgos13offsetSpecialEPN8MeshCore10MeshKernelEfff
MeshPart.so:_ZN8MeshPart9MeshAlgos14offsetSpecial2EPN8MeshCore10MeshKernelEf
MeshPart.so:_ZN8MeshPart9MeshAlgos6offsetEPN8MeshCore10MeshKernelEf
MeshPart.so:_ZN8MeshPart9MeshAlgos7booleanEPN8MeshCore10MeshKernelES3_S3_i
MeshPart.so:_ZN8MeshPart9MeshAlgos7coarsenEPN8MeshCore10MeshKernelEf
MeshPart.so:_ZNK8MeshPart6Mesher10createMeshEv
MeshPartGui.so:PyInit_MeshPartGui
MeshPartGui.so:_Z20loadMeshPartResourcev
MeshPartGui.so:_Z22CreateMeshPartCommandsv
MeshPartGui.so:_Z23qInitResources_MeshPartv
MeshPartGui.so:_Z26qCleanupResources_MeshPartv
MeshPartGui.so:_ZN11MeshPartGui10initModuleEv
MeshPartGui.so:_ZN11MeshPartGui12Tessellation10findShapesEv
MeshPartGui.so:_ZN11MeshPartGui12Tessellation11changeEventEP6QEvent
MeshPartGui.so:_ZN11MeshPartGui12Tessellation11qt_metacallEN11QMetaObject4CallEiPPv
MeshPartGui.so:_ZN11MeshPartGui12Tessellation11qt_metacastEPKc
MeshPartGui.so:_ZN11MeshPartGui12Tessellation13meshingMethodEi
MeshPartGui.so:_ZN11MeshPartGui12Tessellation27on_checkSecondOrder_toggledEb
MeshPartGui.so:_ZN11MeshPartGui12Tessellation29on_checkQuadDominated_toggledEb
MeshPartGui.so:_ZN11MeshPartGui12Tessellation36on_comboFineness_currentIndexChangedEi
MeshPartGui.so:_ZN11MeshPartGui12Tessellation6acceptEv
MeshPartGui.so:_ZN11MeshPartGui12TessellationC1EP7QWidget
MeshPartGui.so:_ZN11MeshPartGui12TessellationC2EP7QWidget
MeshPartGui.so:_ZN11MeshPartGui12TessellationD0Ev
MeshPartGui.so:_ZN11MeshPartGui12TessellationD1Ev
MeshPartGui.so:_ZN11MeshPartGui12TessellationD2Ev
MeshPartGui.so:_ZN11MeshPartGui15TaskCurveOnMesh11qt_metacallEN11QMetaObject4CallEiPPv
MeshPartGui.so:_ZN11MeshPartGui15TaskCurveOnMesh11qt_metacastEPKc
MeshPartGui.so:_ZN11MeshPartGui15TaskCurveOnMesh6rejectEv
MeshPartGui.so:_ZN11MeshPartGui15TaskCurveOnMeshC1EPN3Gui14View3DInventorE
MeshPartGui.so:_ZN11MeshPartGui15TaskCurveOnMeshC2EPN3Gui14View3DInventorE
MeshPartGui.so:_ZN11MeshPartGui15TaskCurveOnMeshD0Ev
MeshPartGui.so:_ZN11MeshPartGui15TaskCurveOnMeshD1Ev
MeshPartGui.so:_ZN11MeshPartGui15TaskCurveOnMeshD2Ev
MeshPartGui.so:_ZN11MeshPartGui16TaskTessellation11qt_metacallEN11QMetaObject4CallEiPPv
MeshPartGui.so:_ZN11MeshPartGui16TaskTessellation11qt_metacastEPKc
MeshPartGui.so:_ZN11MeshPartGui16TaskTessellation4openEv
MeshPartGui.so:_ZN11MeshPartGui16TaskTessellation6acceptEv
MeshPartGui.so:_ZN11MeshPartGui16TaskTessellation6rejectEv
MeshPartGui.so:_ZN11MeshPartGui16TaskTessellation7clickedEi
MeshPartGui.so:_ZN11MeshPartGui16TaskTessellationC1Ev
MeshPartGui.so:_ZN11MeshPartGui16TaskTessellationC2Ev
MeshPartGui.so:_ZN11MeshPartGui16TaskTessellationD0Ev
MeshPartGui.so:_ZN11MeshPartGui16TaskTessellationD1Ev
MeshPartGui.so:_ZN11MeshPartGui16TaskTessellationD2Ev
MeshPartGui.so:_ZN11MeshPartGui17CurveOnMeshWidget11changeEventEP6QEvent
MeshPartGui.so:_ZN11MeshPartGui17CurveOnMeshWidget11qt_metacallEN11QMetaObject4CallEiPPv
MeshPartGui.so:_ZN11MeshPartGui17CurveOnMeshWidget11qt_metacastEPKc
MeshPartGui.so:_ZN11MeshPartGui17CurveOnMeshWidget22on_startButton_clickedEv
MeshPartGui.so:_ZN11MeshPartGui17CurveOnMeshWidget5setupEv
MeshPartGui.so:_ZN11MeshPartGui17CurveOnMeshWidget6rejectEv
MeshPartGui.so:_ZN11MeshPartGui17CurveOnMeshWidgetC1EPN3Gui14View3DInventorEP7QWidget
MeshPartGui.so:_ZN11MeshPartGui17CurveOnMeshWidgetC2EPN3Gui14View3DInventorEP7QWidget
MeshPartGui.so:_ZN11MeshPartGui17CurveOnMeshWidgetD0Ev
MeshPartGui.so:_ZN11MeshPartGui17CurveOnMeshWidgetD1Ev
MeshPartGui.so:_ZN11MeshPartGui17CurveOnMeshWidgetD2Ev
MeshPartGui.so:_ZN11MeshPartGui18CurveOnMeshHandler11onCloseWireEv
MeshPartGui.so:_ZN11MeshPartGui18CurveOnMeshHandler11qt_metacallEN11QMetaObject4CallEiPPv
MeshPartGui.so:_ZN11MeshPartGui18CurveOnMeshHandler11qt_metacastEPKc
MeshPartGui.so:_ZN11MeshPartGui18CurveOnMeshHandler13displaySplineERK24Handle_Geom_BSplineCurve
MeshPartGui.so:_ZN11MeshPartGui18CurveOnMeshHandler13onContextMenuEv
MeshPartGui.so:_ZN11MeshPartGui18CurveOnMeshHandler13setParametersEi13GeomAbs_Shapedd
MeshPartGui.so:_ZN11MeshPartGui18CurveOnMeshHandler14enableCallbackEPN3Gui14View3DInventorE
MeshPartGui.so:_ZN11MeshPartGui18CurveOnMeshHandler15approximateEdgeERK11TopoDS_Edged
MeshPartGui.so:_ZN11MeshPartGui18CurveOnMeshHandler15disableCallbackEv
MeshPartGui.so:_ZN11MeshPartGui18CurveOnMeshHandler17approximateSplineERKSt6vectorI7SbVec3fSaIS2_EE
MeshPartGui.so:_ZN11MeshPartGui18CurveOnMeshHandler7Private14vertexCallbackEPvP15SoEventCallback
MeshPartGui.so:_ZN11MeshPartGui18CurveOnMeshHandler7onClearEv
MeshPartGui.so:_ZN11MeshPartGui18CurveOnMeshHandler8onCancelEv
MeshPartGui.so:_ZN11MeshPartGui18CurveOnMeshHandler8onCreateEv
MeshPartGui.so:_ZN11MeshPartGui18CurveOnMeshHandler9closeWireEv
MeshPartGui.so:_ZN11MeshPartGui18CurveOnMeshHandlerC1EP7QObject
MeshPartGui.so:_ZN11MeshPartGui18CurveOnMeshHandlerC2EP7QObject
MeshPartGui.so:_ZN11MeshPartGui18CurveOnMeshHandlerD0Ev
MeshPartGui.so:_ZN11MeshPartGui18CurveOnMeshHandlerD1Ev
MeshPartGui.so:_ZN11MeshPartGui18CurveOnMeshHandlerD2Ev
MeshPartGui.so:_ZN11MeshPartGui23ViewProviderCurveOnMesh11clearPointsEv
MeshPartGui.so:_ZN11MeshPartGui23ViewProviderCurveOnMesh11clearVertexEv
MeshPartGui.so:_ZN11MeshPartGui23ViewProviderCurveOnMesh14getClassTypeIdEv
MeshPartGui.so:_ZN11MeshPartGui23ViewProviderCurveOnMesh14setDisplayModeEPKc
MeshPartGui.so:_ZN11MeshPartGui23ViewProviderCurveOnMesh18getPropertyDataPtrEv
MeshPartGui.so:_ZN11MeshPartGui23ViewProviderCurveOnMesh4initEv
MeshPartGui.so:_ZN11MeshPartGui23ViewProviderCurveOnMesh6createEv
MeshPartGui.so:_ZN11MeshPartGui23ViewProviderCurveOnMesh9addVertexERK7SbVec3f
MeshPartGui.so:_ZN11MeshPartGui23ViewProviderCurveOnMesh9setPointsERKSt6vectorI7SbVec3fSaIS2_EE
MeshPartGui.so:_ZN11MeshPartGui23ViewProviderCurveOnMeshC1Ev
MeshPartGui.so:_ZN11MeshPartGui23ViewProviderCurveOnMeshC2Ev
MeshPartGui.so:_ZN11MeshPartGui23ViewProviderCurveOnMeshD0Ev
MeshPartGui.so:_ZN11MeshPartGui23ViewProviderCurveOnMeshD1Ev
MeshPartGui.so:_ZN11MeshPartGui23ViewProviderCurveOnMeshD2Ev
MeshPartGui.so:_ZN11MeshPartGui9Workbench14getClassTypeIdEv
MeshPartGui.so:_ZN11MeshPartGui9Workbench4initEv
MeshPartGui.so:_ZN11MeshPartGui9Workbench6createEv
MeshPartGui.so:_ZN11MeshPartGui9WorkbenchC1Ev
MeshPartGui.so:_ZN11MeshPartGui9WorkbenchC2Ev
MeshPartGui.so:_ZN11MeshPartGui9WorkbenchD0Ev
MeshPartGui.so:_ZN11MeshPartGui9WorkbenchD1Ev
MeshPartGui.so:_ZN11MeshPartGui9WorkbenchD2Ev
MeshPartGui.so:_ZN17CmdMeshPartMesher8isActiveEv
MeshPartGui.so:_ZN17CmdMeshPartMesher9activatedEi
MeshPartGui.so:_ZN17CmdMeshPartMesherC1Ev
MeshPartGui.so:_ZN17CmdMeshPartMesherC2Ev
MeshPartGui.so:_ZN18CmdMeshPartSection8isActiveEv
MeshPartGui.so:_ZN18CmdMeshPartSection9activatedEi
MeshPartGui.so:_ZN18CmdMeshPartSectionC1Ev
MeshPartGui.so:_ZN18CmdMeshPartSectionC2Ev
MeshPartGui.so:_ZN22CmdMeshPartCurveOnMesh8isActiveEv
MeshPartGui.so:_ZN22CmdMeshPartCurveOnMesh9activatedEi
MeshPartGui.so:_ZN22CmdMeshPartCurveOnMeshC1Ev
MeshPartGui.so:_ZN22CmdMeshPartCurveOnMeshC2Ev
MeshPartGui.so:_ZN22CmdMeshPartTrimByPlane8isActiveEv
MeshPartGui.so:_ZN22CmdMeshPartTrimByPlane9activatedEi
MeshPartGui.so:_ZN22CmdMeshPartTrimByPlaneC1Ev
MeshPartGui.so:_ZN22CmdMeshPartTrimByPlaneC2Ev
MeshPartGui.so:_ZNK11MeshPartGui12Tessellation10metaObjectEv
MeshPartGui.so:_ZNK11MeshPartGui15TaskCurveOnMesh10metaObjectEv
MeshPartGui.so:_ZNK11MeshPartGui16TaskTessellation10metaObjectEv
MeshPartGui.so:_ZNK11MeshPartGui17CurveOnMeshWidget10metaObjectEv
MeshPartGui.so:_ZNK11MeshPartGui18CurveOnMeshHandler10metaObjectEv
MeshPartGui.so:_ZNK11MeshPartGui18CurveOnMeshHandler11getVertexesEv
MeshPartGui.so:_ZNK11MeshPartGui18CurveOnMeshHandler12tryCloseWireERK7SbVec3f
MeshPartGui.so:_ZNK11MeshPartGui18CurveOnMeshHandler9getPointsEv
MeshPartGui.so:_ZNK11MeshPartGui23ViewProviderCurveOnMesh15getPropertyDataEv
MeshPartGui.so:_ZNK11MeshPartGui23ViewProviderCurveOnMesh9getTypeIdEv
MeshPartGui.so:_ZNK11MeshPartGui9Workbench13setupToolBarsEv
MeshPartGui.so:_ZNK11MeshPartGui9Workbench16setupCommandBarsEv
MeshPartGui.so:_ZNK11MeshPartGui9Workbench9getTypeIdEv
MeshPartGui.so:_ZThn16_N11MeshPartGui12TessellationD0Ev
MeshPartGui.so:_ZThn16_N11MeshPartGui12TessellationD1Ev
MeshPartGui.so:_ZThn16_N11MeshPartGui17CurveOnMeshWidgetD0Ev
MeshPartGui.so:_ZThn16_N11MeshPartGui17CurveOnMeshWidgetD1Ev
Part.so:PyInit_Part
Part.so:_Z10getKerningP11FT_FaceRec_mm
Part.so:_Z11edgesToWireSt6vectorI11TopoDS_EdgeSaIS0_EE
Part.so:_Z16_getSupportIndexPcPN4Part9TopoShapeE12TopoDS_Shape
Part.so:_Z16getGlyphContoursP11FT_FaceRec_mddid
Part.so:_Z17collectConicEdgesRK12TopoDS_ShellR26TopTools_IndexedMapOfShape
Part.so:_Z17wireEncirclesAxisRK11TopoDS_WireRK30Handle_Geom_CylindricalSurface
Part.so:_Z19gce_ErrorStatusText13gce_ErrorType
Part.so:_Z24TopoShape_RefCountShapesRK12TopoDS_Shape
Part.so:_Z28BRepBuilderAPI_FaceErrorText24BRepBuilderAPI_FaceError
Part.so:_Z5FT2FCPKwmPKcS2_dd
Part.so:_Z5FT2FCPKwmPKcdd
Part.so:_Z7fixFaceRK11TopoDS_Face
Part.so:_ZN11ModelRefine10FaceUniter7processEv
Part.so:_ZN11ModelRefine10FaceUniterC1ERK12TopoDS_Shell
Part.so:_ZN11ModelRefine10FaceUniterC2ERK12TopoDS_Shell
Part.so:_ZN11ModelRefine11removeFacesERK12TopoDS_ShellRKSt6vectorI11TopoDS_FaceSaIS4_EE
Part.so:_ZN11ModelRefine12getFaceEdgesERK11TopoDS_FaceRSt6vectorI11TopoDS_EdgeSaIS4_EE
Part.so:_ZN11ModelRefine13FaceTypedBase11getFaceTypeERK11TopoDS_Face
Part.so:_ZN11ModelRefine13boundaryEdgesERKSt6vectorI11TopoDS_FaceSaIS1_EERS0_I11TopoDS_EdgeSaIS6_EE
Part.so:_ZN11ModelRefine14FaceTypedPlaneC1Ev
Part.so:_ZN11ModelRefine14FaceTypedPlaneC2Ev
Part.so:_ZN11ModelRefine14getPlaneObjectEv
Part.so:_ZN11ModelRefine16FaceTypeSplitter12registerTypeERK19GeomAbs_SurfaceType
Part.so:_ZN11ModelRefine16FaceTypeSplitter5splitEv
Part.so:_ZN11ModelRefine16FaceTypeSplitter8addShellERK12TopoDS_Shell
Part.so:_ZN11ModelRefine16FaceTypedBSplineC1Ev
Part.so:_ZN11ModelRefine16FaceTypedBSplineC2Ev
Part.so:_ZN11ModelRefine16getBSplineObjectEv
Part.so:_ZN11ModelRefine17FaceTypedCylinderC1Ev
Part.so:_ZN11ModelRefine17FaceTypedCylinderC2Ev
Part.so:_ZN11ModelRefine17getCylinderObjectEv
Part.so:_ZN11ModelRefine20FaceEqualitySplitter5splitERKSt6vectorI11TopoDS_FaceSaIS2_EEPNS_13FaceTypedBaseE
Part.so:_ZN11ModelRefine21FaceAdjacencySplitter13recursiveFindERK11TopoDS_FaceRSt6vectorIS1_SaIS1_EE
Part.so:_ZN11ModelRefine21FaceAdjacencySplitter5splitERKSt6vectorI11TopoDS_FaceSaIS2_EE
Part.so:_ZN11ModelRefine21FaceAdjacencySplitterC1ERK12TopoDS_Shell
Part.so:_ZN11ModelRefine21FaceAdjacencySplitterC2ERK12TopoDS_Shell
Part.so:_ZN3App14FeaturePythonTIN4Part12Part2DObjectEE11getPyObjectEv
Part.so:_ZN3App14FeaturePythonTIN4Part12Part2DObjectEE14getClassTypeIdEv
Part.so:_ZN3App14FeaturePythonTIN4Part12Part2DObjectEE18getPropertyDataPtrEv
Part.so:_ZN3App14FeaturePythonTIN4Part12Part2DObjectEE4initEv
Part.so:_ZN3App14FeaturePythonTIN4Part12Part2DObjectEE6createEv
Part.so:_ZN3App14FeaturePythonTIN4Part13CustomFeatureEE14getClassTypeIdEv
Part.so:_ZN3App14FeaturePythonTIN4Part13CustomFeatureEE18getPropertyDataPtrEv
Part.so:_ZN3App14FeaturePythonTIN4Part13CustomFeatureEE4initEv
Part.so:_ZN3App14FeaturePythonTIN4Part13CustomFeatureEE6createEv
Part.so:_ZN3App14FeaturePythonTIN4Part7FeatureEE11getPyObjectEv
Part.so:_ZN3App14FeaturePythonTIN4Part7FeatureEE14getClassTypeIdEv
Part.so:_ZN3App14FeaturePythonTIN4Part7FeatureEE18getPropertyDataPtrEv
Part.so:_ZN3App14FeaturePythonTIN4Part7FeatureEE4initEv
Part.so:_ZN3App14FeaturePythonTIN4Part7FeatureEE6createEv
Part.so:_ZN3App16ExtensionPythonTIN4Part15AttachExtensionEE23getExtensionClassTypeIdEv
Part.so:_ZN3App16ExtensionPythonTIN4Part15AttachExtensionEE27extensionGetPropertyDataPtrEv
Part.so:_ZN3App16ExtensionPythonTIN4Part15AttachExtensionEE4initEv
Part.so:_ZN3App16ExtensionPythonTIN4Part15AttachExtensionEE6createEv
Part.so:_ZN4Part10BodyBasePy19setCustomAttributesEPKcP7_object
Part.so:_ZN4Part10BodyBasePy5_reprEv
Part.so:_ZN4Part10BodyBasePy6PyInitEP7_objectS2_
Part.so:_ZN4Part10BodyBasePy6PyMakeEP11_typeobjectP7_objectS4_
Part.so:_ZN4Part10BodyBasePy8_getattrEPKc
Part.so:_ZN4Part10BodyBasePy8_setattrEPKcP7_object
Part.so:_ZN4Part10BodyBasePyC1EPNS_8BodyBaseEP11_typeobject
Part.so:_ZN4Part10BodyBasePyC2EPNS_8BodyBaseEP11_typeobject
Part.so:_ZN4Part10BodyBasePyD0Ev
Part.so:_ZN4Part10BodyBasePyD1Ev
Part.so:_ZN4Part10BodyBasePyD2Ev
Part.so:_ZN4Part10Circle2dPy19setCustomAttributesEPKcP7_object
Part.so:_ZN4Part10Circle2dPy24staticCallback_getRadiusEP7_objectPv
Part.so:_ZN4Part10Circle2dPy24staticCallback_setRadiusEP7_objectS2_Pv
Part.so:_ZN4Part10Circle2dPy5_reprEv
Part.so:_ZN4Part10Circle2dPy6PyInitEP7_objectS2_
Part.so:_ZN4Part10Circle2dPy6PyMakeEP11_typeobjectP7_objectS4_
Part.so:_ZN4Part10Circle2dPy8_getattrEPKc
Part.so:_ZN4Part10Circle2dPy8_setattrEPKcP7_object
Part.so:_ZN4Part10Circle2dPy9setRadiusEN2Py5FloatE
Part.so:_ZN4Part10Circle2dPyC1EPNS_12Geom2dCircleEP11_typeobject
Part.so:_ZN4Part10Circle2dPyC2EPNS_12Geom2dCircleEP11_typeobject
Part.so:_ZN4Part10Circle2dPyD0Ev
Part.so:_ZN4Part10Circle2dPyD1Ev
Part.so:_ZN4Part10Circle2dPyD2Ev
Part.so:_ZN4Part10CylinderPy19setCustomAttributesEPKcP7_object
Part.so:_ZN4Part10CylinderPy19staticCallback_uIsoEP7_objectS2_
Part.so:_ZN4Part10CylinderPy19staticCallback_vIsoEP7_objectS2_
Part.so:_ZN4Part10CylinderPy22staticCallback_getAxisEP7_objectPv
Part.so:_ZN4Part10CylinderPy22staticCallback_setAxisEP7_objectS2_Pv
Part.so:_ZN4Part10CylinderPy24staticCallback_getCenterEP7_objectPv
Part.so:_ZN4Part10CylinderPy24staticCallback_getRadiusEP7_objectPv
Part.so:_ZN4Part10CylinderPy24staticCallback_setCenterEP7_objectS2_Pv
Part.so:_ZN4Part10CylinderPy24staticCallback_setRadiusEP7_objectS2_Pv
Part.so:_ZN4Part10CylinderPy4uIsoEP7_object
Part.so:_ZN4Part10CylinderPy4vIsoEP7_object
Part.so:_ZN4Part10CylinderPy5_reprEv
Part.so:_ZN4Part10CylinderPy6PyInitEP7_objectS2_
Part.so:_ZN4Part10CylinderPy6PyMakeEP11_typeobjectP7_objectS4_
Part.so:_ZN4Part10CylinderPy7setAxisEN2Py6ObjectE
Part.so:_ZN4Part10CylinderPy8_getattrEPKc
Part.so:_ZN4Part10CylinderPy8_setattrEPKcP7_object
Part.so:_ZN4Part10CylinderPy9setCenterEN2Py6ObjectE
Part.so:_ZN4Part10CylinderPy9setRadiusEN2Py5FloatE
Part.so:_ZN4Part10CylinderPyC1EPNS_12GeomCylinderEP11_typeobject
Part.so:_ZN4Part10CylinderPyC2EPNS_12GeomCylinderEP11_typeobject
Part.so:_ZN4Part10CylinderPyD0Ev
Part.so:_ZN4Part10CylinderPyD1Ev
Part.so:_ZN4Part10CylinderPyD2Ev
Part.so:_ZN4Part10FeatureExt14getClassTypeIdEv
Part.so:_ZN4Part10FeatureExt18getPropertyDataPtrEv
Part.so:_ZN4Part10FeatureExt4initEv
Part.so:_ZN4Part10FeatureExt6createEv
Part.so:_ZN4Part10FilletBase14getClassTypeIdEv
Part.so:_ZN4Part10FilletBase18getPropertyDataPtrEv
Part.so:_ZN4Part10FilletBase4initEv
Part.so:_ZN4Part10FilletBase6createEv
Part.so:_ZN4Part10FilletBaseC1Ev
Part.so:_ZN4Part10FilletBaseC2Ev
Part.so:_ZN4Part10Geom2dLine11getPyObjectEv
Part.so:_ZN4Part10Geom2dLine14getClassTypeIdEv
Part.so:_ZN4Part10Geom2dLine4initEv
Part.so:_ZN4Part10Geom2dLine6createEv
Part.so:_ZN4Part10Geom2dLine7RestoreERN4Base9XMLReaderE
Part.so:_ZN4Part10Geom2dLine7setLineERKN4Base8Vector2dES4_
Part.so:_ZN4Part10Geom2dLineC1ERK18Handle_Geom2d_Line
Part.so:_ZN4Part10Geom2dLineC1ERKN4Base8Vector2dES4_
Part.so:_ZN4Part10Geom2dLineC1Ev
Part.so:_ZN4Part10Geom2dLineC2ERK18Handle_Geom2d_Line
Part.so:_ZN4Part10Geom2dLineC2ERKN4Base8Vector2dES4_
Part.so:_ZN4Part10Geom2dLineC2Ev
Part.so:_ZN4Part10Geom2dLineD0Ev
Part.so:_ZN4Part10Geom2dLineD1Ev
Part.so:_ZN4Part10Geom2dLineD2Ev
Part.so:_ZN4Part10GeomCircle11getPyObjectEv
Part.so:_ZN4Part10GeomCircle14getClassTypeIdEv
Part.so:_ZN4Part10GeomCircle4initEv
Part.so:_ZN4Part10GeomCircle6createEv
Part.so:_ZN4Part10GeomCircle7RestoreERN4Base9XMLReaderE
Part.so:_ZN4Part10GeomCircle9setHandleERK18Handle_Geom_Circle
Part.so:_ZN4Part10GeomCircle9setRadiusEd
Part.so:_ZN4Part10GeomCircleC1ERK18Handle_Geom_Circle
Part.so:_ZN4Part10GeomCircleC1Ev
Part.so:_ZN4Part10GeomCircleC2ERK18Handle_Geom_Circle
Part.so:_ZN4Part10GeomCircleC2Ev
Part.so:_ZN4Part10GeomCircleD0Ev
Part.so:_ZN4Part10GeomCircleD1Ev
Part.so:_ZN4Part10GeomCircleD2Ev
Part.so:_ZN4Part10GeomSphere11getPyObjectEv
Part.so:_ZN4Part10GeomSphere14getClassTypeIdEv
Part.so:_ZN4Part10GeomSphere4initEv
Part.so:_ZN4Part10GeomSphere6createEv
Part.so:_ZN4Part10GeomSphere7RestoreERN4Base9XMLReaderE
Part.so:_ZN4Part10GeomSphere9setHandleERK28Handle_Geom_SphericalSurface
Part.so:_ZN4Part10GeomSphereC1ERK28Handle_Geom_SphericalSurface
Part.so:_ZN4Part10GeomSphereC1Ev
Part.so:_ZN4Part10GeomSphereC2ERK28Handle_Geom_SphericalSurface
Part.so:_ZN4Part10GeomSphereC2Ev
Part.so:_ZN4Part10GeomSphereD0Ev
Part.so:_ZN4Part10GeomSphereD1Ev
Part.so:_ZN4Part10GeomSphereD2Ev
Part.so:_ZN4Part10GeomToroid11getPyObjectEv
Part.so:_ZN4Part10GeomToroid14getClassTypeIdEv
Part.so:_ZN4Part10GeomToroid4initEv
Part.so:_ZN4Part10GeomToroid6createEv
Part.so:_ZN4Part10GeomToroid7RestoreERN4Base9XMLReaderE
Part.so:_ZN4Part10GeomToroid9setHandleERK27Handle_Geom_ToroidalSurface
Part.so:_ZN4Part10GeomToroidC1ERK27Handle_Geom_ToroidalSurface
Part.so:_ZN4Part10GeomToroidC1Ev
Part.so:_ZN4Part10GeomToroidC2ERK27Handle_Geom_ToroidalSurface
Part.so:_ZN4Part10GeomToroidC2Ev
Part.so:_ZN4Part10GeomToroidD0Ev
Part.so:_ZN4Part10GeomToroidD1Ev
Part.so:_ZN4Part10GeomToroidD2Ev
Part.so:_ZN4Part10Geometry2d14getClassTypeIdEv
Part.so:_ZN4Part10Geometry2d4initEv
Part.so:_ZN4Part10Geometry2d6createEv
Part.so:_ZN4Part10Geometry2d7RestoreERN4Base9XMLReaderE
Part.so:_ZN4Part10Geometry2dC1Ev
Part.so:_ZN4Part10Geometry2dC2Ev
Part.so:_ZN4Part10Geometry2dD0Ev
Part.so:_ZN4Part10Geometry2dD1Ev
Part.so:_ZN4Part10Geometry2dD2Ev
Part.so:_ZN4Part10GeometryPy15setConstructionEN2Py7BooleanE
Part.so:_ZN4Part10GeometryPy19setCustomAttributesEPKcP7_object
Part.so:_ZN4Part10GeometryPy19staticCallback_copyEP7_objectS2_
Part.so:_ZN4Part10GeometryPy20staticCallback_cloneEP7_objectS2_
Part.so:_ZN4Part10GeometryPy20staticCallback_scaleEP7_objectS2_
Part.so:_ZN4Part10GeometryPy21staticCallback_getTagEP7_objectPv
Part.so:_ZN4Part10GeometryPy21staticCallback_mirrorEP7_objectS2_
Part.so:_ZN4Part10GeometryPy21staticCallback_rotateEP7_objectS2_
Part.so:_ZN4Part10GeometryPy21staticCallback_setTagEP7_objectS2_Pv
Part.so:_ZN4Part10GeometryPy24staticCallback_transformEP7_objectS2_
Part.so:_ZN4Part10GeometryPy24staticCallback_translateEP7_objectS2_
Part.so:_ZN4Part10GeometryPy30staticCallback_getConstructionEP7_objectPv
Part.so:_ZN4Part10GeometryPy30staticCallback_setConstructionEP7_objectS2_Pv
Part.so:_ZN4Part10GeometryPy4copyEP7_object
Part.so:_ZN4Part10GeometryPy5_reprEv
Part.so:_ZN4Part10GeometryPy5cloneEP7_object
Part.so:_ZN4Part10GeometryPy5scaleEP7_object
Part.so:_ZN4Part10GeometryPy6PyInitEP7_objectS2_
Part.so:_ZN4Part10GeometryPy6PyMakeEP11_typeobjectP7_objectS4_
Part.so:_ZN4Part10GeometryPy6mirrorEP7_object
Part.so:_ZN4Part10GeometryPy6rotateEP7_object
Part.so:_ZN4Part10GeometryPy8_getattrEPKc
Part.so:_ZN4Part10GeometryPy8_setattrEPKcP7_object
Part.so:_ZN4Part10GeometryPy9transformEP7_object
Part.so:_ZN4Part10GeometryPy9translateEP7_object
Part.so:_ZN4Part10GeometryPyC1EPNS_8GeometryEP11_typeobject
Part.so:_ZN4Part10GeometryPyC2EPNS_8GeometryEP11_typeobject
Part.so:_ZN4Part10GeometryPyD0Ev
Part.so:_ZN4Part10GeometryPyD1Ev
Part.so:_ZN4Part10GeometryPyD2Ev
Part.so:_ZN4Part10ImportBrep14getClassTypeIdEv
Part.so:_ZN4Part10ImportBrep18getPropertyDataPtrEv
Part.so:_ZN4Part10ImportBrep4initEv
Part.so:_ZN4Part10ImportBrep6createEv
Part.so:_ZN4Part10ImportBrep7executeEv
Part.so:_ZN4Part10ImportBrepC1Ev
Part.so:_ZN4Part10ImportBrepC2Ev
Part.so:_ZN4Part10ImportIges14getClassTypeIdEv
Part.so:_ZN4Part10ImportIges18getPropertyDataPtrEv
Part.so:_ZN4Part10ImportIges4initEv
Part.so:_ZN4Part10ImportIges6createEv
Part.so:_ZN4Part10ImportIges7executeEv
Part.so:_ZN4Part10ImportIgesC1Ev
Part.so:_ZN4Part10ImportIgesC2Ev
Part.so:_ZN4Part10ImportStep14getClassTypeIdEv
Part.so:_ZN4Part10ImportStep18getPropertyDataPtrEv
Part.so:_ZN4Part10ImportStep4initEv
Part.so:_ZN4Part10ImportStep6createEv
Part.so:_ZN4Part10ImportStep7executeEv
Part.so:_ZN4Part10ImportStepC1Ev
Part.so:_ZN4Part10ImportStepC2Ev
Part.so:_ZN4Part10ParabolaPy19setCustomAttributesEPKcP7_object
Part.so:_ZN4Part10ParabolaPy22staticCallback_computeEP7_objectS2_
Part.so:_ZN4Part10ParabolaPy23staticCallback_getFocalEP7_objectPv
Part.so:_ZN4Part10ParabolaPy23staticCallback_getFocusEP7_objectPv
Part.so:_ZN4Part10ParabolaPy23staticCallback_setFocalEP7_objectS2_Pv
Part.so:_ZN4Part10ParabolaPy23staticCallback_setFocusEP7_objectS2_Pv
Part.so:_ZN4Part10ParabolaPy27staticCallback_getParameterEP7_objectPv
Part.so:_ZN4Part10ParabolaPy27staticCallback_setParameterEP7_objectS2_Pv
Part.so:_ZN4Part10ParabolaPy5_reprEv
Part.so:_ZN4Part10ParabolaPy6PyInitEP7_objectS2_
Part.so:_ZN4Part10ParabolaPy6PyMakeEP11_typeobjectP7_objectS4_
Part.so:_ZN4Part10ParabolaPy7computeEP7_object
Part.so:_ZN4Part10ParabolaPy8_getattrEPKc
Part.so:_ZN4Part10ParabolaPy8_setattrEPKcP7_object
Part.so:_ZN4Part10ParabolaPy8setFocalEN2Py5FloatE
Part.so:_ZN4Part10ParabolaPyC1EPNS_12GeomParabolaEP11_typeobject
Part.so:_ZN4Part10ParabolaPyC2EPNS_12GeomParabolaEP11_typeobject
Part.so:_ZN4Part10ParabolaPyD0Ev
Part.so:_ZN4Part10ParabolaPyD1Ev
Part.so:_ZN4Part10ParabolaPyD2Ev
Part.so:_ZN4Part10ReadColorsERK28Handle_XSControl_WorkSessionRSt3mapIi14Quantity_ColorSt4lessIiESaISt4pairIKiS4_EEE
Part.so:_ZN4Part10Revolution11setupObjectEv
Part.so:_ZN4Part10Revolution13fetchAxisLinkERKN3App15PropertyLinkSubERN4Base7Vector3IdEES8_Rd
Part.so:_ZN4Part10Revolution14getClassTypeIdEv
Part.so:_ZN4Part10Revolution18getPropertyDataPtrEv
Part.so:_ZN4Part10Revolution4initEv
Part.so:_ZN4Part10Revolution6createEv
Part.so:_ZN4Part10Revolution7executeEv
Part.so:_ZN4Part10Revolution9onChangedEPKN3App8PropertyE
Part.so:_ZN4Part10RevolutionC1Ev
Part.so:_ZN4Part10RevolutionC2Ev
Part.so:_ZN4Part10initModuleEv
Part.so:_ZN4Part10sort_EdgesEdRNSt7__cxx114listI11TopoDS_EdgeSaIS2_EEE
Part.so:_ZN4Part11Edgecluster11GetClustersEv
Part.so:_ZN4Part11Edgecluster11IsValidEdgeERK11TopoDS_Edge
Part.so:_ZN4Part11Edgecluster12PerformEdgesER6gp_Pnt
Part.so:_ZN4Part11Edgecluster7PerformERK11TopoDS_Edge
Part.so:_ZN4Part11Edgecluster7PerformEv
Part.so:_ZN4Part11EdgeclusterC1ERKSt6vectorI11TopoDS_EdgeSaIS2_EE
Part.so:_ZN4Part11EdgeclusterC2ERKSt6vectorI11TopoDS_EdgeSaIS2_EE
Part.so:_ZN4Part11EdgeclusterD0Ev
Part.so:_ZN4Part11EdgeclusterD1Ev
Part.so:_ZN4Part11EdgeclusterD2Ev
Part.so:_ZN4Part11Ellipse2dPy14setMajorRadiusEN2Py5FloatE
Part.so:_ZN4Part11Ellipse2dPy14setMinorRadiusEN2Py5FloatE
Part.so:_ZN4Part11Ellipse2dPy19setCustomAttributesEPKcP7_object
Part.so:_ZN4Part11Ellipse2dPy23staticCallback_getFocalEP7_objectPv
Part.so:_ZN4Part11Ellipse2dPy23staticCallback_setFocalEP7_objectS2_Pv
Part.so:_ZN4Part11Ellipse2dPy24staticCallback_getFocus1EP7_objectPv
Part.so:_ZN4Part11Ellipse2dPy24staticCallback_getFocus2EP7_objectPv
Part.so:_ZN4Part11Ellipse2dPy24staticCallback_setFocus1EP7_objectS2_Pv
Part.so:_ZN4Part11Ellipse2dPy24staticCallback_setFocus2EP7_objectS2_Pv
Part.so:_ZN4Part11Ellipse2dPy29staticCallback_getMajorRadiusEP7_objectPv
Part.so:_ZN4Part11Ellipse2dPy29staticCallback_getMinorRadiusEP7_objectPv
Part.so:_ZN4Part11Ellipse2dPy29staticCallback_setMajorRadiusEP7_objectS2_Pv
Part.so:_ZN4Part11Ellipse2dPy29staticCallback_setMinorRadiusEP7_objectS2_Pv
Part.so:_ZN4Part11Ellipse2dPy5_reprEv
Part.so:_ZN4Part11Ellipse2dPy6PyInitEP7_objectS2_
Part.so:_ZN4Part11Ellipse2dPy6PyMakeEP11_typeobjectP7_objectS4_
Part.so:_ZN4Part11Ellipse2dPy8_getattrEPKc
Part.so:_ZN4Part11Ellipse2dPy8_setattrEPKcP7_object
Part.so:_ZN4Part11Ellipse2dPyC1EPNS_13Geom2dEllipseEP11_typeobject
Part.so:_ZN4Part11Ellipse2dPyC2EPNS_13Geom2dEllipseEP11_typeobject
Part.so:_ZN4Part11Ellipse2dPyD0Ev
Part.so:_ZN4Part11Ellipse2dPyD1Ev
Part.so:_ZN4Part11Ellipse2dPyD2Ev
Part.so:_ZN4Part11Geom2dConic11RestoreAxisERN4Base9XMLReaderER8gp_Ax22d
Part.so:_ZN4Part11Geom2dConic11setLocationERKN4Base8Vector2dE
Part.so:_ZN4Part11Geom2dConic14getClassTypeIdEv
Part.so:_ZN4Part11Geom2dConic4initEv
Part.so:_ZN4Part11Geom2dConic6createEv
Part.so:_ZN4Part11Geom2dConicC1Ev
Part.so:_ZN4Part11Geom2dConicC2Ev
Part.so:_ZN4Part11Geom2dConicD0Ev
Part.so:_ZN4Part11Geom2dConicD1Ev
Part.so:_ZN4Part11Geom2dConicD2Ev
Part.so:_ZN4Part11Geom2dCurve14getClassTypeIdEv
Part.so:_ZN4Part11Geom2dCurve4initEv
Part.so:_ZN4Part11Geom2dCurve6createEv
Part.so:_ZN4Part11Geom2dCurveC1Ev
Part.so:_ZN4Part11Geom2dCurveC2Ev
Part.so:_ZN4Part11Geom2dCurveD0Ev
Part.so:_ZN4Part11Geom2dCurveD1Ev
Part.so:_ZN4Part11Geom2dCurveD2Ev
Part.so:_ZN4Part11Geom2dPoint11getPyObjectEv
Part.so:_ZN4Part11Geom2dPoint14getClassTypeIdEv
Part.so:_ZN4Part11Geom2dPoint4initEv
Part.so:_ZN4Part11Geom2dPoint6createEv
Part.so:_ZN4Part11Geom2dPoint7RestoreERN4Base9XMLReaderE
Part.so:_ZN4Part11Geom2dPoint8setPointERKN4Base8Vector2dE
Part.so:_ZN4Part11Geom2dPointC1ERK28Handle_Geom2d_CartesianPoint
Part.so:_ZN4Part11Geom2dPointC1ERKN4Base8Vector2dE
Part.so:_ZN4Part11Geom2dPointC1Ev
Part.so:_ZN4Part11Geom2dPointC2ERK28Handle_Geom2d_CartesianPoint
Part.so:_ZN4Part11Geom2dPointC2ERKN4Base8Vector2dE
Part.so:_ZN4Part11Geom2dPointC2Ev
Part.so:_ZN4Part11Geom2dPointD0Ev
Part.so:_ZN4Part11Geom2dPointD1Ev
Part.so:_ZN4Part11Geom2dPointD2Ev
Part.so:_ZN4Part11GeomEllipse11getPyObjectEv
Part.so:_ZN4Part11GeomEllipse14getClassTypeIdEv
Part.so:_ZN4Part11GeomEllipse14setMajorRadiusEd
Part.so:_ZN4Part11GeomEllipse14setMinorRadiusEd
Part.so:_ZN4Part11GeomEllipse15setMajorAxisDirEN4Base7Vector3IdEE
Part.so:_ZN4Part11GeomEllipse4initEv
Part.so:_ZN4Part11GeomEllipse6createEv
Part.so:_ZN4Part11GeomEllipse7RestoreERN4Base9XMLReaderE
Part.so:_ZN4Part11GeomEllipse9setHandleERK19Handle_Geom_Ellipse
Part.so:_ZN4Part11GeomEllipseC1ERK19Handle_Geom_Ellipse
Part.so:_ZN4Part11GeomEllipseC1Ev
Part.so:_ZN4Part11GeomEllipseC2ERK19Handle_Geom_Ellipse
Part.so:_ZN4Part11GeomEllipseC2Ev
Part.so:_ZN4Part11GeomEllipseD0Ev
Part.so:_ZN4Part11GeomEllipseD1Ev
Part.so:_ZN4Part11GeomEllipseD2Ev
Part.so:_ZN4Part11GeomSurface14getClassTypeIdEv
Part.so:_ZN4Part11GeomSurface4initEv
Part.so:_ZN4Part11GeomSurface6createEv
Part.so:_ZN4Part11GeomSurfaceC1Ev
Part.so:_ZN4Part11GeomSurfaceC2Ev
Part.so:_ZN4Part11GeomSurfaceD0Ev
Part.so:_ZN4Part11GeomSurfaceD1Ev
Part.so:_ZN4Part11GeomSurfaceD2Ev
Part.so:_ZN4Part11HyperbolaPy14setMajorRadiusEN2Py5FloatE
Part.so:_ZN4Part11HyperbolaPy14setMinorRadiusEN2Py5FloatE
Part.so:_ZN4Part11HyperbolaPy19setCustomAttributesEPKcP7_object
Part.so:_ZN4Part11HyperbolaPy23staticCallback_getFocalEP7_objectPv
Part.so:_ZN4Part11HyperbolaPy23staticCallback_setFocalEP7_objectS2_Pv
Part.so:_ZN4Part11HyperbolaPy24staticCallback_getFocus1EP7_objectPv
Part.so:_ZN4Part11HyperbolaPy24staticCallback_getFocus2EP7_objectPv
Part.so:_ZN4Part11HyperbolaPy24staticCallback_setFocus1EP7_objectS2_Pv
Part.so:_ZN4Part11HyperbolaPy24staticCallback_setFocus2EP7_objectS2_Pv
Part.so:_ZN4Part11HyperbolaPy29staticCallback_getMajorRadiusEP7_objectPv
Part.so:_ZN4Part11HyperbolaPy29staticCallback_getMinorRadiusEP7_objectPv
Part.so:_ZN4Part11HyperbolaPy29staticCallback_setMajorRadiusEP7_objectS2_Pv
Part.so:_ZN4Part11HyperbolaPy29staticCallback_setMinorRadiusEP7_objectS2_Pv
Part.so:_ZN4Part11HyperbolaPy5_reprEv
Part.so:_ZN4Part11HyperbolaPy6PyInitEP7_objectS2_
Part.so:_ZN4Part11HyperbolaPy6PyMakeEP11_typeobjectP7_objectS4_
Part.so:_ZN4Part11HyperbolaPy8_getattrEPKc
Part.so:_ZN4Part11HyperbolaPy8_setattrEPKcP7_object
Part.so:_ZN4Part11HyperbolaPyC1EPNS_13GeomHyperbolaEP11_typeobject
Part.so:_ZN4Part11HyperbolaPyC2EPNS_13GeomHyperbolaEP11_typeobject
Part.so:_ZN4Part11HyperbolaPyD0Ev
Part.so:_ZN4Part11HyperbolaPyD1Ev
Part.so:_ZN4Part11HyperbolaPyD2Ev
Part.so:_ZN4Part11MultiCommon14getClassTypeIdEv
Part.so:_ZN4Part11MultiCommon18getPropertyDataPtrEv
Part.so:_ZN4Part11MultiCommon4initEv
Part.so:_ZN4Part11MultiCommon6createEv
Part.so:_ZN4Part11MultiCommon7executeEv
Part.so:_ZN4Part11MultiCommonC1Ev
Part.so:_ZN4Part11MultiCommonC2Ev
Part.so:_ZN4Part11PrimitivePyC1EPN4Base9BaseClassEP11_typeobject
Part.so:_ZN4Part11PrimitivePyC2EPN4Base9BaseClassEP11_typeobject
Part.so:_ZN4Part11PrimitivePyD0Ev
Part.so:_ZN4Part11PrimitivePyD1Ev
Part.so:_ZN4Part11PrimitivePyD2Ev
Part.so:_ZN4Part11TopoShapePy10complementEP7_object
Part.so:_ZN4Part11TopoShapePy10exportBrepEP7_object
Part.so:_ZN4Part11TopoShapePy10exportIgesEP7_object
Part.so:_ZN4Part11TopoShapePy10exportStepEP7_object
Part.so:_ZN4Part11TopoShapePy10getElementEP7_object
Part.so:_ZN4Part11TopoShapePy10importBrepEP7_object
Part.so:_ZN4Part11TopoShapePy10makeFilletEP7_object
Part.so:_ZN4Part11TopoShapePy10tessellateEP7_object
Part.so:_ZN4Part11TopoShapePy11childShapesEP7_object
Part.so:_ZN4Part11TopoShapePy11defeaturingEP7_object
Part.so:_ZN4Part11TopoShapePy11distToShapeEP7_object
Part.so:_ZN4Part11TopoShapePy11generalFuseEP7_object
Part.so:_ZN4Part11TopoShapePy11inToleranceEP7_object
Part.so:_ZN4Part11TopoShapePy11makeChamferEP7_object
Part.so:_ZN4Part11TopoShapePy11removeShapeEP7_object
Part.so:_ZN4Part11TopoShapePy12__getstate__EP7_object
Part.so:_ZN4Part11TopoShapePy12__setstate__EP7_object
Part.so:_ZN4Part11TopoShapePy12dumpToStringEP7_object
Part.so:_ZN4Part11TopoShapePy12exportBinaryEP7_object
Part.so:_ZN4Part11TopoShapePy12fixToleranceEP7_object
Part.so:_ZN4Part11TopoShapePy12getToleranceEP7_object
Part.so:_ZN4Part11TopoShapePy12importBinaryEP7_object
Part.so:_ZN4Part11TopoShapePy12makeOffset2DEP7_objectS2_
Part.so:_ZN4Part11TopoShapePy12reflectLinesEP7_objectS2_
Part.so:_ZN4Part11TopoShapePy12replaceShapeEP7_object
Part.so:_ZN4Part11TopoShapePy13makeThicknessEP7_object
Part.so:_ZN4Part11TopoShapePy13overToleranceEP7_object
Part.so:_ZN4Part11TopoShapePy13writeInventorEP7_objectS2_
Part.so:_ZN4Part11TopoShapePy14limitToleranceEP7_object
Part.so:_ZN4Part11TopoShapePy14removeSplitterEP7_object
Part.so:_ZN4Part11TopoShapePy14setOrientationEN2Py6StringE
Part.so:_ZN4Part11TopoShapePy14transformShapeEP7_object
Part.so:_ZN4Part11TopoShapePy15ancestorsOfTypeEP7_object
Part.so:_ZN4Part11TopoShapePy15globalToleranceEP7_object
Part.so:_ZN4Part11TopoShapePy15makeOffsetShapeEP7_objectS2_
Part.so:_ZN4Part11TopoShapePy17makeShapeFromMeshEP7_object
Part.so:_ZN4Part11TopoShapePy17transformGeometryEP7_object
Part.so:_ZN4Part11TopoShapePy18exportBrepToStringEP7_object
Part.so:_ZN4Part11TopoShapePy18optimalBoundingBoxEP7_object
Part.so:_ZN4Part11TopoShapePy18staticCallback_cutEP7_objectS2_
Part.so:_ZN4Part11TopoShapePy18staticCallback_fixEP7_objectS2_
Part.so:_ZN4Part11TopoShapePy19removeInternalWiresEP7_object
Part.so:_ZN4Part11TopoShapePy19setCustomAttributesEPKcP7_object
Part.so:_ZN4Part11TopoShapePy19staticCallback_copyEP7_objectS2_
Part.so:_ZN4Part11TopoShapePy19staticCallback_fuseEP7_objectS2_
Part.so:_ZN4Part11TopoShapePy19staticCallback_readEP7_objectS2_
Part.so:_ZN4Part11TopoShapePy20importBrepFromStringEP7_object
Part.so:_ZN4Part11TopoShapePy20staticCallback_checkEP7_objectS2_
Part.so:_ZN4Part11TopoShapePy20staticCallback_scaleEP7_objectS2_
Part.so:_ZN4Part11TopoShapePy20staticCallback_sliceEP7_objectS2_
Part.so:_ZN4Part11TopoShapePy21staticCallback_commonEP7_objectS2_
Part.so:_ZN4Part11TopoShapePy21staticCallback_isNullEP7_objectS2_
Part.so:_ZN4Part11TopoShapePy21staticCallback_isSameEP7_objectS2_
Part.so:_ZN4Part11TopoShapePy21staticCallback_mirrorEP7_objectS2_
Part.so:_ZN4Part11TopoShapePy21staticCallback_rotateEP7_objectS2_
Part.so:_ZN4Part11TopoShapePy21staticCallback_slicesEP7_objectS2_
Part.so:_ZN4Part11TopoShapePy22makeParallelProjectionEP7_object
Part.so:_ZN4Part11TopoShapePy22staticCallback_cleanedEP7_objectS2_
Part.so:_ZN4Part11TopoShapePy22staticCallback_extrudeEP7_objectS2_
Part.so:_ZN4Part11TopoShapePy22staticCallback_getAreaEP7_objectPv
Part.so:_ZN4Part11TopoShapePy22staticCallback_isEqualEP7_objectS2_
Part.so:_ZN4Part11TopoShapePy22staticCallback_isValidEP7_objectS2_
Part.so:_ZN4Part11TopoShapePy22staticCallback_nullifyEP7_objectS2_
Part.so:_ZN4Part11TopoShapePy22staticCallback_oldFuseEP7_objectS2_
Part.so:_ZN4Part11TopoShapePy22staticCallback_projectEP7_objectS2_
Part.so:_ZN4Part11TopoShapePy22staticCallback_reverseEP7_objectS2_
Part.so:_ZN4Part11TopoShapePy22staticCallback_revolveEP7_objectS2_
Part.so:_ZN4Part11TopoShapePy22staticCallback_sectionEP7_objectS2_
Part.so:_ZN4Part11TopoShapePy22staticCallback_setAreaEP7_objectS2_Pv
Part.so:_ZN4Part11TopoShapePy22staticCallback_toNurbsEP7_objectS2_
Part.so:_ZN4Part11TopoShapePy23staticCallback_getEdgesEP7_objectPv
Part.so:_ZN4Part11TopoShapePy23staticCallback_getFacesEP7_objectPv
Part.so:_ZN4Part11TopoShapePy23staticCallback_getWiresEP7_objectPv
Part.so:_ZN4Part11TopoShapePy23staticCallback_hashCodeEP7_objectS2_
Part.so:_ZN4Part11TopoShapePy23staticCallback_isClosedEP7_objectS2_
Part.so:_ZN4Part11TopoShapePy23staticCallback_isInsideEP7_objectS2_
Part.so:_ZN4Part11TopoShapePy23staticCallback_setEdgesEP7_objectS2_Pv
Part.so:_ZN4Part11TopoShapePy23staticCallback_setFacesEP7_objectS2_Pv
Part.so:_ZN4Part11TopoShapePy23staticCallback_setWiresEP7_objectS2_Pv
Part.so:_ZN4Part11TopoShapePy23staticCallback_sewShapeEP7_objectS2_
Part.so:_ZN4Part11TopoShapePy24staticCallback_exportStlEP7_objectS2_
Part.so:_ZN4Part11TopoShapePy24staticCallback_getLengthEP7_objectPv
Part.so:_ZN4Part11TopoShapePy24staticCallback_getShellsEP7_objectPv
Part.so:_ZN4Part11TopoShapePy24staticCallback_getSolidsEP7_objectPv
Part.so:_ZN4Part11TopoShapePy24staticCallback_getVolumeEP7_objectPv
Part.so:_ZN4Part11TopoShapePy24staticCallback_isPartnerEP7_objectS2_
Part.so:_ZN4Part11TopoShapePy24staticCallback_multiFuseEP7_objectS2_
Part.so:_ZN4Part11TopoShapePy24staticCallback_proximityEP7_objectS2_
Part.so:_ZN4Part11TopoShapePy24staticCallback_setLengthEP7_objectS2_Pv
Part.so:_ZN4Part11TopoShapePy24staticCallback_setShellsEP7_objectS2_Pv
Part.so:_ZN4Part11TopoShapePy24staticCallback_setSolidsEP7_objectS2_Pv
Part.so:_ZN4Part11TopoShapePy24staticCallback_setVolumeEP7_objectS2_Pv
Part.so:_ZN4Part11TopoShapePy24staticCallback_translateEP7_objectS2_
Part.so:_ZN4Part11TopoShapePy25makePerspectiveProjectionEP7_object
Part.so:_ZN4Part11TopoShapePy25staticCallback_complementEP7_objectS2_
Part.so:_ZN4Part11TopoShapePy25staticCallback_exportBrepEP7_objectS2_
Part.so:_ZN4Part11TopoShapePy25staticCallback_exportIgesEP7_objectS2_
Part.so:_ZN4Part11TopoShapePy25staticCallback_exportStepEP7_objectS2_
Part.so:_ZN4Part11TopoShapePy25staticCallback_getElementEP7_objectS2_
Part.so:_ZN4Part11TopoShapePy25staticCallback_importBrepEP7_objectS2_
Part.so:_ZN4Part11TopoShapePy25staticCallback_makeFilletEP7_objectS2_
Part.so:_ZN4Part11TopoShapePy25staticCallback_tessellateEP7_objectS2_
Part.so:_ZN4Part11TopoShapePy26staticCallback_childShapesEP7_objectS2_
Part.so:_ZN4Part11TopoShapePy26staticCallback_defeaturingEP7_objectS2_
Part.so:_ZN4Part11TopoShapePy26staticCallback_distToShapeEP7_objectS2_
Part.so:_ZN4Part11TopoShapePy26staticCallback_generalFuseEP7_objectS2_
Part.so:_ZN4Part11TopoShapePy26staticCallback_getVertexesEP7_objectPv
Part.so:_ZN4Part11TopoShapePy26staticCallback_inToleranceEP7_objectS2_
Part.so:_ZN4Part11TopoShapePy26staticCallback_makeChamferEP7_objectS2_
Part.so:_ZN4Part11TopoShapePy26staticCallback_removeShapeEP7_objectS2_
Part.so:_ZN4Part11TopoShapePy26staticCallback_setVertexesEP7_objectS2_Pv
Part.so:_ZN4Part11TopoShapePy27staticCallback___getstate__EP7_objectS2_
Part.so:_ZN4Part11TopoShapePy27staticCallback___setstate__EP7_objectS2_
Part.so:_ZN4Part11TopoShapePy27staticCallback_dumpToStringEP7_objectS2_
Part.so:_ZN4Part11TopoShapePy27staticCallback_exportBinaryEP7_objectS2_
Part.so:_ZN4Part11TopoShapePy27staticCallback_fixToleranceEP7_objectS2_
Part.so:_ZN4Part11TopoShapePy27staticCallback_getCompoundsEP7_objectPv
Part.so:_ZN4Part11TopoShapePy27staticCallback_getShapeTypeEP7_objectPv
Part.so:_ZN4Part11TopoShapePy27staticCallback_getToleranceEP7_objectS2_
Part.so:_ZN4Part11TopoShapePy27staticCallback_importBinaryEP7_objectS2_
Part.so:_ZN4Part11TopoShapePy27staticCallback_makeOffset2DEP7_objectS2_S2_
Part.so:_ZN4Part11TopoShapePy27staticCallback_reflectLinesEP7_objectS2_S2_
Part.so:_ZN4Part11TopoShapePy27staticCallback_replaceShapeEP7_objectS2_
Part.so:_ZN4Part11TopoShapePy27staticCallback_setCompoundsEP7_objectS2_Pv
Part.so:_ZN4Part11TopoShapePy27staticCallback_setShapeTypeEP7_objectS2_Pv
Part.so:_ZN4Part11TopoShapePy28staticCallback_getCompSolidsEP7_objectPv
Part.so:_ZN4Part11TopoShapePy28staticCallback_makeThicknessEP7_objectS2_
Part.so:_ZN4Part11TopoShapePy28staticCallback_overToleranceEP7_objectS2_
Part.so:_ZN4Part11TopoShapePy28staticCallback_setCompSolidsEP7_objectS2_Pv
Part.so:_ZN4Part11TopoShapePy28staticCallback_writeInventorEP7_objectS2_S2_
Part.so:_ZN4Part11TopoShapePy29staticCallback_getOrientationEP7_objectPv
Part.so:_ZN4Part11TopoShapePy29staticCallback_limitToleranceEP7_objectS2_
Part.so:_ZN4Part11TopoShapePy29staticCallback_removeSplitterEP7_objectS2_
Part.so:_ZN4Part11TopoShapePy29staticCallback_setOrientationEP7_objectS2_Pv
Part.so:_ZN4Part11TopoShapePy29staticCallback_transformShapeEP7_objectS2_
Part.so:_ZN4Part11TopoShapePy30staticCallback_ancestorsOfTypeEP7_objectS2_
Part.so:_ZN4Part11TopoShapePy30staticCallback_globalToleranceEP7_objectS2_
Part.so:_ZN4Part11TopoShapePy30staticCallback_makeOffsetShapeEP7_objectS2_S2_
Part.so:_ZN4Part11TopoShapePy32staticCallback_makeShapeFromMeshEP7_objectS2_
Part.so:_ZN4Part11TopoShapePy32staticCallback_transformGeometryEP7_objectS2_
Part.so:_ZN4Part11TopoShapePy33staticCallback_exportBrepToStringEP7_objectS2_
Part.so:_ZN4Part11TopoShapePy33staticCallback_optimalBoundingBoxEP7_objectS2_
Part.so:_ZN4Part11TopoShapePy34staticCallback_removeInternalWiresEP7_objectS2_
Part.so:_ZN4Part11TopoShapePy35staticCallback_importBrepFromStringEP7_objectS2_
Part.so:_ZN4Part11TopoShapePy37staticCallback_makeParallelProjectionEP7_objectS2_
Part.so:_ZN4Part11TopoShapePy3cutEP7_object
Part.so:_ZN4Part11TopoShapePy3fixEP7_object
Part.so:_ZN4Part11TopoShapePy40staticCallback_makePerspectiveProjectionEP7_objectS2_
Part.so:_ZN4Part11TopoShapePy4copyEP7_object
Part.so:_ZN4Part11TopoShapePy4fuseEP7_object
Part.so:_ZN4Part11TopoShapePy4readEP7_object
Part.so:_ZN4Part11TopoShapePy5_reprEv
Part.so:_ZN4Part11TopoShapePy5checkEP7_object
Part.so:_ZN4Part11TopoShapePy5scaleEP7_object
Part.so:_ZN4Part11TopoShapePy5sliceEP7_object
Part.so:_ZN4Part11TopoShapePy6PyInitEP7_objectS2_
Part.so:_ZN4Part11TopoShapePy6PyMakeEP11_typeobjectP7_objectS4_
Part.so:_ZN4Part11TopoShapePy6commonEP7_object
Part.so:_ZN4Part11TopoShapePy6isNullEP7_object
Part.so:_ZN4Part11TopoShapePy6isSameEP7_object
Part.so:_ZN4Part11TopoShapePy6mirrorEP7_object
Part.so:_ZN4Part11TopoShapePy6rotateEP7_object
Part.so:_ZN4Part11TopoShapePy6slicesEP7_object
Part.so:_ZN4Part11TopoShapePy7cleanedEP7_object
Part.so:_ZN4Part11TopoShapePy7extrudeEP7_object
Part.so:_ZN4Part11TopoShapePy7isEqualEP7_object
Part.so:_ZN4Part11TopoShapePy7isValidEP7_object
Part.so:_ZN4Part11TopoShapePy7nullifyEP7_object
Part.so:_ZN4Part11TopoShapePy7oldFuseEP7_object
Part.so:_ZN4Part11TopoShapePy7projectEP7_object
Part.so:_ZN4Part11TopoShapePy7reverseEP7_object
Part.so:_ZN4Part11TopoShapePy7revolveEP7_object
Part.so:_ZN4Part11TopoShapePy7sectionEP7_object
Part.so:_ZN4Part11TopoShapePy7toNurbsEP7_object
Part.so:_ZN4Part11TopoShapePy8_getattrEPKc
Part.so:_ZN4Part11TopoShapePy8_setattrEPKcP7_object
Part.so:_ZN4Part11TopoShapePy8hashCodeEP7_object
Part.so:_ZN4Part11TopoShapePy8isClosedEP7_object
Part.so:_ZN4Part11TopoShapePy8isInsideEP7_object
Part.so:_ZN4Part11TopoShapePy8sewShapeEP7_object
Part.so:_ZN4Part11TopoShapePy9exportStlEP7_object
Part.so:_ZN4Part11TopoShapePy9isPartnerEP7_object
Part.so:_ZN4Part11TopoShapePy9multiFuseEP7_object
Part.so:_ZN4Part11TopoShapePy9proximityEP7_object
Part.so:_ZN4Part11TopoShapePy9translateEP7_object
Part.so:_ZN4Part11TopoShapePyC1EPNS_9TopoShapeEP11_typeobject
Part.so:_ZN4Part11TopoShapePyC2EPNS_9TopoShapeEP11_typeobject
Part.so:_ZN4Part11TopoShapePyD0Ev
Part.so:_ZN4Part11TopoShapePyD1Ev
Part.so:_ZN4Part11TopoShapePyD2Ev
Part.so:_ZN4Part12ArcOfConicPy10setAngleXUEN2Py5FloatE
Part.so:_ZN4Part12ArcOfConicPy11setLocationEN2Py6ObjectE
Part.so:_ZN4Part12ArcOfConicPy19setCustomAttributesEPKcP7_object
Part.so:_ZN4Part12ArcOfConicPy22staticCallback_getAxisEP7_objectPv
Part.so:_ZN4Part12ArcOfConicPy22staticCallback_setAxisEP7_objectS2_Pv
Part.so:_ZN4Part12ArcOfConicPy23staticCallback_getXAxisEP7_objectPv
Part.so:_ZN4Part12ArcOfConicPy23staticCallback_getYAxisEP7_objectPv
Part.so:_ZN4Part12ArcOfConicPy23staticCallback_setXAxisEP7_objectS2_Pv
Part.so:_ZN4Part12ArcOfConicPy23staticCallback_setYAxisEP7_objectS2_Pv
Part.so:_ZN4Part12ArcOfConicPy24staticCallback_getCenterEP7_objectPv
Part.so:_ZN4Part12ArcOfConicPy24staticCallback_setCenterEP7_objectS2_Pv
Part.so:_ZN4Part12ArcOfConicPy25staticCallback_getAngleXUEP7_objectPv
Part.so:_ZN4Part12ArcOfConicPy25staticCallback_setAngleXUEP7_objectS2_Pv
Part.so:_ZN4Part12ArcOfConicPy26staticCallback_getLocationEP7_objectPv
Part.so:_ZN4Part12ArcOfConicPy26staticCallback_setLocationEP7_objectS2_Pv
Part.so:_ZN4Part12ArcOfConicPy5_reprEv
Part.so:_ZN4Part12ArcOfConicPy6PyInitEP7_objectS2_
Part.so:_ZN4Part12ArcOfConicPy6PyMakeEP11_typeobjectP7_objectS4_
Part.so:_ZN4Part12ArcOfConicPy7setAxisEN2Py6ObjectE
Part.so:_ZN4Part12ArcOfConicPy8_getattrEPKc
Part.so:_ZN4Part12ArcOfConicPy8_setattrEPKcP7_object
Part.so:_ZN4Part12ArcOfConicPy8setXAxisEN2Py6ObjectE
Part.so:_ZN4Part12ArcOfConicPy8setYAxisEN2Py6ObjectE
Part.so:_ZN4Part12ArcOfConicPy9setCenterEN2Py6ObjectE
Part.so:_ZN4Part12ArcOfConicPyC1EPNS_14GeomArcOfConicEP11_typeobject
Part.so:_ZN4Part12ArcOfConicPyC2EPNS_14GeomArcOfConicEP11_typeobject
Part.so:_ZN4Part12ArcOfConicPyD0Ev
Part.so:_ZN4Part12ArcOfConicPyD1Ev
Part.so:_ZN4Part12ArcOfConicPyD2Ev
Part.so:_ZN4Part12CrossSectionC1EdddRK12TopoDS_Shape
Part.so:_ZN4Part12CrossSectionC2EdddRK12TopoDS_Shape
Part.so:_ZN4Part12Geom2dCircle11getPyObjectEv
Part.so:_ZN4Part12Geom2dCircle14getClassTypeIdEv
Part.so:_ZN4Part12Geom2dCircle4initEv
Part.so:_ZN4Part12Geom2dCircle6createEv
Part.so:_ZN4Part12Geom2dCircle7RestoreERN4Base9XMLReaderE
Part.so:_ZN4Part12Geom2dCircle9setRadiusEd
Part.so:_ZN4Part12Geom2dCircleC1ERK20Handle_Geom2d_Circle
Part.so:_ZN4Part12Geom2dCircleC1Ev
Part.so:_ZN4Part12Geom2dCircleC2ERK20Handle_Geom2d_Circle
Part.so:_ZN4Part12Geom2dCircleC2Ev
Part.so:_ZN4Part12Geom2dCircleD0Ev
Part.so:_ZN4Part12Geom2dCircleD1Ev
Part.so:_ZN4Part12Geom2dCircleD2Ev
Part.so:_ZN4Part12GeomCylinder11getPyObjectEv
Part.so:_ZN4Part12GeomCylinder14getClassTypeIdEv
Part.so:_ZN4Part12GeomCylinder4initEv
Part.so:_ZN4Part12GeomCylinder6createEv
Part.so:_ZN4Part12GeomCylinder7RestoreERN4Base9XMLReaderE
Part.so:_ZN4Part12GeomCylinder9setHandleERK30Handle_Geom_CylindricalSurface
Part.so:_ZN4Part12GeomCylinderC1ERK30Handle_Geom_CylindricalSurface
Part.so:_ZN4Part12GeomCylinderC1Ev
Part.so:_ZN4Part12GeomCylinderC2ERK30Handle_Geom_CylindricalSurface
Part.so:_ZN4Part12GeomCylinderC2Ev
Part.so:_ZN4Part12GeomCylinderD0Ev
Part.so:_ZN4Part12GeomCylinderD1Ev
Part.so:_ZN4Part12GeomCylinderD2Ev
Part.so:_ZN4Part12GeomParabola11getPyObjectEv
Part.so:_ZN4Part12GeomParabola14getClassTypeIdEv
Part.so:_ZN4Part12GeomParabola4initEv
Part.so:_ZN4Part12GeomParabola6createEv
Part.so:_ZN4Part12GeomParabola7RestoreERN4Base9XMLReaderE
Part.so:_ZN4Part12GeomParabola8setFocalEd
Part.so:_ZN4Part12GeomParabola9setHandleERK20Handle_Geom_Parabola
Part.so:_ZN4Part12GeomParabolaC1ERK20Handle_Geom_Parabola
Part.so:_ZN4Part12GeomParabolaC1Ev
Part.so:_ZN4Part12GeomParabolaC2ERK20Handle_Geom_Parabola
Part.so:_ZN4Part12GeomParabolaC2Ev
Part.so:_ZN4Part12GeomParabolaD0Ev
Part.so:_ZN4Part12GeomParabolaD1Ev
Part.so:_ZN4Part12GeomParabolaD2Ev
Part.so:_ZN4Part12Geometry2dPy19setCustomAttributesEPKcP7_object
Part.so:_ZN4Part12Geometry2dPy19staticCallback_copyEP7_objectS2_
Part.so:_ZN4Part12Geometry2dPy20staticCallback_scaleEP7_objectS2_
Part.so:_ZN4Part12Geometry2dPy21staticCallback_mirrorEP7_objectS2_
Part.so:_ZN4Part12Geometry2dPy21staticCallback_rotateEP7_objectS2_
Part.so:_ZN4Part12Geometry2dPy24staticCallback_transformEP7_objectS2_
Part.so:_ZN4Part12Geometry2dPy24staticCallback_translateEP7_objectS2_
Part.so:_ZN4Part12Geometry2dPy4copyEP7_object
Part.so:_ZN4Part12Geometry2dPy5_reprEv
Part.so:_ZN4Part12Geometry2dPy5scaleEP7_object
Part.so:_ZN4Part12Geometry2dPy6PyInitEP7_objectS2_
Part.so:_ZN4Part12Geometry2dPy6PyMakeEP11_typeobjectP7_objectS4_
Part.so:_ZN4Part12Geometry2dPy6mirrorEP7_object
Part.so:_ZN4Part12Geometry2dPy6rotateEP7_object
Part.so:_ZN4Part12Geometry2dPy8_getattrEPKc
Part.so:_ZN4Part12Geometry2dPy8_setattrEPKcP7_object
Part.so:_ZN4Part12Geometry2dPy9transformEP7_object
Part.so:_ZN4Part12Geometry2dPy9translateEP7_object
Part.so:_ZN4Part12Geometry2dPyC1EPNS_10Geometry2dEP11_typeobject
Part.so:_ZN4Part12Geometry2dPyC2EPNS_10Geometry2dEP11_typeobject
Part.so:_ZN4Part12Geometry2dPyD0Ev
Part.so:_ZN4Part12Geometry2dPyD1Ev
Part.so:_ZN4Part12Geometry2dPyD2Ev
Part.so:_ZN4Part12Parabola2dPy19setCustomAttributesEPKcP7_object
Part.so:_ZN4Part12Parabola2dPy23staticCallback_getFocalEP7_objectPv
Part.so:_ZN4Part12Parabola2dPy23staticCallback_getFocusEP7_objectPv
Part.so:_ZN4Part12Parabola2dPy23staticCallback_setFocalEP7_objectS2_Pv
Part.so:_ZN4Part12Parabola2dPy23staticCallback_setFocusEP7_objectS2_Pv
Part.so:_ZN4Part12Parabola2dPy27staticCallback_getParameterEP7_objectPv
Part.so:_ZN4Part12Parabola2dPy27staticCallback_setParameterEP7_objectS2_Pv
Part.so:_ZN4Part12Parabola2dPy5_reprEv
Part.so:_ZN4Part12Parabola2dPy6PyInitEP7_objectS2_
Part.so:_ZN4Part12Parabola2dPy6PyMakeEP11_typeobjectP7_objectS4_
Part.so:_ZN4Part12Parabola2dPy8_getattrEPKc
Part.so:_ZN4Part12Parabola2dPy8_setattrEPKcP7_object
Part.so:_ZN4Part12Parabola2dPy8setFocalEN2Py5FloatE
Part.so:_ZN4Part12Parabola2dPyC1EPNS_14Geom2dParabolaEP11_typeobject
Part.so:_ZN4Part12Parabola2dPyC2EPNS_14Geom2dParabolaEP11_typeobject
Part.so:_ZN4Part12Parabola2dPyD0Ev
Part.so:_ZN4Part12Parabola2dPyD1Ev
Part.so:_ZN4Part12Parabola2dPyD2Ev
Part.so:_ZN4Part12Part2DObject14acceptGeometryEv
Part.so:_ZN4Part12Part2DObject14getClassTypeIdEv
Part.so:_ZN4Part12Part2DObject14seekTrimPointsERKSt6vectorIPNS_8GeometryESaIS3_EEiRKN4Base7Vector3IdEERiRSA_SD_SE_
Part.so:_ZN4Part12Part2DObject18getPropertyDataPtrEv
Part.so:_ZN4Part12Part2DObject18transformPlacementERKN4Base9PlacementE
Part.so:_ZN4Part12Part2DObject25handleChangedPropertyNameERN4Base9XMLReaderEPKcS5_
Part.so:_ZN4Part12Part2DObject25handleChangedPropertyTypeERN4Base9XMLReaderEPKcPN3App8PropertyE
Part.so:_ZN4Part12Part2DObject4initEv
Part.so:_ZN4Part12Part2DObject6createEv
Part.so:_ZN4Part12Part2DObject7RestoreERN4Base9XMLReaderE
Part.so:_ZN4Part12Part2DObject7executeEv
Part.so:_ZN4Part12Part2DObjectC1Ev
Part.so:_ZN4Part12Part2DObjectC2Ev
Part.so:_ZN4Part12RuledSurface14getClassTypeIdEv
Part.so:_ZN4Part12RuledSurface18getPropertyDataPtrEv
Part.so:_ZN4Part12RuledSurface4initEv
Part.so:_ZN4Part12RuledSurface6createEv
Part.so:_ZN4Part12RuledSurface7executeEv
Part.so:_ZN4Part12RuledSurface9onChangedEPKN3App8PropertyE
Part.so:_ZN4Part12RuledSurfaceC1Ev
Part.so:_ZN4Part12RuledSurfaceC2Ev
Part.so:_ZN4Part12ShapeSegment14getClassTypeIdEv
Part.so:_ZN4Part12ShapeSegment4initEv
Part.so:_ZN4Part12ShapeSegment6createEv
Part.so:_ZN4Part13ArcOfCirclePy19setCustomAttributesEPKcP7_object
Part.so:_ZN4Part13ArcOfCirclePy24staticCallback_getCircleEP7_objectPv
Part.so:_ZN4Part13ArcOfCirclePy24staticCallback_getRadiusEP7_objectPv
Part.so:_ZN4Part13ArcOfCirclePy24staticCallback_setCircleEP7_objectS2_Pv
Part.so:_ZN4Part13ArcOfCirclePy24staticCallback_setRadiusEP7_objectS2_Pv
Part.so:_ZN4Part13ArcOfCirclePy5_reprEv
Part.so:_ZN4Part13ArcOfCirclePy6PyInitEP7_objectS2_
Part.so:_ZN4Part13ArcOfCirclePy6PyMakeEP11_typeobjectP7_objectS4_
Part.so:_ZN4Part13ArcOfCirclePy8_getattrEPKc
Part.so:_ZN4Part13ArcOfCirclePy8_setattrEPKcP7_object
Part.so:_ZN4Part13ArcOfCirclePy9setRadiusEN2Py5FloatE
Part.so:_ZN4Part13ArcOfCirclePyC1EPNS_15GeomArcOfCircleEP11_typeobject
Part.so:_ZN4Part13ArcOfCirclePyC2EPNS_15GeomArcOfCircleEP11_typeobject
Part.so:_ZN4Part13ArcOfCirclePyD0Ev
Part.so:_ZN4Part13ArcOfCirclePyD1Ev
Part.so:_ZN4Part13ArcOfCirclePyD2Ev
Part.so:_ZN4Part13BezierCurvePy10getWeightsEP7_object
Part.so:_ZN4Part13BezierCurvePy10isPeriodicEP7_object
Part.so:_ZN4Part13BezierCurvePy10isRationalEP7_object
Part.so:_ZN4Part13BezierCurvePy10removePoleEP7_object
Part.so:_ZN4Part13BezierCurvePy13getResolutionEP7_object
Part.so:_ZN4Part13BezierCurvePy15insertPoleAfterEP7_object
Part.so:_ZN4Part13BezierCurvePy16insertPoleBeforeEP7_object
Part.so:_ZN4Part13BezierCurvePy19setCustomAttributesEPKcP7_object
Part.so:_ZN4Part13BezierCurvePy22staticCallback_getPoleEP7_objectS2_
Part.so:_ZN4Part13BezierCurvePy22staticCallback_segmentEP7_objectS2_
Part.so:_ZN4Part13BezierCurvePy22staticCallback_setPoleEP7_objectS2_
Part.so:_ZN4Part13BezierCurvePy23staticCallback_getPolesEP7_objectS2_
Part.so:_ZN4Part13BezierCurvePy23staticCallback_increaseEP7_objectS2_
Part.so:_ZN4Part13BezierCurvePy23staticCallback_isClosedEP7_objectS2_
Part.so:_ZN4Part13BezierCurvePy23staticCallback_setPolesEP7_objectS2_
Part.so:_ZN4Part13BezierCurvePy24staticCallback_getDegreeEP7_objectPv
Part.so:_ZN4Part13BezierCurvePy24staticCallback_getWeightEP7_objectS2_
Part.so:_ZN4Part13BezierCurvePy24staticCallback_setDegreeEP7_objectS2_Pv
Part.so:_ZN4Part13BezierCurvePy24staticCallback_setWeightEP7_objectS2_
Part.so:_ZN4Part13BezierCurvePy25staticCallback_getNbPolesEP7_objectPv
Part.so:_ZN4Part13BezierCurvePy25staticCallback_getWeightsEP7_objectS2_
Part.so:_ZN4Part13BezierCurvePy25staticCallback_isPeriodicEP7_objectS2_
Part.so:_ZN4Part13BezierCurvePy25staticCallback_isRationalEP7_objectS2_
Part.so:_ZN4Part13BezierCurvePy25staticCallback_removePoleEP7_objectS2_
Part.so:_ZN4Part13BezierCurvePy25staticCallback_setNbPolesEP7_objectS2_Pv
Part.so:_ZN4Part13BezierCurvePy26staticCallback_getEndPointEP7_objectPv
Part.so:_ZN4Part13BezierCurvePy26staticCallback_setEndPointEP7_objectS2_Pv
Part.so:_ZN4Part13BezierCurvePy27staticCallback_getMaxDegreeEP7_objectPv
Part.so:_ZN4Part13BezierCurvePy27staticCallback_setMaxDegreeEP7_objectS2_Pv
Part.so:_ZN4Part13BezierCurvePy28staticCallback_getResolutionEP7_objectS2_
Part.so:_ZN4Part13BezierCurvePy28staticCallback_getStartPointEP7_objectPv
Part.so:_ZN4Part13BezierCurvePy28staticCallback_setStartPointEP7_objectS2_Pv
Part.so:_ZN4Part13BezierCurvePy30staticCallback_insertPoleAfterEP7_objectS2_
Part.so:_ZN4Part13BezierCurvePy31staticCallback_insertPoleBeforeEP7_objectS2_
Part.so:_ZN4Part13BezierCurvePy5_reprEv
Part.so:_ZN4Part13BezierCurvePy6PyInitEP7_objectS2_
Part.so:_ZN4Part13BezierCurvePy6PyMakeEP11_typeobjectP7_objectS4_
Part.so:_ZN4Part13BezierCurvePy7getPoleEP7_object
Part.so:_ZN4Part13BezierCurvePy7segmentEP7_object
Part.so:_ZN4Part13BezierCurvePy7setPoleEP7_object
Part.so:_ZN4Part13BezierCurvePy8_getattrEPKc
Part.so:_ZN4Part13BezierCurvePy8_setattrEPKcP7_object
Part.so:_ZN4Part13BezierCurvePy8getPolesEP7_object
Part.so:_ZN4Part13BezierCurvePy8increaseEP7_object
Part.so:_ZN4Part13BezierCurvePy8isClosedEP7_object
Part.so:_ZN4Part13BezierCurvePy8setPolesEP7_object
Part.so:_ZN4Part13BezierCurvePy9getWeightEP7_object
Part.so:_ZN4Part13BezierCurvePy9setWeightEP7_object
Part.so:_ZN4Part13BezierCurvePyC1EPNS_15GeomBezierCurveEP11_typeobject
Part.so:_ZN4Part13BezierCurvePyC2EPNS_15GeomBezierCurveEP11_typeobject
Part.so:_ZN4Part13BezierCurvePyD0Ev
Part.so:_ZN4Part13BezierCurvePyD1Ev
Part.so:_ZN4Part13BezierCurvePyD2Ev
Part.so:_ZN4Part13CustomFeature14getClassTypeIdEv
Part.so:_ZN4Part13CustomFeature18getPropertyDataPtrEv
Part.so:_ZN4Part13CustomFeature4initEv
Part.so:_ZN4Part13CustomFeature6createEv
Part.so:_ZN4Part13CustomFeature7executeEv
Part.so:_ZN4Part13CustomFeatureC1Ev
Part.so:_ZN4Part13CustomFeatureC2Ev
Part.so:_ZN4Part13CustomFeatureD0Ev
Part.so:_ZN4Part13CustomFeatureD1Ev
Part.so:_ZN4Part13CustomFeatureD2Ev
Part.so:_ZN4Part13Geom2dEllipse11getPyObjectEv
Part.so:_ZN4Part13Geom2dEllipse14getClassTypeIdEv
Part.so:_ZN4Part13Geom2dEllipse14setMajorRadiusEd
Part.so:_ZN4Part13Geom2dEllipse14setMinorRadiusEd
Part.so:_ZN4Part13Geom2dEllipse15setMajorAxisDirEN4Base8Vector2dE
Part.so:_ZN4Part13Geom2dEllipse4initEv
Part.so:_ZN4Part13Geom2dEllipse6createEv
Part.so:_ZN4Part13Geom2dEllipse7RestoreERN4Base9XMLReaderE
Part.so:_ZN4Part13Geom2dEllipse9setHandleERK21Handle_Geom2d_Ellipse
Part.so:_ZN4Part13Geom2dEllipseC1ERK21Handle_Geom2d_Ellipse
Part.so:_ZN4Part13Geom2dEllipseC1Ev
Part.so:_ZN4Part13Geom2dEllipseC2ERK21Handle_Geom2d_Ellipse
Part.so:_ZN4Part13Geom2dEllipseC2Ev
Part.so:_ZN4Part13Geom2dEllipseD0Ev
Part.so:_ZN4Part13Geom2dEllipseD1Ev
Part.so:_ZN4Part13Geom2dEllipseD2Ev
Part.so:_ZN4Part13GeomHyperbola11getPyObjectEv
Part.so:_ZN4Part13GeomHyperbola14getClassTypeIdEv
Part.so:_ZN4Part13GeomHyperbola14setMajorRadiusEd
Part.so:_ZN4Part13GeomHyperbola14setMinorRadiusEd
Part.so:_ZN4Part13GeomHyperbola4initEv
Part.so:_ZN4Part13GeomHyperbola6createEv
Part.so:_ZN4Part13GeomHyperbola7RestoreERN4Base9XMLReaderE
Part.so:_ZN4Part13GeomHyperbola9setHandleERK21Handle_Geom_Hyperbola
Part.so:_ZN4Part13GeomHyperbolaC1ERK21Handle_Geom_Hyperbola
Part.so:_ZN4Part13GeomHyperbolaC1Ev
Part.so:_ZN4Part13GeomHyperbolaC2ERK21Handle_Geom_Hyperbola
Part.so:_ZN4Part13GeomHyperbolaC2Ev
Part.so:_ZN4Part13GeomHyperbolaD0Ev
Part.so:_ZN4Part13GeomHyperbolaD1Ev
Part.so:_ZN4Part13GeomHyperbolaD2Ev
Part.so:_ZN4Part13Hyperbola2dPy14setMajorRadiusEN2Py5FloatE
Part.so:_ZN4Part13Hyperbola2dPy14setMinorRadiusEN2Py5FloatE
Part.so:_ZN4Part13Hyperbola2dPy19setCustomAttributesEPKcP7_object
Part.so:_ZN4Part13Hyperbola2dPy23staticCallback_getFocalEP7_objectPv
Part.so:_ZN4Part13Hyperbola2dPy23staticCallback_setFocalEP7_objectS2_Pv
Part.so:_ZN4Part13Hyperbola2dPy24staticCallback_getFocus1EP7_objectPv
Part.so:_ZN4Part13Hyperbola2dPy24staticCallback_getFocus2EP7_objectPv
Part.so:_ZN4Part13Hyperbola2dPy24staticCallback_setFocus1EP7_objectS2_Pv
Part.so:_ZN4Part13Hyperbola2dPy24staticCallback_setFocus2EP7_objectS2_Pv
Part.so:_ZN4Part13Hyperbola2dPy29staticCallback_getMajorRadiusEP7_objectPv
Part.so:_ZN4Part13Hyperbola2dPy29staticCallback_getMinorRadiusEP7_objectPv
Part.so:_ZN4Part13Hyperbola2dPy29staticCallback_setMajorRadiusEP7_objectS2_Pv
Part.so:_ZN4Part13Hyperbola2dPy29staticCallback_setMinorRadiusEP7_objectS2_Pv
Part.so:_ZN4Part13Hyperbola2dPy5_reprEv
Part.so:_ZN4Part13Hyperbola2dPy6PyInitEP7_objectS2_
Part.so:_ZN4Part13Hyperbola2dPy6PyMakeEP11_typeobjectP7_objectS4_
Part.so:_ZN4Part13Hyperbola2dPy8_getattrEPKc
Part.so:_ZN4Part13Hyperbola2dPy8_setattrEPKcP7_object
Part.so:_ZN4Part13Hyperbola2dPyC1EPNS_15Geom2dHyperbolaEP11_typeobject
Part.so:_ZN4Part13Hyperbola2dPyC2EPNS_15Geom2dHyperbolaEP11_typeobject
Part.so:_ZN4Part13Hyperbola2dPyD0Ev
Part.so:_ZN4Part13Hyperbola2dPyD1Ev
Part.so:_ZN4Part13Hyperbola2dPyD2Ev
Part.so:_ZN4Part13LineSegmentPy11setEndPointEN2Py6ObjectE
Part.so:_ZN4Part13LineSegmentPy13setStartPointEN2Py6ObjectE
Part.so:_ZN4Part13LineSegmentPy17setParameterRangeEP7_object
Part.so:_ZN4Part13LineSegmentPy19setCustomAttributesEPKcP7_object
Part.so:_ZN4Part13LineSegmentPy26staticCallback_getEndPointEP7_objectPv
Part.so:_ZN4Part13LineSegmentPy26staticCallback_setEndPointEP7_objectS2_Pv
Part.so:_ZN4Part13LineSegmentPy28staticCallback_getStartPointEP7_objectPv
Part.so:_ZN4Part13LineSegmentPy28staticCallback_setStartPointEP7_objectS2_Pv
Part.so:_ZN4Part13LineSegmentPy32staticCallback_setParameterRangeEP7_objectS2_
Part.so:_ZN4Part13LineSegmentPy5_reprEv
Part.so:_ZN4Part13LineSegmentPy6PyInitEP7_objectS2_
Part.so:_ZN4Part13LineSegmentPy6PyMakeEP11_typeobjectP7_objectS4_
Part.so:_ZN4Part13LineSegmentPy8_getattrEPKc
Part.so:_ZN4Part13LineSegmentPy8_setattrEPKcP7_object
Part.so:_ZN4Part13LineSegmentPyC1EPNS_15GeomLineSegmentEP11_typeobject
Part.so:_ZN4Part13LineSegmentPyC2EPNS_15GeomLineSegmentEP11_typeobject
Part.so:_ZN4Part13LineSegmentPyD0Ev
Part.so:_ZN4Part13LineSegmentPyD1Ev
Part.so:_ZN4Part13LineSegmentPyD2Ev
Part.so:_ZN4Part13OffsetCurvePy13setBasisCurveEN2Py6ObjectE
Part.so:_ZN4Part13OffsetCurvePy14setOffsetValueEN2Py5FloatE
Part.so:_ZN4Part13OffsetCurvePy18setOffsetDirectionEN2Py6ObjectE
Part.so:_ZN4Part13OffsetCurvePy19setCustomAttributesEPKcP7_object
Part.so:_ZN4Part13OffsetCurvePy28staticCallback_getBasisCurveEP7_objectPv
Part.so:_ZN4Part13OffsetCurvePy28staticCallback_setBasisCurveEP7_objectS2_Pv
Part.so:_ZN4Part13OffsetCurvePy29staticCallback_getOffsetValueEP7_objectPv
Part.so:_ZN4Part13OffsetCurvePy29staticCallback_setOffsetValueEP7_objectS2_Pv
Part.so:_ZN4Part13OffsetCurvePy33staticCallback_getOffsetDirectionEP7_objectPv
Part.so:_ZN4Part13OffsetCurvePy33staticCallback_setOffsetDirectionEP7_objectS2_Pv
Part.so:_ZN4Part13OffsetCurvePy5_reprEv
Part.so:_ZN4Part13OffsetCurvePy6PyInitEP7_objectS2_
Part.so:_ZN4Part13OffsetCurvePy6PyMakeEP11_typeobjectP7_objectS4_
Part.so:_ZN4Part13OffsetCurvePy8_getattrEPKc
Part.so:_ZN4Part13OffsetCurvePy8_setattrEPKcP7_object
Part.so:_ZN4Part13OffsetCurvePyC1EPNS_15GeomOffsetCurveEP11_typeobject
Part.so:_ZN4Part13OffsetCurvePyC2EPNS_15GeomOffsetCurveEP11_typeobject
Part.so:_ZN4Part13OffsetCurvePyD0Ev
Part.so:_ZN4Part13OffsetCurvePyD1Ev
Part.so:_ZN4Part13OffsetCurvePyD2Ev
Part.so:_ZN4Part13PartFeaturePy19setCustomAttributesEPKcP7_object
Part.so:_ZN4Part13PartFeaturePy5_reprEv
Part.so:_ZN4Part13PartFeaturePy6PyInitEP7_objectS2_
Part.so:_ZN4Part13PartFeaturePy6PyMakeEP11_typeobjectP7_objectS4_
Part.so:_ZN4Part13PartFeaturePy8_getattrEPKc
Part.so:_ZN4Part13PartFeaturePy8_setattrEPKcP7_object
Part.so:_ZN4Part13PartFeaturePyC1EPNS_7FeatureEP11_typeobject
Part.so:_ZN4Part13PartFeaturePyC2EPNS_7FeatureEP11_typeobject
Part.so:_ZN4Part13PartFeaturePyD0Ev
Part.so:_ZN4Part13PartFeaturePyD1Ev
Part.so:_ZN4Part13PartFeaturePyD2Ev
Part.so:_ZN4Part13create3dCurveERK11TopoDS_Edge
Part.so:_ZN4Part13shape2pyshapeERK12TopoDS_Shape
Part.so:_ZN4Part13tangentialArcERK6gp_PntRK6gp_VecS2_RS0_R6gp_Dir
Part.so:_ZN4Part14ArcOfConic2dPy11setLocationEN2Py6ObjectE
Part.so:_ZN4Part14ArcOfConic2dPy19setCustomAttributesEPKcP7_object
Part.so:_ZN4Part14ArcOfConic2dPy23staticCallback_getXAxisEP7_objectPv
Part.so:_ZN4Part14ArcOfConic2dPy23staticCallback_getYAxisEP7_objectPv
Part.so:_ZN4Part14ArcOfConic2dPy23staticCallback_setXAxisEP7_objectS2_Pv
Part.so:_ZN4Part14ArcOfConic2dPy23staticCallback_setYAxisEP7_objectS2_Pv
Part.so:_ZN4Part14ArcOfConic2dPy26staticCallback_getLocationEP7_objectPv
Part.so:_ZN4Part14ArcOfConic2dPy26staticCallback_setLocationEP7_objectS2_Pv
Part.so:_ZN4Part14ArcOfConic2dPy30staticCallback_getEccentricityEP7_objectPv
Part.so:_ZN4Part14ArcOfConic2dPy30staticCallback_setEccentricityEP7_objectS2_Pv
Part.so:_ZN4Part14ArcOfConic2dPy5_reprEv
Part.so:_ZN4Part14ArcOfConic2dPy6PyInitEP7_objectS2_
Part.so:_ZN4Part14ArcOfConic2dPy6PyMakeEP11_typeobjectP7_objectS4_
Part.so:_ZN4Part14ArcOfConic2dPy8_getattrEPKc
Part.so:_ZN4Part14ArcOfConic2dPy8_setattrEPKcP7_object
Part.so:_ZN4Part14ArcOfConic2dPy8setXAxisEN2Py6ObjectE
Part.so:_ZN4Part14ArcOfConic2dPy8setYAxisEN2Py6ObjectE
Part.so:_ZN4Part14ArcOfConic2dPyC1EPNS_16Geom2dArcOfConicEP11_typeobject
Part.so:_ZN4Part14ArcOfConic2dPyC2EPNS_16Geom2dArcOfConicEP11_typeobject
Part.so:_ZN4Part14ArcOfConic2dPyD0Ev
Part.so:_ZN4Part14ArcOfConic2dPyD1Ev
Part.so:_ZN4Part14ArcOfConic2dPyD2Ev
Part.so:_ZN4Part14ArcOfEllipsePy14setMajorRadiusEN2Py5FloatE
Part.so:_ZN4Part14ArcOfEllipsePy14setMinorRadiusEN2Py5FloatE
Part.so:_ZN4Part14ArcOfEllipsePy19setCustomAttributesEPKcP7_object
Part.so:_ZN4Part14ArcOfEllipsePy25staticCallback_getEllipseEP7_objectPv
Part.so:_ZN4Part14ArcOfEllipsePy25staticCallback_setEllipseEP7_objectS2_Pv
Part.so:_ZN4Part14ArcOfEllipsePy29staticCallback_getMajorRadiusEP7_objectPv
Part.so:_ZN4Part14ArcOfEllipsePy29staticCallback_getMinorRadiusEP7_objectPv
Part.so:_ZN4Part14ArcOfEllipsePy29staticCallback_setMajorRadiusEP7_objectS2_Pv
Part.so:_ZN4Part14ArcOfEllipsePy29staticCallback_setMinorRadiusEP7_objectS2_Pv
Part.so:_ZN4Part14ArcOfEllipsePy5_reprEv
Part.so:_ZN4Part14ArcOfEllipsePy6PyInitEP7_objectS2_
Part.so:_ZN4Part14ArcOfEllipsePy6PyMakeEP11_typeobjectP7_objectS4_
Part.so:_ZN4Part14ArcOfEllipsePy8_getattrEPKc
Part.so:_ZN4Part14ArcOfEllipsePy8_setattrEPKcP7_object
Part.so:_ZN4Part14ArcOfEllipsePyC1EPNS_16GeomArcOfEllipseEP11_typeobject
Part.so:_ZN4Part14ArcOfEllipsePyC2EPNS_16GeomArcOfEllipseEP11_typeobject
Part.so:_ZN4Part14ArcOfEllipsePyD0Ev
Part.so:_ZN4Part14ArcOfEllipsePyD1Ev
Part.so:_ZN4Part14ArcOfEllipsePyD2Ev
Part.so:_ZN4Part14BSplineCurvePy10__reduce__EP7_object
Part.so:_ZN4Part14BSplineCurvePy10getWeightsEP7_object
Part.so:_ZN4Part14BSplineCurvePy10insertKnotEP7_object
Part.so:_ZN4Part14BSplineCurvePy10isPeriodicEP7_object
Part.so:_ZN4Part14BSplineCurvePy10isRationalEP7_object
Part.so:_ZN4Part14BSplineCurvePy10removeKnotEP7_object
Part.so:_ZN4Part14BSplineCurvePy11approximateEP7_objectS2_
Part.so:_ZN4Part14BSplineCurvePy11insertKnotsEP7_object
Part.so:_ZN4Part14BSplineCurvePy11interpolateEP7_objectS2_
Part.so:_ZN4Part14BSplineCurvePy11setPeriodicEP7_object
Part.so:_ZN4Part14BSplineCurvePy13getResolutionEP7_object
Part.so:_ZN4Part14BSplineCurvePy14buildFromPolesEP7_object
Part.so:_ZN4Part14BSplineCurvePy14increaseDegreeEP7_object
Part.so:_ZN4Part14BSplineCurvePy14setNotPeriodicEP7_object
Part.so:_ZN4Part14BSplineCurvePy15getMultiplicityEP7_object
Part.so:_ZN4Part14BSplineCurvePy16makeC1ContinuousEP7_object
Part.so:_ZN4Part14BSplineCurvePy17getMultiplicitiesEP7_object
Part.so:_ZN4Part14BSplineCurvePy18getPolesAndWeightsEP7_object
Part.so:_ZN4Part14BSplineCurvePy19setCustomAttributesEPKcP7_object
Part.so:_ZN4Part14BSplineCurvePy19staticCallback_joinEP7_objectS2_
Part.so:_ZN4Part14BSplineCurvePy20increaseMultiplicityEP7_object
Part.so:_ZN4Part14BSplineCurvePy21incrementMultiplicityEP7_object
Part.so:_ZN4Part14BSplineCurvePy22staticCallback_getKnotEP7_objectS2_
Part.so:_ZN4Part14BSplineCurvePy22staticCallback_getPoleEP7_objectS2_
Part.so:_ZN4Part14BSplineCurvePy22staticCallback_segmentEP7_objectS2_
Part.so:_ZN4Part14BSplineCurvePy22staticCallback_setKnotEP7_objectS2_
Part.so:_ZN4Part14BSplineCurvePy22staticCallback_setPoleEP7_objectS2_
Part.so:_ZN4Part14BSplineCurvePy23staticCallback_getKnotsEP7_objectS2_
Part.so:_ZN4Part14BSplineCurvePy23staticCallback_getPolesEP7_objectS2_
Part.so:_ZN4Part14BSplineCurvePy23staticCallback_isClosedEP7_objectS2_
Part.so:_ZN4Part14BSplineCurvePy23staticCallback_setKnotsEP7_objectS2_
Part.so:_ZN4Part14BSplineCurvePy23staticCallback_toBezierEP7_objectS2_
Part.so:_ZN4Part14BSplineCurvePy23staticCallback_toBiArcsEP7_objectS2_
Part.so:_ZN4Part14BSplineCurvePy24buildFromPolesMultsKnotsEP7_objectS2_
Part.so:_ZN4Part14BSplineCurvePy24staticCallback_getDegreeEP7_objectPv
Part.so:_ZN4Part14BSplineCurvePy24staticCallback_getWeightEP7_objectS2_
Part.so:_ZN4Part14BSplineCurvePy24staticCallback_movePointEP7_objectS2_
Part.so:_ZN4Part14BSplineCurvePy24staticCallback_setDegreeEP7_objectS2_Pv
Part.so:_ZN4Part14BSplineCurvePy24staticCallback_setOriginEP7_objectS2_
Part.so:_ZN4Part14BSplineCurvePy24staticCallback_setWeightEP7_objectS2_
Part.so:_ZN4Part14BSplineCurvePy25getCardinalSplineTangentsEP7_objectS2_
Part.so:_ZN4Part14BSplineCurvePy25staticCallback___reduce__EP7_objectS2_
Part.so:_ZN4Part14BSplineCurvePy25staticCallback_getNbKnotsEP7_objectPv
Part.so:_ZN4Part14BSplineCurvePy25staticCallback_getNbPolesEP7_objectPv
Part.so:_ZN4Part14BSplineCurvePy25staticCallback_getWeightsEP7_objectS2_
Part.so:_ZN4Part14BSplineCurvePy25staticCallback_insertKnotEP7_objectS2_
Part.so:_ZN4Part14BSplineCurvePy25staticCallback_isPeriodicEP7_objectS2_
Part.so:_ZN4Part14BSplineCurvePy25staticCallback_isRationalEP7_objectS2_
Part.so:_ZN4Part14BSplineCurvePy25staticCallback_removeKnotEP7_objectS2_
Part.so:_ZN4Part14BSplineCurvePy25staticCallback_setNbKnotsEP7_objectS2_Pv
Part.so:_ZN4Part14BSplineCurvePy25staticCallback_setNbPolesEP7_objectS2_Pv
Part.so:_ZN4Part14BSplineCurvePy26staticCallback_approximateEP7_objectS2_S2_
Part.so:_ZN4Part14BSplineCurvePy26staticCallback_getEndPointEP7_objectPv
Part.so:_ZN4Part14BSplineCurvePy26staticCallback_insertKnotsEP7_objectS2_
Part.so:_ZN4Part14BSplineCurvePy26staticCallback_interpolateEP7_objectS2_S2_
Part.so:_ZN4Part14BSplineCurvePy26staticCallback_setEndPointEP7_objectS2_Pv
Part.so:_ZN4Part14BSplineCurvePy26staticCallback_setPeriodicEP7_objectS2_
Part.so:_ZN4Part14BSplineCurvePy27staticCallback_getMaxDegreeEP7_objectPv
Part.so:_ZN4Part14BSplineCurvePy27staticCallback_setMaxDegreeEP7_objectS2_Pv
Part.so:_ZN4Part14BSplineCurvePy28staticCallback_getResolutionEP7_objectS2_
Part.so:_ZN4Part14BSplineCurvePy28staticCallback_getStartPointEP7_objectPv
Part.so:_ZN4Part14BSplineCurvePy28staticCallback_setStartPointEP7_objectS2_Pv
Part.so:_ZN4Part14BSplineCurvePy29staticCallback_buildFromPolesEP7_objectS2_
Part.so:_ZN4Part14BSplineCurvePy29staticCallback_increaseDegreeEP7_objectS2_
Part.so:_ZN4Part14BSplineCurvePy29staticCallback_setNotPeriodicEP7_objectS2_
Part.so:_ZN4Part14BSplineCurvePy30staticCallback_getKnotSequenceEP7_objectPv
Part.so:_ZN4Part14BSplineCurvePy30staticCallback_getMultiplicityEP7_objectS2_
Part.so:_ZN4Part14BSplineCurvePy30staticCallback_setKnotSequenceEP7_objectS2_Pv
Part.so:_ZN4Part14BSplineCurvePy31staticCallback_makeC1ContinuousEP7_objectS2_
Part.so:_ZN4Part14BSplineCurvePy32staticCallback_getLastUKnotIndexEP7_objectPv
Part.so:_ZN4Part14BSplineCurvePy32staticCallback_getMultiplicitiesEP7_objectS2_
Part.so:_ZN4Part14BSplineCurvePy32staticCallback_setLastUKnotIndexEP7_objectS2_Pv
Part.so:_ZN4Part14BSplineCurvePy33staticCallback_getFirstUKnotIndexEP7_objectPv
Part.so:_ZN4Part14BSplineCurvePy33staticCallback_getPolesAndWeightsEP7_objectS2_
Part.so:_ZN4Part14BSplineCurvePy33staticCallback_setFirstUKnotIndexEP7_objectS2_Pv
Part.so:_ZN4Part14BSplineCurvePy35staticCallback_increaseMultiplicityEP7_objectS2_
Part.so:_ZN4Part14BSplineCurvePy36staticCallback_incrementMultiplicityEP7_objectS2_
Part.so:_ZN4Part14BSplineCurvePy39staticCallback_buildFromPolesMultsKnotsEP7_objectS2_S2_
Part.so:_ZN4Part14BSplineCurvePy40staticCallback_getCardinalSplineTangentsEP7_objectS2_S2_
Part.so:_ZN4Part14BSplineCurvePy4joinEP7_object
Part.so:_ZN4Part14BSplineCurvePy5_reprEv
Part.so:_ZN4Part14BSplineCurvePy6PyInitEP7_objectS2_
Part.so:_ZN4Part14BSplineCurvePy6PyMakeEP11_typeobjectP7_objectS4_
Part.so:_ZN4Part14BSplineCurvePy7getKnotEP7_object
Part.so:_ZN4Part14BSplineCurvePy7getPoleEP7_object
Part.so:_ZN4Part14BSplineCurvePy7segmentEP7_object
Part.so:_ZN4Part14BSplineCurvePy7setKnotEP7_object
Part.so:_ZN4Part14BSplineCurvePy7setPoleEP7_object
Part.so:_ZN4Part14BSplineCurvePy8_getattrEPKc
Part.so:_ZN4Part14BSplineCurvePy8_setattrEPKcP7_object
Part.so:_ZN4Part14BSplineCurvePy8getKnotsEP7_object
Part.so:_ZN4Part14BSplineCurvePy8getPolesEP7_object
Part.so:_ZN4Part14BSplineCurvePy8isClosedEP7_object
Part.so:_ZN4Part14BSplineCurvePy8setKnotsEP7_object
Part.so:_ZN4Part14BSplineCurvePy8toBezierEP7_object
Part.so:_ZN4Part14BSplineCurvePy8toBiArcsEP7_object
Part.so:_ZN4Part14BSplineCurvePy9getWeightEP7_object
Part.so:_ZN4Part14BSplineCurvePy9movePointEP7_object
Part.so:_ZN4Part14BSplineCurvePy9setOriginEP7_object
Part.so:_ZN4Part14BSplineCurvePy9setWeightEP7_object
Part.so:_ZN4Part14BSplineCurvePyC1EPNS_16GeomBSplineCurveEP11_typeobject
Part.so:_ZN4Part14BSplineCurvePyC2EPNS_16GeomBSplineCurveEP11_typeobject
Part.so:_ZN4Part14BSplineCurvePyD0Ev
Part.so:_ZN4Part14BSplineCurvePyD1Ev
Part.so:_ZN4Part14BSplineCurvePyD2Ev
Part.so:_ZN4Part14BoundedCurvePy19setCustomAttributesEPKcP7_object
Part.so:_ZN4Part14BoundedCurvePy26staticCallback_getEndPointEP7_objectPv
Part.so:_ZN4Part14BoundedCurvePy26staticCallback_setEndPointEP7_objectS2_Pv
Part.so:_ZN4Part14BoundedCurvePy28staticCallback_getStartPointEP7_objectPv
Part.so:_ZN4Part14BoundedCurvePy28staticCallback_setStartPointEP7_objectS2_Pv
Part.so:_ZN4Part14BoundedCurvePy5_reprEv
Part.so:_ZN4Part14BoundedCurvePy6PyInitEP7_objectS2_
Part.so:_ZN4Part14BoundedCurvePy6PyMakeEP11_typeobjectP7_objectS4_
Part.so:_ZN4Part14BoundedCurvePy8_getattrEPKc
Part.so:_ZN4Part14BoundedCurvePy8_setattrEPKcP7_object
Part.so:_ZN4Part14BoundedCurvePyC1EPNS_16GeomBoundedCurveEP11_typeobject
Part.so:_ZN4Part14BoundedCurvePyC2EPNS_16GeomBoundedCurveEP11_typeobject
Part.so:_ZN4Part14BoundedCurvePyD0Ev
Part.so:_ZN4Part14BoundedCurvePyD1Ev
Part.so:_ZN4Part14BoundedCurvePyD2Ev
Part.so:_ZN4Part14Geom2dParabola11getPyObjectEv
Part.so:_ZN4Part14Geom2dParabola14getClassTypeIdEv
Part.so:_ZN4Part14Geom2dParabola4initEv
Part.so:_ZN4Part14Geom2dParabola6createEv
Part.so:_ZN4Part14Geom2dParabola7RestoreERN4Base9XMLReaderE
Part.so:_ZN4Part14Geom2dParabola8setFocalEd
Part.so:_ZN4Part14Geom2dParabolaC1ERK22Handle_Geom2d_Parabola
Part.so:_ZN4Part14Geom2dParabolaC1Ev
Part.so:_ZN4Part14Geom2dParabolaC2ERK22Handle_Geom2d_Parabola
Part.so:_ZN4Part14Geom2dParabolaC2Ev
Part.so:_ZN4Part14Geom2dParabolaD0Ev
Part.so:_ZN4Part14Geom2dParabolaD1Ev
Part.so:_ZN4Part14Geom2dParabolaD2Ev
Part.so:_ZN4Part14GeomArcOfConic10setAngleXUEd
Part.so:_ZN4Part14GeomArcOfConic11setLocationERKN4Base7Vector3IdEE
Part.so:_ZN4Part14GeomArcOfConic11setXAxisDirERKN4Base7Vector3IdEE
Part.so:_ZN4Part14GeomArcOfConic14getClassTypeIdEv
Part.so:_ZN4Part14GeomArcOfConic4initEv
Part.so:_ZN4Part14GeomArcOfConic6createEv
Part.so:_ZN4Part14GeomArcOfConic9setCenterERKN4Base7Vector3IdEE
Part.so:_ZN4Part14GeomArcOfConicC1Ev
Part.so:_ZN4Part14GeomArcOfConicC2Ev
Part.so:_ZN4Part14GeomArcOfConicD0Ev
Part.so:_ZN4Part14GeomArcOfConicD1Ev
Part.so:_ZN4Part14GeomArcOfConicD2Ev
Part.so:_ZN4Part14Part2DObjectPy19setCustomAttributesEPKcP7_object
Part.so:_ZN4Part14Part2DObjectPy5_reprEv
Part.so:_ZN4Part14Part2DObjectPy6PyInitEP7_objectS2_
Part.so:_ZN4Part14Part2DObjectPy6PyMakeEP11_typeobjectP7_objectS4_
Part.so:_ZN4Part14Part2DObjectPy8_getattrEPKc
Part.so:_ZN4Part14Part2DObjectPy8_setattrEPKcP7_object
Part.so:_ZN4Part14Part2DObjectPyC1EPNS_12Part2DObjectEP11_typeobject
Part.so:_ZN4Part14Part2DObjectPyC2EPNS_12Part2DObjectEP11_typeobject
Part.so:_ZN4Part14Part2DObjectPyD0Ev
Part.so:_ZN4Part14Part2DObjectPyD1Ev
Part.so:_ZN4Part14Part2DObjectPyD2Ev
Part.so:_ZN4Part14PlateSurfacePy10makeApproxEP7_objectS2_
Part.so:_ZN4Part14PlateSurfacePy19setCustomAttributesEPKcP7_object
Part.so:_ZN4Part14PlateSurfacePy25staticCallback_makeApproxEP7_objectS2_S2_
Part.so:_ZN4Part14PlateSurfacePy5_reprEv
Part.so:_ZN4Part14PlateSurfacePy6PyInitEP7_objectS2_
Part.so:_ZN4Part14PlateSurfacePy6PyMakeEP11_typeobjectP7_objectS4_
Part.so:_ZN4Part14PlateSurfacePy8_getattrEPKc
Part.so:_ZN4Part14PlateSurfacePy8_setattrEPKcP7_object
Part.so:_ZN4Part14PlateSurfacePyC1EPNS_16GeomPlateSurfaceEP11_typeobject
Part.so:_ZN4Part14PlateSurfacePyC2EPNS_16GeomPlateSurfaceEP11_typeobject
Part.so:_ZN4Part14PlateSurfacePyD0Ev
Part.so:_ZN4Part14PlateSurfacePyD1Ev
Part.so:_ZN4Part14PlateSurfacePyD2Ev
Part.so:_ZN4Part14RegularPolygon14getClassTypeIdEv
Part.so:_ZN4Part14RegularPolygon18getPropertyDataPtrEv
Part.so:_ZN4Part14RegularPolygon4initEv
Part.so:_ZN4Part14RegularPolygon6createEv
Part.so:_ZN4Part14RegularPolygon7executeEv
Part.so:_ZN4Part14RegularPolygonC1Ev
Part.so:_ZN4Part14RegularPolygonC2Ev
Part.so:_ZN4Part14TrimmedCurvePy17setParameterRangeEP7_object
Part.so:_ZN4Part14TrimmedCurvePy19setCustomAttributesEPKcP7_object
Part.so:_ZN4Part14TrimmedCurvePy32staticCallback_setParameterRangeEP7_objectS2_
Part.so:_ZN4Part14TrimmedCurvePy5_reprEv
Part.so:_ZN4Part14TrimmedCurvePy6PyInitEP7_objectS2_
Part.so:_ZN4Part14TrimmedCurvePy6PyMakeEP11_typeobjectP7_objectS4_
Part.so:_ZN4Part14TrimmedCurvePy8_getattrEPKc
Part.so:_ZN4Part14TrimmedCurvePy8_setattrEPKcP7_object
Part.so:_ZN4Part14TrimmedCurvePyC1EPNS_16GeomTrimmedCurveEP11_typeobject
Part.so:_ZN4Part14TrimmedCurvePyC2EPNS_16GeomTrimmedCurveEP11_typeobject
Part.so:_ZN4Part14TrimmedCurvePyD0Ev
Part.so:_ZN4Part14TrimmedCurvePyD1Ev
Part.so:_ZN4Part14TrimmedCurvePyD2Ev
Part.so:_ZN4Part15ArcOfCircle2dPy19setCustomAttributesEPKcP7_object
Part.so:_ZN4Part15ArcOfCircle2dPy24staticCallback_getCircleEP7_objectPv
Part.so:_ZN4Part15ArcOfCircle2dPy24staticCallback_getRadiusEP7_objectPv
Part.so:_ZN4Part15ArcOfCircle2dPy24staticCallback_setCircleEP7_objectS2_Pv
Part.so:_ZN4Part15ArcOfCircle2dPy24staticCallback_setRadiusEP7_objectS2_Pv
Part.so:_ZN4Part15ArcOfCircle2dPy5_reprEv
Part.so:_ZN4Part15ArcOfCircle2dPy6PyInitEP7_objectS2_
Part.so:_ZN4Part15ArcOfCircle2dPy6PyMakeEP11_typeobjectP7_objectS4_
Part.so:_ZN4Part15ArcOfCircle2dPy8_getattrEPKc
Part.so:_ZN4Part15ArcOfCircle2dPy8_setattrEPKcP7_object
Part.so:_ZN4Part15ArcOfCircle2dPy9setRadiusEN2Py5FloatE
Part.so:_ZN4Part15ArcOfCircle2dPyC1EPNS_17Geom2dArcOfCircleEP11_typeobject
Part.so:_ZN4Part15ArcOfCircle2dPyC2EPNS_17Geom2dArcOfCircleEP11_typeobject
Part.so:_ZN4Part15ArcOfCircle2dPyD0Ev
Part.so:_ZN4Part15ArcOfCircle2dPyD1Ev
Part.so:_ZN4Part15ArcOfCircle2dPyD2Ev
Part.so:_ZN4Part15ArcOfParabolaPy19setCustomAttributesEPKcP7_object
Part.so:_ZN4Part15ArcOfParabolaPy23staticCallback_getFocalEP7_objectPv
Part.so:_ZN4Part15ArcOfParabolaPy23staticCallback_setFocalEP7_objectS2_Pv
Part.so:_ZN4Part15ArcOfParabolaPy26staticCallback_getParabolaEP7_objectPv
Part.so:_ZN4Part15ArcOfParabolaPy26staticCallback_setParabolaEP7_objectS2_Pv
Part.so:_ZN4Part15ArcOfParabolaPy5_reprEv
Part.so:_ZN4Part15ArcOfParabolaPy6PyInitEP7_objectS2_
Part.so:_ZN4Part15ArcOfParabolaPy6PyMakeEP11_typeobjectP7_objectS4_
Part.so:_ZN4Part15ArcOfParabolaPy8_getattrEPKc
Part.so:_ZN4Part15ArcOfParabolaPy8_setattrEPKcP7_object
Part.so:_ZN4Part15ArcOfParabolaPy8setFocalEN2Py5FloatE
Part.so:_ZN4Part15ArcOfParabolaPyC1EPNS_17GeomArcOfParabolaEP11_typeobject
Part.so:_ZN4Part15ArcOfParabolaPyC2EPNS_17GeomArcOfParabolaEP11_typeobject
Part.so:_ZN4Part15ArcOfParabolaPyD0Ev
Part.so:_ZN4Part15ArcOfParabolaPyD1Ev
Part.so:_ZN4Part15ArcOfParabolaPyD2Ev
Part.so:_ZN4Part15AttachExtension11setAttacherEPN8Attacher12AttachEngineE
Part.so:_ZN4Part15AttachExtension12getPlacementEv
Part.so:_ZN4Part15AttachExtension16extensionExecuteEv
Part.so:_ZN4Part15AttachExtension17positionBySupportEv
Part.so:_ZN4Part15AttachExtension18changeAttacherTypeEPKc
Part.so:_ZN4Part15AttachExtension18extensionOnChangedEPKN3App8PropertyE
Part.so:_ZN4Part15AttachExtension18updateAttacherValsEv
Part.so:_ZN4Part15AttachExtension20extensionMustExecuteEv
Part.so:_ZN4Part15AttachExtension20getExtensionPyObjectEv
Part.so:_ZN4Part15AttachExtension23getExtensionClassTypeIdEv
Part.so:_ZN4Part15AttachExtension26onExtendedDocumentRestoredEv
Part.so:_ZN4Part15AttachExtension27extensionGetPropertyDataPtrEv
Part.so:_ZN4Part15AttachExtension28extHandleChangedPropertyNameERN4Base9XMLReaderEPKcS5_
Part.so:_ZN4Part15AttachExtension4initEv
Part.so:_ZN4Part15AttachExtension6createEv
Part.so:_ZN4Part15AttachExtensionC1Ev
Part.so:_ZN4Part15AttachExtensionC2Ev
Part.so:_ZN4Part15AttachExtensionD0Ev
Part.so:_ZN4Part15AttachExtensionD1Ev
Part.so:_ZN4Part15AttachExtensionD2Ev
Part.so:_ZN4Part15BezierCurve2dPy10getWeightsEP7_object
Part.so:_ZN4Part15BezierCurve2dPy10isPeriodicEP7_object
Part.so:_ZN4Part15BezierCurve2dPy10isRationalEP7_object
Part.so:_ZN4Part15BezierCurve2dPy10removePoleEP7_object
Part.so:_ZN4Part15BezierCurve2dPy13getResolutionEP7_object
Part.so:_ZN4Part15BezierCurve2dPy15insertPoleAfterEP7_object
Part.so:_ZN4Part15BezierCurve2dPy16insertPoleBeforeEP7_object
Part.so:_ZN4Part15BezierCurve2dPy19setCustomAttributesEPKcP7_object
Part.so:_ZN4Part15BezierCurve2dPy22staticCallback_getPoleEP7_objectS2_
Part.so:_ZN4Part15BezierCurve2dPy22staticCallback_segmentEP7_objectS2_
Part.so:_ZN4Part15BezierCurve2dPy22staticCallback_setPoleEP7_objectS2_
Part.so:_ZN4Part15BezierCurve2dPy23staticCallback_getPolesEP7_objectS2_
Part.so:_ZN4Part15BezierCurve2dPy23staticCallback_increaseEP7_objectS2_
Part.so:_ZN4Part15BezierCurve2dPy23staticCallback_isClosedEP7_objectS2_
Part.so:_ZN4Part15BezierCurve2dPy23staticCallback_setPolesEP7_objectS2_
Part.so:_ZN4Part15BezierCurve2dPy24staticCallback_getDegreeEP7_objectPv
Part.so:_ZN4Part15BezierCurve2dPy24staticCallback_getWeightEP7_objectS2_
Part.so:_ZN4Part15BezierCurve2dPy24staticCallback_setDegreeEP7_objectS2_Pv
Part.so:_ZN4Part15BezierCurve2dPy24staticCallback_setWeightEP7_objectS2_
Part.so:_ZN4Part15BezierCurve2dPy25staticCallback_getNbPolesEP7_objectPv
Part.so:_ZN4Part15BezierCurve2dPy25staticCallback_getWeightsEP7_objectS2_
Part.so:_ZN4Part15BezierCurve2dPy25staticCallback_isPeriodicEP7_objectS2_
Part.so:_ZN4Part15BezierCurve2dPy25staticCallback_isRationalEP7_objectS2_
Part.so:_ZN4Part15BezierCurve2dPy25staticCallback_removePoleEP7_objectS2_
Part.so:_ZN4Part15BezierCurve2dPy25staticCallback_setNbPolesEP7_objectS2_Pv
Part.so:_ZN4Part15BezierCurve2dPy26staticCallback_getEndPointEP7_objectPv
Part.so:_ZN4Part15BezierCurve2dPy26staticCallback_setEndPointEP7_objectS2_Pv
Part.so:_ZN4Part15BezierCurve2dPy27staticCallback_getMaxDegreeEP7_objectPv
Part.so:_ZN4Part15BezierCurve2dPy27staticCallback_setMaxDegreeEP7_objectS2_Pv
Part.so:_ZN4Part15BezierCurve2dPy28staticCallback_getResolutionEP7_objectS2_
Part.so:_ZN4Part15BezierCurve2dPy28staticCallback_getStartPointEP7_objectPv
Part.so:_ZN4Part15BezierCurve2dPy28staticCallback_setStartPointEP7_objectS2_Pv
Part.so:_ZN4Part15BezierCurve2dPy30staticCallback_insertPoleAfterEP7_objectS2_
Part.so:_ZN4Part15BezierCurve2dPy31staticCallback_insertPoleBeforeEP7_objectS2_
Part.so:_ZN4Part15BezierCurve2dPy5_reprEv
Part.so:_ZN4Part15BezierCurve2dPy6PyInitEP7_objectS2_
Part.so:_ZN4Part15BezierCurve2dPy6PyMakeEP11_typeobjectP7_objectS4_
Part.so:_ZN4Part15BezierCurve2dPy7getPoleEP7_object
Part.so:_ZN4Part15BezierCurve2dPy7segmentEP7_object
Part.so:_ZN4Part15BezierCurve2dPy7setPoleEP7_object
Part.so:_ZN4Part15BezierCurve2dPy8_getattrEPKc
Part.so:_ZN4Part15BezierCurve2dPy8_setattrEPKcP7_object
Part.so:_ZN4Part15BezierCurve2dPy8getPolesEP7_object
Part.so:_ZN4Part15BezierCurve2dPy8increaseEP7_object
Part.so:_ZN4Part15BezierCurve2dPy8isClosedEP7_object
Part.so:_ZN4Part15BezierCurve2dPy8setPolesEP7_object
Part.so:_ZN4Part15BezierCurve2dPy9getWeightEP7_object
Part.so:_ZN4Part15BezierCurve2dPy9setWeightEP7_object
Part.so:_ZN4Part15BezierCurve2dPyC1EPNS_17Geom2dBezierCurveEP11_typeobject
Part.so:_ZN4Part15BezierCurve2dPyC2EPNS_17Geom2dBezierCurveEP11_typeobject
Part.so:_ZN4Part15BezierCurve2dPyD0Ev
Part.so:_ZN4Part15BezierCurve2dPyD1Ev
Part.so:_ZN4Part15BezierCurve2dPyD2Ev
Part.so:_ZN4Part15BezierSurfacePy10exchangeUVEP7_object
Part.so:_ZN4Part15BezierSurfacePy10getWeightsEP7_object
Part.so:_ZN4Part15BezierSurfacePy10setPoleColEP7_object
Part.so:_ZN4Part15BezierSurfacePy10setPoleRowEP7_object
Part.so:_ZN4Part15BezierSurfacePy11isUPeriodicEP7_object
Part.so:_ZN4Part15BezierSurfacePy11isURationalEP7_object
Part.so:_ZN4Part15BezierSurfacePy11isVPeriodicEP7_object
Part.so:_ZN4Part15BezierSurfacePy11isVRationalEP7_object
Part.so:_ZN4Part15BezierSurfacePy12setWeightColEP7_object
Part.so:_ZN4Part15BezierSurfacePy12setWeightRowEP7_object
Part.so:_ZN4Part15BezierSurfacePy13getResolutionEP7_object
Part.so:_ZN4Part15BezierSurfacePy13removePoleColEP7_object
Part.so:_ZN4Part15BezierSurfacePy13removePoleRowEP7_object
Part.so:_ZN4Part15BezierSurfacePy18insertPoleColAfterEP7_object
Part.so:_ZN4Part15BezierSurfacePy18insertPoleRowAfterEP7_object
Part.so:_ZN4Part15BezierSurfacePy19insertPoleColBeforeEP7_object
Part.so:_ZN4Part15BezierSurfacePy19insertPoleRowBeforeEP7_object
Part.so:_ZN4Part15BezierSurfacePy19setCustomAttributesEPKcP7_object
Part.so:_ZN4Part15BezierSurfacePy19staticCallback_uIsoEP7_objectS2_
Part.so:_ZN4Part15BezierSurfacePy19staticCallback_vIsoEP7_objectS2_
Part.so:_ZN4Part15BezierSurfacePy21staticCallback_boundsEP7_objectS2_
Part.so:_ZN4Part15BezierSurfacePy22staticCallback_getPoleEP7_objectS2_
Part.so:_ZN4Part15BezierSurfacePy22staticCallback_segmentEP7_objectS2_
Part.so:_ZN4Part15BezierSurfacePy22staticCallback_setPoleEP7_objectS2_
Part.so:_ZN4Part15BezierSurfacePy23staticCallback_getPolesEP7_objectS2_
Part.so:_ZN4Part15BezierSurfacePy23staticCallback_increaseEP7_objectS2_
Part.so:_ZN4Part15BezierSurfacePy24staticCallback_getWeightEP7_objectS2_
Part.so:_ZN4Part15BezierSurfacePy24staticCallback_isUClosedEP7_objectS2_
Part.so:_ZN4Part15BezierSurfacePy24staticCallback_isVClosedEP7_objectS2_
Part.so:_ZN4Part15BezierSurfacePy24staticCallback_setWeightEP7_objectS2_
Part.so:_ZN4Part15BezierSurfacePy25staticCallback_exchangeUVEP7_objectS2_
Part.so:_ZN4Part15BezierSurfacePy25staticCallback_getUDegreeEP7_objectPv
Part.so:_ZN4Part15BezierSurfacePy25staticCallback_getVDegreeEP7_objectPv
Part.so:_ZN4Part15BezierSurfacePy25staticCallback_getWeightsEP7_objectS2_
Part.so:_ZN4Part15BezierSurfacePy25staticCallback_setPoleColEP7_objectS2_
Part.so:_ZN4Part15BezierSurfacePy25staticCallback_setPoleRowEP7_objectS2_
Part.so:_ZN4Part15BezierSurfacePy25staticCallback_setUDegreeEP7_objectS2_Pv
Part.so:_ZN4Part15BezierSurfacePy25staticCallback_setVDegreeEP7_objectS2_Pv
Part.so:_ZN4Part15BezierSurfacePy26staticCallback_getNbUPolesEP7_objectPv
Part.so:_ZN4Part15BezierSurfacePy26staticCallback_getNbVPolesEP7_objectPv
Part.so:_ZN4Part15BezierSurfacePy26staticCallback_isUPeriodicEP7_objectS2_
Part.so:_ZN4Part15BezierSurfacePy26staticCallback_isURationalEP7_objectS2_
Part.so:_ZN4Part15BezierSurfacePy26staticCallback_isVPeriodicEP7_objectS2_
Part.so:_ZN4Part15BezierSurfacePy26staticCallback_isVRationalEP7_objectS2_
Part.so:_ZN4Part15BezierSurfacePy26staticCallback_setNbUPolesEP7_objectS2_Pv
Part.so:_ZN4Part15BezierSurfacePy26staticCallback_setNbVPolesEP7_objectS2_Pv
Part.so:_ZN4Part15BezierSurfacePy27staticCallback_getMaxDegreeEP7_objectPv
Part.so:_ZN4Part15BezierSurfacePy27staticCallback_setMaxDegreeEP7_objectS2_Pv
Part.so:_ZN4Part15BezierSurfacePy27staticCallback_setWeightColEP7_objectS2_
Part.so:_ZN4Part15BezierSurfacePy27staticCallback_setWeightRowEP7_objectS2_
Part.so:_ZN4Part15BezierSurfacePy28staticCallback_getResolutionEP7_objectS2_
Part.so:_ZN4Part15BezierSurfacePy28staticCallback_removePoleColEP7_objectS2_
Part.so:_ZN4Part15BezierSurfacePy28staticCallback_removePoleRowEP7_objectS2_
Part.so:_ZN4Part15BezierSurfacePy33staticCallback_insertPoleColAfterEP7_objectS2_
Part.so:_ZN4Part15BezierSurfacePy33staticCallback_insertPoleRowAfterEP7_objectS2_
Part.so:_ZN4Part15BezierSurfacePy34staticCallback_insertPoleColBeforeEP7_objectS2_
Part.so:_ZN4Part15BezierSurfacePy34staticCallback_insertPoleRowBeforeEP7_objectS2_
Part.so:_ZN4Part15BezierSurfacePy4uIsoEP7_object
Part.so:_ZN4Part15BezierSurfacePy4vIsoEP7_object
Part.so:_ZN4Part15BezierSurfacePy5_reprEv
Part.so:_ZN4Part15BezierSurfacePy6PyInitEP7_objectS2_
Part.so:_ZN4Part15BezierSurfacePy6PyMakeEP11_typeobjectP7_objectS4_
Part.so:_ZN4Part15BezierSurfacePy6boundsEP7_object
Part.so:_ZN4Part15BezierSurfacePy7getPoleEP7_object
Part.so:_ZN4Part15BezierSurfacePy7segmentEP7_object
Part.so:_ZN4Part15BezierSurfacePy7setPoleEP7_object
Part.so:_ZN4Part15BezierSurfacePy8_getattrEPKc
Part.so:_ZN4Part15BezierSurfacePy8_setattrEPKcP7_object
Part.so:_ZN4Part15BezierSurfacePy8getPolesEP7_object
Part.so:_ZN4Part15BezierSurfacePy8increaseEP7_object
Part.so:_ZN4Part15BezierSurfacePy9getWeightEP7_object
Part.so:_ZN4Part15BezierSurfacePy9isUClosedEP7_object
Part.so:_ZN4Part15BezierSurfacePy9isVClosedEP7_object
Part.so:_ZN4Part15BezierSurfacePy9setWeightEP7_object
Part.so:_ZN4Part15BezierSurfacePyC1EPNS_17GeomBezierSurfaceEP11_typeobject
Part.so:_ZN4Part15BezierSurfacePyC2EPNS_17GeomBezierSurfaceEP11_typeobject
Part.so:_ZN4Part15BezierSurfacePyD0Ev
Part.so:_ZN4Part15BezierSurfacePyD1Ev
Part.so:_ZN4Part15BezierSurfacePyD2Ev
Part.so:_ZN4Part15FaceMakerCheese12Wire_CompareclERK11TopoDS_WireS4_
Part.so:_ZN4Part15FaceMakerCheese12validateFaceERK11TopoDS_Face
Part.so:_ZN4Part15FaceMakerCheese13Build_EssenceEv
Part.so:_ZN4Part15FaceMakerCheese14getClassTypeIdEv
Part.so:_ZN4Part15FaceMakerCheese4initEv
Part.so:_ZN4Part15FaceMakerCheese6createEv
Part.so:_ZN4Part15FaceMakerCheese8isInsideERK11TopoDS_WireS3_
Part.so:_ZN4Part15FaceMakerCheese8makeFaceERKSt6vectorI11TopoDS_WireSaIS2_EE
Part.so:_ZN4Part15FaceMakerCheese8makeFaceERNSt7__cxx114listI11TopoDS_WireSaIS3_EEE
Part.so:_ZN4Part15FaceMakerPublic14getClassTypeIdEv
Part.so:_ZN4Part15FaceMakerPublic4initEv
Part.so:_ZN4Part15FaceMakerPublic6createEv
Part.so:_ZN4Part15FaceMakerSimple13Build_EssenceEv
Part.so:_ZN4Part15FaceMakerSimple14getClassTypeIdEv
Part.so:_ZN4Part15FaceMakerSimple4initEv
Part.so:_ZN4Part15FaceMakerSimple6createEv
Part.so:_ZN4Part15Geom2dHyperbola11getPyObjectEv
Part.so:_ZN4Part15Geom2dHyperbola14getClassTypeIdEv
Part.so:_ZN4Part15Geom2dHyperbola14setMajorRadiusEd
Part.so:_ZN4Part15Geom2dHyperbola14setMinorRadiusEd
Part.so:_ZN4Part15Geom2dHyperbola4initEv
Part.so:_ZN4Part15Geom2dHyperbola6createEv
Part.so:_ZN4Part15Geom2dHyperbola7RestoreERN4Base9XMLReaderE
Part.so:_ZN4Part15Geom2dHyperbolaC1ERK23Handle_Geom2d_Hyperbola
Part.so:_ZN4Part15Geom2dHyperbolaC1Ev
Part.so:_ZN4Part15Geom2dHyperbolaC2ERK23Handle_Geom2d_Hyperbola
Part.so:_ZN4Part15Geom2dHyperbolaC2Ev
Part.so:_ZN4Part15Geom2dHyperbolaD0Ev
Part.so:_ZN4Part15Geom2dHyperbolaD1Ev
Part.so:_ZN4Part15Geom2dHyperbolaD2Ev
Part.so:_ZN4Part15GeomArcOfCircle11getPyObjectEv
Part.so:_ZN4Part15GeomArcOfCircle14getClassTypeIdEv
Part.so:_ZN4Part15GeomArcOfCircle4initEv
Part.so:_ZN4Part15GeomArcOfCircle6createEv
Part.so:_ZN4Part15GeomArcOfCircle7RestoreERN4Base9XMLReaderE
Part.so:_ZN4Part15GeomArcOfCircle8setRangeEddb
Part.so:_ZN4Part15GeomArcOfCircle9setHandleERK18Handle_Geom_Circle
Part.so:_ZN4Part15GeomArcOfCircle9setHandleERK24Handle_Geom_TrimmedCurve
Part.so:_ZN4Part15GeomArcOfCircle9setRadiusEd
Part.so:_ZN4Part15GeomArcOfCircleC1ERK18Handle_Geom_Circle
Part.so:_ZN4Part15GeomArcOfCircleC1Ev
Part.so:_ZN4Part15GeomArcOfCircleC2ERK18Handle_Geom_Circle
Part.so:_ZN4Part15GeomArcOfCircleC2Ev
Part.so:_ZN4Part15GeomArcOfCircleD0Ev
Part.so:_ZN4Part15GeomArcOfCircleD1Ev
Part.so:_ZN4Part15GeomArcOfCircleD2Ev
Part.so:_ZN4Part15GeomBezierCurve11getPyObjectEv
Part.so:_ZN4Part15GeomBezierCurve14getClassTypeIdEv
Part.so:_ZN4Part15GeomBezierCurve4initEv
Part.so:_ZN4Part15GeomBezierCurve6createEv
Part.so:_ZN4Part15GeomBezierCurve7RestoreERN4Base9XMLReaderE
Part.so:_ZN4Part15GeomBezierCurve9setHandleERK23Handle_Geom_BezierCurve
Part.so:_ZN4Part15GeomBezierCurveC1ERK23Handle_Geom_BezierCurve
Part.so:_ZN4Part15GeomBezierCurveC1ERKSt6vectorIN4Base7Vector3IdEESaIS4_EERKS1_IdSaIdEE
Part.so:_ZN4Part15GeomBezierCurveC1Ev
Part.so:_ZN4Part15GeomBezierCurveC2ERK23Handle_Geom_BezierCurve
Part.so:_ZN4Part15GeomBezierCurveC2ERKSt6vectorIN4Base7Vector3IdEESaIS4_EERKS1_IdSaIdEE
Part.so:_ZN4Part15GeomBezierCurveC2Ev
Part.so:_ZN4Part15GeomBezierCurveD0Ev
Part.so:_ZN4Part15GeomBezierCurveD1Ev
Part.so:_ZN4Part15GeomBezierCurveD2Ev
Part.so:_ZN4Part15GeomLineSegment11getPyObjectEv
Part.so:_ZN4Part15GeomLineSegment14getClassTypeIdEv
Part.so:_ZN4Part15GeomLineSegment4initEv
Part.so:_ZN4Part15GeomLineSegment6createEv
Part.so:_ZN4Part15GeomLineSegment7RestoreERN4Base9XMLReaderE
Part.so:_ZN4Part15GeomLineSegment9setHandleERK16Handle_Geom_Line
Part.so:_ZN4Part15GeomLineSegment9setHandleERK24Handle_Geom_TrimmedCurve
Part.so:_ZN4Part15GeomLineSegment9setPointsERKN4Base7Vector3IdEES5_
Part.so:_ZN4Part15GeomLineSegmentC1ERK16Handle_Geom_Line
Part.so:_ZN4Part15GeomLineSegmentC1Ev
Part.so:_ZN4Part15GeomLineSegmentC2ERK16Handle_Geom_Line
Part.so:_ZN4Part15GeomLineSegmentC2Ev
Part.so:_ZN4Part15GeomLineSegmentD0Ev
Part.so:_ZN4Part15GeomLineSegmentD1Ev
Part.so:_ZN4Part15GeomLineSegmentD2Ev
Part.so:_ZN4Part15GeomOffsetCurve11getPyObjectEv
Part.so:_ZN4Part15GeomOffsetCurve14getClassTypeIdEv
Part.so:_ZN4Part15GeomOffsetCurve4initEv
Part.so:_ZN4Part15GeomOffsetCurve6createEv
Part.so:_ZN4Part15GeomOffsetCurve7RestoreERN4Base9XMLReaderE
Part.so:_ZN4Part15GeomOffsetCurve9setHandleERK23Handle_Geom_OffsetCurve
Part.so:_ZN4Part15GeomOffsetCurveC1ERK17Handle_Geom_CurvedRK6gp_Dir
Part.so:_ZN4Part15GeomOffsetCurveC1ERK17Handle_Geom_CurvedRN4Base7Vector3IdEE
Part.so:_ZN4Part15GeomOffsetCurveC1ERK23Handle_Geom_OffsetCurve
Part.so:_ZN4Part15GeomOffsetCurveC1Ev
Part.so:_ZN4Part15GeomOffsetCurveC2ERK17Handle_Geom_CurvedRK6gp_Dir
Part.so:_ZN4Part15GeomOffsetCurveC2ERK17Handle_Geom_CurvedRN4Base7Vector3IdEE
Part.so:_ZN4Part15GeomOffsetCurveC2ERK23Handle_Geom_OffsetCurve
Part.so:_ZN4Part15GeomOffsetCurveC2Ev
Part.so:_ZN4Part15GeomOffsetCurveD0Ev
Part.so:_ZN4Part15GeomOffsetCurveD1Ev
Part.so:_ZN4Part15GeomOffsetCurveD2Ev
Part.so:_ZN4Part15GeometryCurvePy10discretizeEP7_objectS2_
Part.so:_ZN4Part15GeometryCurvePy10isPeriodicEP7_object
Part.so:_ZN4Part15GeometryCurvePy11intersect2dEP7_object
Part.so:_ZN4Part15GeometryCurvePy11intersectCCEP7_object
Part.so:_ZN4Part15GeometryCurvePy11intersectCSEP7_object
